
/Users/bsatrom/Development/particle/workshops/roadshow-workshop-2019/labs/lab3/target/lab3.elf:     file format elf32-littlearm

Sections:
Idx Name          Size      VMA       LMA       File off  Algn
  0 .module_info  00000018  000d4000  000d4000  00004000  2**2
                  CONTENTS, ALLOC, LOAD, READONLY, DATA
  1 .text         000053c8  000d4018  000d4018  00004018  2**3
                  CONTENTS, ALLOC, LOAD, READONLY, CODE
  2 .ARM.exidx    00000008  000d93e0  000d93e0  000093e0  2**2
                  CONTENTS, ALLOC, LOAD, READONLY, DATA
  3 .backup       00000000  2003f400  2003f400  0001947c  2**0
                  CONTENTS
  4 .data         00000068  2003e3e8  000d93e8  0000e3e8  2**2
                  CONTENTS, ALLOC, LOAD, DATA
  5 .bss          000003a0  2003e450  2003e450  0001e450  2**3
                  ALLOC
  6 .module_info_suffix 00000028  000d9450  000d9450  00019450  2**0
                  CONTENTS, ALLOC, LOAD, READONLY, DATA
  7 .module_info_crc 00000004  000d9478  000d9478  00019478  2**0
                  CONTENTS, ALLOC, LOAD, READONLY, DATA
  8 .debug_info   001055c3  00000000  00000000  0001947c  2**0
                  CONTENTS, READONLY, DEBUGGING
  9 .debug_abbrev 00014e2e  00000000  00000000  0011ea3f  2**0
                  CONTENTS, READONLY, DEBUGGING
 10 .debug_loc    00023938  00000000  00000000  0013386d  2**0
                  CONTENTS, READONLY, DEBUGGING
 11 .debug_aranges 00002d00  00000000  00000000  001571a5  2**0
                  CONTENTS, READONLY, DEBUGGING
 12 .debug_ranges 00005110  00000000  00000000  00159ea5  2**0
                  CONTENTS, READONLY, DEBUGGING
 13 .debug_macro  0003d1d0  00000000  00000000  0015efb5  2**0
                  CONTENTS, READONLY, DEBUGGING
 14 .debug_line   00033ea8  00000000  00000000  0019c185  2**0
                  CONTENTS, READONLY, DEBUGGING
 15 .debug_str    00107d65  00000000  00000000  001d002d  2**0
                  CONTENTS, READONLY, DEBUGGING
 16 .debug_frame  0000e3d8  00000000  00000000  002d7d94  2**2
                  CONTENTS, READONLY, DEBUGGING

Disassembly of section .text:

000d4018 <user_part_module>:
   d4018:	e0 8c 0d 00                                         ....

000d401c <module_user_pre_init>:
/**
 * Initializes this user module. Returns the start of the heap.
 */
void* module_user_pre_init() {

    if ( (&link_global_data_start!=&link_global_data_initial_values) && (link_global_data_size != 0))
   d401c:	4809      	ldr	r0, [pc, #36]	; (d4044 <module_user_pre_init+0x28>)
   d401e:	490a      	ldr	r1, [pc, #40]	; (d4048 <module_user_pre_init+0x2c>)
   d4020:	4288      	cmp	r0, r1
extern constructor_ptr_t link_constructors_end;

/**
 * Initializes this user module. Returns the start of the heap.
 */
void* module_user_pre_init() {
   d4022:	b508      	push	{r3, lr}

    if ( (&link_global_data_start!=&link_global_data_initial_values) && (link_global_data_size != 0))
   d4024:	d005      	beq.n	d4032 <module_user_pre_init+0x16>
   d4026:	4a09      	ldr	r2, [pc, #36]	; (d404c <module_user_pre_init+0x30>)
   d4028:	4282      	cmp	r2, r0
   d402a:	d002      	beq.n	d4032 <module_user_pre_init+0x16>
    {
        memcpy(&link_global_data_start, &link_global_data_initial_values, link_global_data_size);
   d402c:	1a12      	subs	r2, r2, r0
   d402e:	f004 fdc2 	bl	d8bb6 <memcpy>
    }

    memset(&link_bss_location, 0, link_bss_size );
   d4032:	4807      	ldr	r0, [pc, #28]	; (d4050 <module_user_pre_init+0x34>)
   d4034:	4a07      	ldr	r2, [pc, #28]	; (d4054 <module_user_pre_init+0x38>)
   d4036:	2100      	movs	r1, #0
   d4038:	1a12      	subs	r2, r2, r0
   d403a:	f004 fde2 	bl	d8c02 <memset>
    return &link_global_data_start;
}
   d403e:	4801      	ldr	r0, [pc, #4]	; (d4044 <module_user_pre_init+0x28>)
   d4040:	bd08      	pop	{r3, pc}
   d4042:	bf00      	nop
   d4044:	2003e3e8 	.word	0x2003e3e8
   d4048:	000d93e8 	.word	0x000d93e8
   d404c:	2003e450 	.word	0x2003e450
   d4050:	2003e450 	.word	0x2003e450
   d4054:	2003e7f0 	.word	0x2003e7f0

000d4058 <module_user_init>:
extern constructor_ptr_t link_constructors_location[];
extern constructor_ptr_t link_constructors_end;
#define link_constructors_size   ((unsigned long)&link_constructors_end  -  (unsigned long)&link_constructors_location )

void module_user_init()
{
   d4058:	b570      	push	{r4, r5, r6, lr}
    module_user_init_hook();
   d405a:	f003 fd01 	bl	d7a60 <module_user_init_hook>
   d405e:	4c07      	ldr	r4, [pc, #28]	; (d407c <module_user_init+0x24>)
   d4060:	4b07      	ldr	r3, [pc, #28]	; (d4080 <module_user_init+0x28>)
   d4062:	1ae4      	subs	r4, r4, r3
   d4064:	08a4      	lsrs	r4, r4, #2

    // invoke constructors
    int ctor_num;
    for (ctor_num=0; ctor_num < link_constructors_size/sizeof(constructor_ptr_t); ctor_num++ )
   d4066:	2500      	movs	r5, #0
   d4068:	461e      	mov	r6, r3
   d406a:	42a5      	cmp	r5, r4
   d406c:	d004      	beq.n	d4078 <module_user_init+0x20>
    {
        link_constructors_location[ctor_num]();
   d406e:	f856 3025 	ldr.w	r3, [r6, r5, lsl #2]
   d4072:	4798      	blx	r3
{
    module_user_init_hook();

    // invoke constructors
    int ctor_num;
    for (ctor_num=0; ctor_num < link_constructors_size/sizeof(constructor_ptr_t); ctor_num++ )
   d4074:	3501      	adds	r5, #1
   d4076:	e7f8      	b.n	d406a <module_user_init+0x12>
    {
        link_constructors_location[ctor_num]();
    }
}
   d4078:	bd70      	pop	{r4, r5, r6, pc}
   d407a:	bf00      	nop
   d407c:	000d93e0 	.word	0x000d93e0
   d4080:	000d9394 	.word	0x000d9394

000d4084 <module_user_setup>:

/**
 * Export these functions with a fuller name so they don't clash with the setup/loop wrappers in the system module.
 */
void module_user_setup() {
    setup();
   d4084:	f000 b8a6 	b.w	d41d4 <setup>

000d4088 <module_user_loop>:
}

void module_user_loop() {
   d4088:	b508      	push	{r3, lr}
    loop();
   d408a:	f000 f9b5 	bl	d43f8 <loop>
    _post_loop();
}
   d408e:	e8bd 4008 	ldmia.w	sp!, {r3, lr}
    setup();
}

void module_user_loop() {
    loop();
    _post_loop();
   d4092:	f003 bcb3 	b.w	d79fc <_post_loop>

000d4096 <_Znwj>:
   d4096:	f001 bacd 	b.w	d5634 <malloc>

000d409a <_ZdlPv>:
   d409a:	f001 bad3 	b.w	d5644 <free>

000d409e <_ZdaPv>:
	free(p);
}

void operator delete[](void *p)
{
	free(p);
   d409e:	f001 bad1 	b.w	d5644 <free>

000d40a2 <__cxa_guard_acquire>:

/* Provide default implemenation for __cxa_guard_acquire() and
 * __cxa_guard_release(). Note: these must be revisited if a multitasking
 * OS is ported to this platform. */
__extension__ typedef int __guard __attribute__((mode (__DI__)));
int __cxa_guard_acquire(__guard *g) {return !*(char *)(g);};
   d40a2:	7800      	ldrb	r0, [r0, #0]
   d40a4:	fab0 f080 	clz	r0, r0
   d40a8:	0940      	lsrs	r0, r0, #5
   d40aa:	4770      	bx	lr

000d40ac <__cxa_guard_release>:
void __cxa_guard_release (__guard *g) {*(char *)g = 1;};
   d40ac:	2301      	movs	r3, #1
   d40ae:	7003      	strb	r3, [r0, #0]
   d40b0:	4770      	bx	lr
	...

000d40b4 <_Z9toggleLed6String>:
    }
  }
}

int toggleLed(String args)
{
   d40b4:	b510      	push	{r4, lr}
  leds.setColorHSB(0, 0.0, 1.0, 0.5);
   d40b6:	4c10      	ldr	r4, [pc, #64]	; (d40f8 <_Z9toggleLed6String+0x44>)
    }
  }
}

int toggleLed(String args)
{
   d40b8:	ed2d 8b02 	vpush	{d8}
  leds.setColorHSB(0, 0.0, 1.0, 0.5);
   d40bc:	ed9f 8a0f 	vldr	s16, [pc, #60]	; d40fc <_Z9toggleLed6String+0x48>
   d40c0:	eeb6 1a00 	vmov.f32	s2, #96	; 0x3f000000  0.5
   d40c4:	eeb0 0a48 	vmov.f32	s0, s16
   d40c8:	eef7 0a00 	vmov.f32	s1, #112	; 0x3f800000  1.0
   d40cc:	2100      	movs	r1, #0
   d40ce:	4620      	mov	r0, r4
   d40d0:	f000 fca6 	bl	d4a20 <_ZN12ChainableLED11setColorHSBEhfff>

  delay(1000);
   d40d4:	f44f 707a 	mov.w	r0, #1000	; 0x3e8
   d40d8:	f001 fb25 	bl	d5726 <delay>

  leds.setColorHSB(0, 0.0, 0.0, 0.0);
   d40dc:	eeb0 1a48 	vmov.f32	s2, s16
   d40e0:	eef0 0a48 	vmov.f32	s1, s16
   d40e4:	eeb0 0a48 	vmov.f32	s0, s16
   d40e8:	4620      	mov	r0, r4
   d40ea:	2100      	movs	r1, #0
   d40ec:	f000 fc98 	bl	d4a20 <_ZN12ChainableLED11setColorHSBEhfff>

  return 1;
}
   d40f0:	ecbd 8b02 	vpop	{d8}
   d40f4:	2001      	movs	r0, #1
   d40f6:	bd10      	pop	{r4, pc}
   d40f8:	2003e454 	.word	0x2003e454
   d40fc:	00000000 	.word	0x00000000

000d4100 <_ZN16JsonWriterStaticILj256EED1Ev>:
 * variable.
 *
 * @param BUFFER_SIZE The size of the buffer to reserve.
 */
template <size_t BUFFER_SIZE>
class JsonWriterStatic : public JsonWriter {
   d4100:	b510      	push	{r4, lr}
   d4102:	4b03      	ldr	r3, [pc, #12]	; (d4110 <_ZN16JsonWriterStaticILj256EED1Ev+0x10>)
   d4104:	6003      	str	r3, [r0, #0]
   d4106:	4604      	mov	r4, r0
   d4108:	f000 feba 	bl	d4e80 <_ZN10JsonWriterD1Ev>
   d410c:	4620      	mov	r0, r4
   d410e:	bd10      	pop	{r4, pc}
   d4110:	000d8cfc 	.word	0x000d8cfc

000d4114 <_ZN16JsonWriterStaticILj256EED0Ev>:
   d4114:	b510      	push	{r4, lr}
   d4116:	4604      	mov	r4, r0
   d4118:	f7ff fff2 	bl	d4100 <_ZN16JsonWriterStaticILj256EED1Ev>
   d411c:	4620      	mov	r0, r4
   d411e:	f44f 7198 	mov.w	r1, #304	; 0x130
   d4122:	f003 fd64 	bl	d7bee <_ZdlPvj>
   d4126:	4620      	mov	r0, r4
   d4128:	bd10      	pop	{r4, pc}
	...

000d412c <_Z12configureBLEv>:

const unsigned long UPDATE_INTERVAL = 2000;
unsigned long lastUpdate = 0;

void configureBLE()
{
   d412c:	b510      	push	{r4, lr}
   d412e:	b096      	sub	sp, #88	; 0x58
  BLE.addCharacteristic(uptimeCharacteristic);
   d4130:	f001 fdc8 	bl	d5cc4 <_ZN8particle14BleLocalDevice11getInstanceEv>
   d4134:	4a23      	ldr	r2, [pc, #140]	; (d41c4 <_Z12configureBLEv+0x98>)
   d4136:	4601      	mov	r1, r0
   d4138:	a80d      	add	r0, sp, #52	; 0x34
   d413a:	f002 fa05 	bl	d6548 <_ZN8particle14BleLocalDevice17addCharacteristicERKNS_17BleCharacteristicE>
   d413e:	a80d      	add	r0, sp, #52	; 0x34
   d4140:	f001 fe76 	bl	d5e30 <_ZN8particle17BleCharacteristicD1Ev>
  BLE.addCharacteristic(signalStrengthCharacteristic);
   d4144:	f001 fdbe 	bl	d5cc4 <_ZN8particle14BleLocalDevice11getInstanceEv>
   d4148:	4a1f      	ldr	r2, [pc, #124]	; (d41c8 <_Z12configureBLEv+0x9c>)
   d414a:	4601      	mov	r1, r0
   d414c:	a80d      	add	r0, sp, #52	; 0x34
   d414e:	f002 f9fb 	bl	d6548 <_ZN8particle14BleLocalDevice17addCharacteristicERKNS_17BleCharacteristicE>
   d4152:	a80d      	add	r0, sp, #52	; 0x34
   d4154:	f001 fe6c 	bl	d5e30 <_ZN8particle17BleCharacteristicD1Ev>
  BLE.addCharacteristic(freeMemoryCharacteristic);
   d4158:	f001 fdb4 	bl	d5cc4 <_ZN8particle14BleLocalDevice11getInstanceEv>
   d415c:	4a1b      	ldr	r2, [pc, #108]	; (d41cc <_Z12configureBLEv+0xa0>)
   d415e:	4601      	mov	r1, r0
   d4160:	a80d      	add	r0, sp, #52	; 0x34
   d4162:	f002 f9f1 	bl	d6548 <_ZN8particle14BleLocalDevice17addCharacteristicERKNS_17BleCharacteristicE>
   d4166:	a80d      	add	r0, sp, #52	; 0x34
   d4168:	f001 fe62 	bl	d5e30 <_ZN8particle17BleCharacteristicD1Ev>

  BleAdvertisingData advData;
   d416c:	a80d      	add	r0, sp, #52	; 0x34
   d416e:	f001 fcba 	bl	d5ae6 <_ZN8particle18BleAdvertisingDataC1Ev>

  // Advertise our private service only
  advData.appendServiceUUID(serviceUuid);
   d4172:	4917      	ldr	r1, [pc, #92]	; (d41d0 <_Z12configureBLEv+0xa4>)
   d4174:	a803      	add	r0, sp, #12
   d4176:	f001 fb61 	bl	d583c <_ZN8particle7BleUuidC1ERKS0_>
    size_t appendLocalName(const char* name);
    size_t appendLocalName(const String& name);

    template<typename T>
    size_t appendServiceUUID(T uuid, bool force = false) {
        BleUuid tempUUID(uuid);
   d417a:	a903      	add	r1, sp, #12
   d417c:	a808      	add	r0, sp, #32
   d417e:	f001 fb5d 	bl	d583c <_ZN8particle7BleUuidC1ERKS0_>
        if (tempUUID.type() == BleUuidType::SHORT) {
   d4182:	a808      	add	r0, sp, #32
   d4184:	f001 fb98 	bl	d58b8 <_ZNK8particle7BleUuid4typeEv>
   d4188:	4604      	mov	r4, r0
            uint16_t uuid16 = tempUUID.shorted();
   d418a:	a808      	add	r0, sp, #32
    size_t appendLocalName(const String& name);

    template<typename T>
    size_t appendServiceUUID(T uuid, bool force = false) {
        BleUuid tempUUID(uuid);
        if (tempUUID.type() == BleUuidType::SHORT) {
   d418c:	b944      	cbnz	r4, d41a0 <_Z12configureBLEv+0x74>
            uint16_t uuid16 = tempUUID.shorted();
   d418e:	f001 fbb0 	bl	d58f2 <_ZNK8particle7BleUuid7shortedEv>
   d4192:	aa16      	add	r2, sp, #88	; 0x58
            return append(BleAdvertisingDataType::SERVICE_UUID_16BIT_COMPLETE, reinterpret_cast<const uint8_t*>(&uuid16), sizeof(uint16_t), force);
   d4194:	2302      	movs	r3, #2

    template<typename T>
    size_t appendServiceUUID(T uuid, bool force = false) {
        BleUuid tempUUID(uuid);
        if (tempUUID.type() == BleUuidType::SHORT) {
            uint16_t uuid16 = tempUUID.shorted();
   d4196:	f822 0d4e 	strh.w	r0, [r2, #-78]!
            return append(BleAdvertisingDataType::SERVICE_UUID_16BIT_COMPLETE, reinterpret_cast<const uint8_t*>(&uuid16), sizeof(uint16_t), force);
   d419a:	2103      	movs	r1, #3
   d419c:	9400      	str	r4, [sp, #0]
   d419e:	e006      	b.n	d41ae <_Z12configureBLEv+0x82>
        }
        else {
            return append(BleAdvertisingDataType::SERVICE_UUID_128BIT_COMPLETE, tempUUID.rawBytes(), BLE_SIG_UUID_128BIT_LEN, force);
   d41a0:	f001 fba9 	bl	d58f6 <_ZNK8particle7BleUuid8rawBytesEv>
   d41a4:	2300      	movs	r3, #0
   d41a6:	9300      	str	r3, [sp, #0]
   d41a8:	4602      	mov	r2, r0
   d41aa:	2310      	movs	r3, #16
   d41ac:	2107      	movs	r1, #7
   d41ae:	a80d      	add	r0, sp, #52	; 0x34
   d41b0:	f001 fc52 	bl	d5a58 <_ZN8particle18BleAdvertisingData6appendENS_22BleAdvertisingDataTypeEPKhjb>

  // Continuously advertise when not connected
  BLE.advertise(&advData);
   d41b4:	f001 fd86 	bl	d5cc4 <_ZN8particle14BleLocalDevice11getInstanceEv>
   d41b8:	2200      	movs	r2, #0
   d41ba:	a90d      	add	r1, sp, #52	; 0x34
   d41bc:	f001 fdf5 	bl	d5daa <_ZNK8particle14BleLocalDevice9advertiseEPNS_18BleAdvertisingDataES2_>
}
   d41c0:	b016      	add	sp, #88	; 0x58
   d41c2:	bd10      	pop	{r4, pc}
   d41c4:	2003e480 	.word	0x2003e480
   d41c8:	2003e460 	.word	0x2003e460
   d41cc:	2003e49c 	.word	0x2003e49c
   d41d0:	2003e468 	.word	0x2003e468

000d41d4 <setup>:

void setup()
{
   d41d4:	b510      	push	{r4, lr}
  Serial.begin(9600);
   d41d6:	f003 fb55 	bl	d7884 <_Z16_fetch_usbserialv>

  dht.begin();

  leds.init();
   d41da:	4c17      	ldr	r4, [pc, #92]	; (d4238 <setup+0x64>)
  BLE.advertise(&advData);
}

void setup()
{
  Serial.begin(9600);
   d41dc:	f44f 5116 	mov.w	r1, #9600	; 0x2580
   d41e0:	f003 fb44 	bl	d786c <_ZN9USBSerial5beginEl>

  dht.begin();
   d41e4:	4815      	ldr	r0, [pc, #84]	; (d423c <setup+0x68>)
   d41e6:	f000 fd1d 	bl	d4c24 <_ZN3DHT5beginEv>

  leds.init();
   d41ea:	4620      	mov	r0, r4
   d41ec:	f000 fb76 	bl	d48dc <_ZN12ChainableLED4initEv>
  leds.setColorHSB(0, 0.0, 0.0, 0.0);
   d41f0:	ed9f 1a13 	vldr	s2, [pc, #76]	; d4240 <setup+0x6c>
   d41f4:	4620      	mov	r0, r4
   d41f6:	eef0 0a41 	vmov.f32	s1, s2
   d41fa:	eeb0 0a41 	vmov.f32	s0, s2
   d41fe:	2100      	movs	r1, #0
   d4200:	f000 fc0e 	bl	d4a20 <_ZN12ChainableLED11setColorHSBEhfff>

  pinMode(A0, INPUT);
   d4204:	2100      	movs	r1, #0
   d4206:	2013      	movs	r0, #19
   d4208:	f003 fc68 	bl	d7adc <pinMode>
        return _variable(varKey, (const char*)userVar, userVarType);
    }

    template<typename T> static inline bool _variable(const char *varKey, const typename T::varref userVar, const T& userVarType)
    {
        return CLOUD_FN(spark_variable(varKey, (const void*)userVar, T::value(), NULL), false);
   d420c:	2300      	movs	r3, #0
   d420e:	2202      	movs	r2, #2
   d4210:	490c      	ldr	r1, [pc, #48]	; (d4244 <setup+0x70>)
   d4212:	480d      	ldr	r0, [pc, #52]	; (d4248 <setup+0x74>)
   d4214:	f001 f996 	bl	d5544 <spark_variable>
   d4218:	2300      	movs	r3, #0
   d421a:	2202      	movs	r2, #2
   d421c:	490b      	ldr	r1, [pc, #44]	; (d424c <setup+0x78>)
   d421e:	480c      	ldr	r0, [pc, #48]	; (d4250 <setup+0x7c>)
   d4220:	f001 f990 	bl	d5544 <spark_variable>
        return _function(name, args...);
    }

    static bool _function(const char *funcKey, user_function_int_str_t* func)
    {
        return CLOUD_FN(register_function(call_raw_user_function, (void*)func, funcKey), false);
   d4224:	4a0b      	ldr	r2, [pc, #44]	; (d4254 <setup+0x80>)
   d4226:	490c      	ldr	r1, [pc, #48]	; (d4258 <setup+0x84>)
   d4228:	480c      	ldr	r0, [pc, #48]	; (d425c <setup+0x88>)
   d422a:	f002 fb18 	bl	d685e <_ZN10CloudClass17register_functionEPFiPvPKcS0_ES0_S2_>
  Particle.variable("humidity", humidity);

  Particle.function("toggleLed", toggleLed);

  configureBLE();
}
   d422e:	e8bd 4010 	ldmia.w	sp!, {r4, lr}
  Particle.variable("temp", temp);
  Particle.variable("humidity", humidity);

  Particle.function("toggleLed", toggleLed);

  configureBLE();
   d4232:	f7ff bf7b 	b.w	d412c <_Z12configureBLEv>
   d4236:	bf00      	nop
   d4238:	2003e454 	.word	0x2003e454
   d423c:	2003e488 	.word	0x2003e488
   d4240:	00000000 	.word	0x00000000
   d4244:	2003e45c 	.word	0x2003e45c
   d4248:	000d8d04 	.word	0x000d8d04
   d424c:	2003e4a4 	.word	0x2003e4a4
   d4250:	000d8d09 	.word	0x000d8d09
   d4254:	000d8d12 	.word	0x000d8d12
   d4258:	000d40b5 	.word	0x000d40b5
   d425c:	000d6833 	.word	0x000d6833

000d4260 <_ZNSt14__shared_countILN9__gnu_cxx12_Lock_policyE0EED1Ev>:
      explicit __shared_count(const __weak_count<_Lp>& __r);

      // Does not throw if __r._M_get_use_count() == 0, caller must check.
      explicit __shared_count(const __weak_count<_Lp>& __r, std::nothrow_t);

      ~__shared_count() noexcept
   d4260:	b538      	push	{r3, r4, r5, lr}
      {
	if (_M_pi != nullptr)
   d4262:	6804      	ldr	r4, [r0, #0]
      explicit __shared_count(const __weak_count<_Lp>& __r);

      // Does not throw if __r._M_get_use_count() == 0, caller must check.
      explicit __shared_count(const __weak_count<_Lp>& __r, std::nothrow_t);

      ~__shared_count() noexcept
   d4264:	4605      	mov	r5, r0
      {
	if (_M_pi != nullptr)
   d4266:	b17c      	cbz	r4, d4288 <_ZNSt14__shared_countILN9__gnu_cxx12_Lock_policyE0EED1Ev+0x28>

  template<>
    inline void
    _Sp_counted_base<_S_single>::_M_release() noexcept
    {
      if (--_M_use_count == 0)
   d4268:	6863      	ldr	r3, [r4, #4]
   d426a:	3b01      	subs	r3, #1
   d426c:	6063      	str	r3, [r4, #4]
   d426e:	b95b      	cbnz	r3, d4288 <_ZNSt14__shared_countILN9__gnu_cxx12_Lock_policyE0EED1Ev+0x28>
        {
          _M_dispose();
   d4270:	6823      	ldr	r3, [r4, #0]
   d4272:	4620      	mov	r0, r4
   d4274:	689b      	ldr	r3, [r3, #8]
   d4276:	4798      	blx	r3
          if (--_M_weak_count == 0)
   d4278:	68a3      	ldr	r3, [r4, #8]
   d427a:	3b01      	subs	r3, #1
   d427c:	60a3      	str	r3, [r4, #8]
   d427e:	b91b      	cbnz	r3, d4288 <_ZNSt14__shared_countILN9__gnu_cxx12_Lock_policyE0EED1Ev+0x28>
            _M_destroy();
   d4280:	6823      	ldr	r3, [r4, #0]
   d4282:	4620      	mov	r0, r4
   d4284:	68db      	ldr	r3, [r3, #12]
   d4286:	4798      	blx	r3

      ~__shared_count() noexcept
      {
	if (_M_pi != nullptr)
	  _M_pi->_M_release();
      }
   d4288:	4628      	mov	r0, r5
   d428a:	bd38      	pop	{r3, r4, r5, pc}

000d428c <_ZN8particle17BleCharacteristicC1INS_7BleUuidEEEPKcNS_25BleCharacteristicPropertyET_S6_PFvPKhjRKNS_13BlePeerDeviceEPvESC_>:
    BleCharacteristic(const String& desc, BleCharacteristicProperty properties, BleOnDataReceivedCallback callback = nullptr, void* context = nullptr)
            : BleCharacteristic(desc.c_str(), properties, callback, context) {
    }

    template<typename T>
    BleCharacteristic(const char* desc, BleCharacteristicProperty properties, T charUuid, T svcUuid, BleOnDataReceivedCallback callback = nullptr, void* context = nullptr) {
   d428c:	b5f0      	push	{r4, r5, r6, r7, lr}
   d428e:	460e      	mov	r6, r1
   d4290:	b08f      	sub	sp, #60	; 0x3c

    public:
      typedef _Tp   element_type;

      constexpr __shared_ptr() noexcept
      : _M_ptr(0), _M_refcount()
   d4292:	2100      	movs	r1, #0
   d4294:	4604      	mov	r4, r0
   d4296:	6001      	str	r1, [r0, #0]

  template<_Lock_policy _Lp>
    class __shared_count
    {
    public:
      constexpr __shared_count() noexcept : _M_pi(0)
   d4298:	6041      	str	r1, [r0, #4]
        BleUuid cUuid(charUuid);
        BleUuid sUuid(svcUuid);
   d429a:	ad09      	add	r5, sp, #36	; 0x24
            : BleCharacteristic(desc.c_str(), properties, callback, context) {
    }

    template<typename T>
    BleCharacteristic(const char* desc, BleCharacteristicProperty properties, T charUuid, T svcUuid, BleOnDataReceivedCallback callback = nullptr, void* context = nullptr) {
        BleUuid cUuid(charUuid);
   d429c:	4619      	mov	r1, r3
   d429e:	a804      	add	r0, sp, #16
    BleCharacteristic(const String& desc, BleCharacteristicProperty properties, BleOnDataReceivedCallback callback = nullptr, void* context = nullptr)
            : BleCharacteristic(desc.c_str(), properties, callback, context) {
    }

    template<typename T>
    BleCharacteristic(const char* desc, BleCharacteristicProperty properties, T charUuid, T svcUuid, BleOnDataReceivedCallback callback = nullptr, void* context = nullptr) {
   d42a0:	4617      	mov	r7, r2
        BleUuid cUuid(charUuid);
   d42a2:	f001 facb 	bl	d583c <_ZN8particle7BleUuidC1ERKS0_>
        BleUuid sUuid(svcUuid);
   d42a6:	9914      	ldr	r1, [sp, #80]	; 0x50
   d42a8:	4628      	mov	r0, r5
   d42aa:	f001 fac7 	bl	d583c <_ZN8particle7BleUuidC1ERKS0_>
        construct(desc, properties, cUuid, sUuid, callback, context);
   d42ae:	9b16      	ldr	r3, [sp, #88]	; 0x58
   d42b0:	9302      	str	r3, [sp, #8]
   d42b2:	9b15      	ldr	r3, [sp, #84]	; 0x54
   d42b4:	9301      	str	r3, [sp, #4]
   d42b6:	4620      	mov	r0, r4
   d42b8:	9500      	str	r5, [sp, #0]
   d42ba:	ab04      	add	r3, sp, #16
   d42bc:	463a      	mov	r2, r7
   d42be:	4631      	mov	r1, r6
   d42c0:	f002 f890 	bl	d63e4 <_ZN8particle17BleCharacteristic9constructEPKcNS_25BleCharacteristicPropertyERNS_7BleUuidES5_PFvPKhjRKNS_13BlePeerDeviceEPvESB_>
    }
   d42c4:	4620      	mov	r0, r4
   d42c6:	b00f      	add	sp, #60	; 0x3c
   d42c8:	bdf0      	pop	{r4, r5, r6, r7, pc}

000d42ca <_ZN8particle17BleCharacteristic8setValueIhEEiT_>:
    ssize_t setValue(const uint8_t* buf, size_t len);
    ssize_t setValue(const String& str);
    ssize_t setValue(const char* str);

    template<typename T>
    ssize_t setValue(T val) {
   d42ca:	b500      	push	{lr}
   d42cc:	b0bf      	sub	sp, #252	; 0xfc
        uint8_t buf[BLE_MAX_ATTR_VALUE_PACKET_SIZE];
        size_t len = std::min(sizeof(T), (unsigned)BLE_MAX_ATTR_VALUE_PACKET_SIZE);
        for (size_t i = 0, j = len - 1; i < len; i++, j--) {
            buf[i] = reinterpret_cast<const uint8_t*>(&val)[j];
   d42ce:	ab3e      	add	r3, sp, #248	; 0xf8
        }
        return setValue(buf, len);
   d42d0:	2201      	movs	r2, #1
    template<typename T>
    ssize_t setValue(T val) {
        uint8_t buf[BLE_MAX_ATTR_VALUE_PACKET_SIZE];
        size_t len = std::min(sizeof(T), (unsigned)BLE_MAX_ATTR_VALUE_PACKET_SIZE);
        for (size_t i = 0, j = len - 1; i < len; i++, j--) {
            buf[i] = reinterpret_cast<const uint8_t*>(&val)[j];
   d42d2:	f803 1df4 	strb.w	r1, [r3, #-244]!
        }
        return setValue(buf, len);
   d42d6:	4619      	mov	r1, r3
   d42d8:	f001 fc6e 	bl	d5bb8 <_ZN8particle17BleCharacteristic8setValueEPKhj>
    }
   d42dc:	b03f      	add	sp, #252	; 0xfc
   d42de:	f85d fb04 	ldr.w	pc, [sp], #4

000d42e2 <_ZN8particle17BleCharacteristic8setValueIlEEiT_>:
    ssize_t setValue(const uint8_t* buf, size_t len);
    ssize_t setValue(const String& str);
    ssize_t setValue(const char* str);

    template<typename T>
    ssize_t setValue(T val) {
   d42e2:	b500      	push	{lr}
   d42e4:	b0c1      	sub	sp, #260	; 0x104
        uint8_t buf[BLE_MAX_ATTR_VALUE_PACKET_SIZE];
        size_t len = std::min(sizeof(T), (unsigned)BLE_MAX_ATTR_VALUE_PACKET_SIZE);
        for (size_t i = 0, j = len - 1; i < len; i++, j--) {
            buf[i] = reinterpret_cast<const uint8_t*>(&val)[j];
   d42e6:	0e0b      	lsrs	r3, r1, #24
   d42e8:	f88d 300c 	strb.w	r3, [sp, #12]
   d42ec:	f3c1 4307 	ubfx	r3, r1, #16, #8
    ssize_t setValue(const uint8_t* buf, size_t len);
    ssize_t setValue(const String& str);
    ssize_t setValue(const char* str);

    template<typename T>
    ssize_t setValue(T val) {
   d42f0:	9101      	str	r1, [sp, #4]
        uint8_t buf[BLE_MAX_ATTR_VALUE_PACKET_SIZE];
        size_t len = std::min(sizeof(T), (unsigned)BLE_MAX_ATTR_VALUE_PACKET_SIZE);
        for (size_t i = 0, j = len - 1; i < len; i++, j--) {
            buf[i] = reinterpret_cast<const uint8_t*>(&val)[j];
   d42f2:	f88d 300d 	strb.w	r3, [sp, #13]
   d42f6:	f88d 100f 	strb.w	r1, [sp, #15]
   d42fa:	f3c1 2307 	ubfx	r3, r1, #8, #8
        }
        return setValue(buf, len);
   d42fe:	2204      	movs	r2, #4
   d4300:	a903      	add	r1, sp, #12
    template<typename T>
    ssize_t setValue(T val) {
        uint8_t buf[BLE_MAX_ATTR_VALUE_PACKET_SIZE];
        size_t len = std::min(sizeof(T), (unsigned)BLE_MAX_ATTR_VALUE_PACKET_SIZE);
        for (size_t i = 0, j = len - 1; i < len; i++, j--) {
            buf[i] = reinterpret_cast<const uint8_t*>(&val)[j];
   d4302:	f88d 300e 	strb.w	r3, [sp, #14]
        }
        return setValue(buf, len);
   d4306:	f001 fc57 	bl	d5bb8 <_ZN8particle17BleCharacteristic8setValueEPKhj>
    }
   d430a:	b041      	add	sp, #260	; 0x104
   d430c:	f85d fb04 	ldr.w	pc, [sp], #4

000d4310 <_ZN10JsonWriter14insertKeyValueIiEEvPKcT_>:
	 *
	 * Uses templates so you can pass any type object that's supported by insertValue() overloads,
	 * for example: bool, int, float, double, const char *.
	 */
	template<class T>
	void insertKeyValue(const char *key, T value) {
   d4310:	b570      	push	{r4, r5, r6, lr}
   d4312:	4604      	mov	r4, r0
   d4314:	460e      	mov	r6, r1
   d4316:	4615      	mov	r5, r2
		insertCheckSeparator();
   d4318:	f000 feca 	bl	d50b0 <_ZN10JsonWriter20insertCheckSeparatorEv>
	 * @brief Inserts a quoted string value. This escapes special characters and encodes utf-8.
	 *
	 * You would normally use insertKeyValue() or insertArrayValue() instead of calling this directly
	 * as those functions take care of inserting the separtators between items.
	 */
	void insertValue(const char *value) { insertString(value, true); }
   d431c:	2201      	movs	r2, #1
   d431e:	4631      	mov	r1, r6
   d4320:	4620      	mov	r0, r4
   d4322:	f000 fe39 	bl	d4f98 <_ZN10JsonWriter12insertStringEPKcb>
	 */
	template<class T>
	void insertKeyValue(const char *key, T value) {
		insertCheckSeparator();
		insertValue(key);
		insertChar(':');
   d4326:	4620      	mov	r0, r4
   d4328:	213a      	movs	r1, #58	; 0x3a
   d432a:	f000 fdd7 	bl	d4edc <_ZN10JsonWriter10insertCharEc>
	 * @brief Inserts an integer value.
	 *
	 * You would normally use insertKeyValue() or insertArrayValue() instead of calling this directly
	 * as those functions take care of inserting the separators between items.
	 */
	void insertValue(int value) { insertsprintf("%d", value); }
   d432e:	462a      	mov	r2, r5
   d4330:	4620      	mov	r0, r4
   d4332:	4902      	ldr	r1, [pc, #8]	; (d433c <_ZN10JsonWriter14insertKeyValueIiEEvPKcT_+0x2c>)
	void insertKeyValue(const char *key, T value) {
		insertCheckSeparator();
		insertValue(key);
		insertChar(':');
		insertValue(value);
	}
   d4334:	e8bd 4070 	ldmia.w	sp!, {r4, r5, r6, lr}
	 * @brief Inserts an integer value.
	 *
	 * You would normally use insertKeyValue() or insertArrayValue() instead of calling this directly
	 * as those functions take care of inserting the separators between items.
	 */
	void insertValue(int value) { insertsprintf("%d", value); }
   d4338:	f000 be20 	b.w	d4f7c <_ZN10JsonWriter13insertsprintfEPKcz>
   d433c:	000d8d5b 	.word	0x000d8d5b

000d4340 <_Z18createEventPayloadiid>:

  createEventPayload(temp, humidity, currentLightLevel);
}

void createEventPayload(int temp, int humidity, double light)
{
   d4340:	b530      	push	{r4, r5, lr}
   d4342:	ed2d 8b02 	vpush	{d8}
   d4346:	eeb0 8a40 	vmov.f32	s16, s0
   d434a:	eef0 8a60 	vmov.f32	s17, s1
   d434e:	b0d3      	sub	sp, #332	; 0x14c
   d4350:	4605      	mov	r5, r0
   d4352:	460c      	mov	r4, r1
 * @param BUFFER_SIZE The size of the buffer to reserve.
 */
template <size_t BUFFER_SIZE>
class JsonWriterStatic : public JsonWriter {
public:
	explicit JsonWriterStatic() : JsonWriter(staticBuffer, BUFFER_SIZE) {};
   d4354:	f44f 7280 	mov.w	r2, #256	; 0x100
   d4358:	a912      	add	r1, sp, #72	; 0x48
   d435a:	a806      	add	r0, sp, #24
   d435c:	f000 fdac 	bl	d4eb8 <_ZN10JsonWriterC1EPcj>
   d4360:	4b1e      	ldr	r3, [pc, #120]	; (d43dc <_Z18createEventPayloadiid+0x9c>)
   d4362:	9306      	str	r3, [sp, #24]
	void init();

	/**
	 * @brief Start a new JSON object. Make sure you finish it with finishObjectOrArray()
	 */
	bool startObject() { return startObjectOrArray('{', '}'); };
   d4364:	227d      	movs	r2, #125	; 0x7d
   d4366:	217b      	movs	r1, #123	; 0x7b
   d4368:	a806      	add	r0, sp, #24
   d436a:	f000 fdc5 	bl	d4ef8 <_ZN10JsonWriter18startObjectOrArrayEcc>
  JsonWriterStatic<256> jw;
  {
    JsonWriterAutoObject obj(&jw);

    jw.insertKeyValue("temp", temp);
   d436e:	462a      	mov	r2, r5
   d4370:	a806      	add	r0, sp, #24
   d4372:	491b      	ldr	r1, [pc, #108]	; (d43e0 <_Z18createEventPayloadiid+0xa0>)
   d4374:	f7ff ffcc 	bl	d4310 <_ZN10JsonWriter14insertKeyValueIiEEvPKcT_>
    jw.insertKeyValue("humidity", humidity);
   d4378:	4622      	mov	r2, r4
   d437a:	491a      	ldr	r1, [pc, #104]	; (d43e4 <_Z18createEventPayloadiid+0xa4>)
   d437c:	a806      	add	r0, sp, #24
   d437e:	f7ff ffc7 	bl	d4310 <_ZN10JsonWriter14insertKeyValueIiEEvPKcT_>
	 * Uses templates so you can pass any type object that's supported by insertValue() overloads,
	 * for example: bool, int, float, double, const char *.
	 */
	template<class T>
	void insertKeyValue(const char *key, T value) {
		insertCheckSeparator();
   d4382:	a806      	add	r0, sp, #24
   d4384:	f000 fe94 	bl	d50b0 <_ZN10JsonWriter20insertCheckSeparatorEv>
	 * @brief Inserts a quoted string value. This escapes special characters and encodes utf-8.
	 *
	 * You would normally use insertKeyValue() or insertArrayValue() instead of calling this directly
	 * as those functions take care of inserting the separtators between items.
	 */
	void insertValue(const char *value) { insertString(value, true); }
   d4388:	2201      	movs	r2, #1
   d438a:	a806      	add	r0, sp, #24
   d438c:	4916      	ldr	r1, [pc, #88]	; (d43e8 <_Z18createEventPayloadiid+0xa8>)
   d438e:	f000 fe03 	bl	d4f98 <_ZN10JsonWriter12insertStringEPKcb>
	 */
	template<class T>
	void insertKeyValue(const char *key, T value) {
		insertCheckSeparator();
		insertValue(key);
		insertChar(':');
   d4392:	213a      	movs	r1, #58	; 0x3a
   d4394:	a806      	add	r0, sp, #24
   d4396:	f000 fda1 	bl	d4edc <_ZN10JsonWriter10insertCharEc>
		insertValue(value);
   d439a:	eeb0 0a48 	vmov.f32	s0, s16
   d439e:	eef0 0a68 	vmov.f32	s1, s17
   d43a2:	a806      	add	r0, sp, #24
   d43a4:	f000 fe90 	bl	d50c8 <_ZN10JsonWriter11insertValueEd>

	/**
	 * @brief End the object
	 */
	~JsonWriterAutoObject() {
		jw->finishObjectOrArray();
   d43a8:	a806      	add	r0, sp, #24
   d43aa:	f000 fdb6 	bl	d4f1a <_ZN10JsonWriter19finishObjectOrArrayEv>
   d43ae:	9b07      	ldr	r3, [sp, #28]
   d43b0:	9303      	str	r3, [sp, #12]
   d43b2:	4b0e      	ldr	r3, [pc, #56]	; (d43ec <_Z18createEventPayloadiid+0xac>)
        return publish(eventName, eventData, DEFAULT_CLOUD_EVENT_TTL, flags1, flags2);
    }

    inline particle::Future<bool> publish(const char *eventName, const char *eventData, int ttl, PublishFlags flags1, PublishFlags flags2 = PublishFlags())
    {
        return publish_event(eventName, eventData, ttl, flags1 | flags2);
   d43b4:	9a03      	ldr	r2, [sp, #12]
   d43b6:	781b      	ldrb	r3, [r3, #0]
   d43b8:	490d      	ldr	r1, [pc, #52]	; (d43f0 <_Z18createEventPayloadiid+0xb0>)
   d43ba:	f88d 3000 	strb.w	r3, [sp]
   d43be:	a804      	add	r0, sp, #16
   d43c0:	233c      	movs	r3, #60	; 0x3c
   d43c2:	f002 fb6d 	bl	d6aa0 <_ZN10CloudClass13publish_eventEPKcS1_iN8particle5FlagsI15PublishFlagTypehEE>
	: _M_ptr(__p), _M_refcount(__r._M_refcount) // never throws
	{ }

      __shared_ptr(const __shared_ptr&) noexcept = default;
      __shared_ptr& operator=(const __shared_ptr&) noexcept = default;
      ~__shared_ptr() = default;
   d43c6:	a805      	add	r0, sp, #20
   d43c8:	f7ff ff4a 	bl	d4260 <_ZNSt14__shared_countILN9__gnu_cxx12_Lock_policyE0EED1Ev>
  createEventPayload(temp, humidity, currentLightLevel);
}

void createEventPayload(int temp, int humidity, double light)
{
  JsonWriterStatic<256> jw;
   d43cc:	a806      	add	r0, sp, #24
   d43ce:	f7ff fe97 	bl	d4100 <_ZN16JsonWriterStaticILj256EED1Ev>
    jw.insertKeyValue("humidity", humidity);
    jw.insertKeyValue("light", light);
  }

  Particle.publish("env-vals", jw.getBuffer(), PRIVATE);
   d43d2:	b053      	add	sp, #332	; 0x14c
   d43d4:	ecbd 8b02 	vpop	{d8}
   d43d8:	bd30      	pop	{r4, r5, pc}
   d43da:	bf00      	nop
   d43dc:	000d8cfc 	.word	0x000d8cfc
   d43e0:	000d8d04 	.word	0x000d8d04
   d43e4:	000d8d09 	.word	0x000d8d09
   d43e8:	000d8d1c 	.word	0x000d8d1c
   d43ec:	2003e47c 	.word	0x2003e47c
   d43f0:	000d8d22 	.word	0x000d8d22
   d43f4:	00000000 	.word	0x00000000

000d43f8 <loop>:

  configureBLE();
}

void loop()
{
   d43f8:	e92d 41f0 	stmdb	sp!, {r4, r5, r6, r7, r8, lr}
  unsigned long currentMillis = millis();

  if (currentMillis - lastUpdate >= UPDATE_INTERVAL)
   d43fc:	4c66      	ldr	r4, [pc, #408]	; (d4598 <loop+0x1a0>)

  configureBLE();
}

void loop()
{
   d43fe:	b08a      	sub	sp, #40	; 0x28
#endif

#include "timer_hal.h"
#include "delay_hal.h"

inline system_tick_t millis(void) { return HAL_Timer_Get_Milli_Seconds(); }
   d4400:	f000 ff2a 	bl	d5258 <HAL_Timer_Get_Milli_Seconds>
  unsigned long currentMillis = millis();

  if (currentMillis - lastUpdate >= UPDATE_INTERVAL)
   d4404:	6823      	ldr	r3, [r4, #0]
   d4406:	1ac0      	subs	r0, r0, r3
   d4408:	f5b0 6ffa 	cmp.w	r0, #2000	; 0x7d0
   d440c:	f0c0 80b4 	bcc.w	d4578 <loop+0x180>
   d4410:	f000 ff22 	bl	d5258 <HAL_Timer_Get_Milli_Seconds>
  {
    lastUpdate = millis();
   d4414:	6020      	str	r0, [r4, #0]

    temp = (int)dht.getTempFarenheit();
   d4416:	4861      	ldr	r0, [pc, #388]	; (d459c <loop+0x1a4>)
   d4418:	4c61      	ldr	r4, [pc, #388]	; (d45a0 <loop+0x1a8>)
    humidity = (int)dht.getHumidity();
   d441a:	4d62      	ldr	r5, [pc, #392]	; (d45a4 <loop+0x1ac>)

    Serial.printlnf("Temp: %f", temp);
    Serial.printlnf("Humidity: %f", humidity);

    double lightAnalogVal = analogRead(A0);
    currentLightLevel = map(lightAnalogVal, 0.0, 4095.0, 0.0, 100.0);
   d441c:	4e62      	ldr	r6, [pc, #392]	; (d45a8 <loop+0x1b0>)

  if (currentMillis - lastUpdate >= UPDATE_INTERVAL)
  {
    lastUpdate = millis();

    temp = (int)dht.getTempFarenheit();
   d441e:	f000 fceb 	bl	d4df8 <_ZN3DHT16getTempFarenheitEv>
   d4422:	eebd 0ac0 	vcvt.s32.f32	s0, s0
    humidity = (int)dht.getHumidity();
   d4426:	485d      	ldr	r0, [pc, #372]	; (d459c <loop+0x1a4>)

  if (currentMillis - lastUpdate >= UPDATE_INTERVAL)
  {
    lastUpdate = millis();

    temp = (int)dht.getTempFarenheit();
   d4428:	ed84 0a00 	vstr	s0, [r4]
    humidity = (int)dht.getHumidity();
   d442c:	f000 fd06 	bl	d4e3c <_ZN3DHT11getHumidityEv>
   d4430:	eebd 0ac0 	vcvt.s32.f32	s0, s0
   d4434:	ed85 0a00 	vstr	s0, [r5]

    Serial.printlnf("Temp: %f", temp);
   d4438:	f003 fa24 	bl	d7884 <_Z16_fetch_usbserialv>
    }

    template <typename... Args>
    inline size_t printlnf(const char* format, Args... args)
    {
        return this->printf_impl(true, format, args...);
   d443c:	6823      	ldr	r3, [r4, #0]
   d443e:	4a5b      	ldr	r2, [pc, #364]	; (d45ac <loop+0x1b4>)
   d4440:	2101      	movs	r1, #1
   d4442:	f002 ffa1 	bl	d7388 <_ZN5Print11printf_implEbPKcz>
    Serial.printlnf("Humidity: %f", humidity);
   d4446:	f003 fa1d 	bl	d7884 <_Z16_fetch_usbserialv>
   d444a:	682b      	ldr	r3, [r5, #0]
   d444c:	4a58      	ldr	r2, [pc, #352]	; (d45b0 <loop+0x1b8>)
   d444e:	2101      	movs	r1, #1
   d4450:	f002 ff9a 	bl	d7388 <_ZN5Print11printf_implEbPKcz>

    double lightAnalogVal = analogRead(A0);
   d4454:	2013      	movs	r0, #19
   d4456:	f003 fb6b 	bl	d7b30 <analogRead>
    currentLightLevel = map(lightAnalogVal, 0.0, 4095.0, 0.0, 100.0);
   d445a:	f003 fe67 	bl	d812c <__aeabi_i2d>
   d445e:	ed9f 3b48 	vldr	d3, [pc, #288]	; d4580 <loop+0x188>
   d4462:	ed9f 4b49 	vldr	d4, [pc, #292]	; d4588 <loop+0x190>
   d4466:	eeb0 1a43 	vmov.f32	s2, s6
   d446a:	eef0 1a63 	vmov.f32	s3, s7
   d446e:	ed9f 2b48 	vldr	d2, [pc, #288]	; d4590 <loop+0x198>
   d4472:	ec41 0b10 	vmov	d0, r0, r1
   d4476:	f001 f90d 	bl	d5694 <_Z3mapddddd>

    createEventPayload(temp, humidity, currentLightLevel);
   d447a:	6829      	ldr	r1, [r5, #0]
   d447c:	6820      	ldr	r0, [r4, #0]

    Serial.printlnf("Temp: %f", temp);
    Serial.printlnf("Humidity: %f", humidity);

    double lightAnalogVal = analogRead(A0);
    currentLightLevel = map(lightAnalogVal, 0.0, 4095.0, 0.0, 100.0);
   d447e:	ed86 0b00 	vstr	d0, [r6]

    createEventPayload(temp, humidity, currentLightLevel);
   d4482:	f7ff ff5d 	bl	d4340 <_Z18createEventPayloadiid>

    if (currentLightLevel > 50)
   d4486:	ed96 0b00 	vldr	d0, [r6]
   d448a:	2200      	movs	r2, #0
   d448c:	ec51 0b10 	vmov	r0, r1, d0
   d4490:	4b48      	ldr	r3, [pc, #288]	; (d45b4 <loop+0x1bc>)
   d4492:	ed8d 0b02 	vstr	d0, [sp, #8]
   d4496:	f004 f93f 	bl	d8718 <__aeabi_dcmpgt>
   d449a:	ed9d 0b02 	vldr	d0, [sp, #8]
   d449e:	b198      	cbz	r0, d44c8 <loop+0xd0>
    {
      Particle.publish("light-meter/level", String(currentLightLevel), PRIVATE);
   d44a0:	2106      	movs	r1, #6
   d44a2:	a806      	add	r0, sp, #24
   d44a4:	f003 f8c7 	bl	d7636 <_ZN6StringC1Edi>
   d44a8:	4b43      	ldr	r3, [pc, #268]	; (d45b8 <loop+0x1c0>)
   d44aa:	9a06      	ldr	r2, [sp, #24]
   d44ac:	781b      	ldrb	r3, [r3, #0]
   d44ae:	f88d 3000 	strb.w	r3, [sp]
   d44b2:	4942      	ldr	r1, [pc, #264]	; (d45bc <loop+0x1c4>)
   d44b4:	233c      	movs	r3, #60	; 0x3c
   d44b6:	a804      	add	r0, sp, #16
   d44b8:	f002 faf2 	bl	d6aa0 <_ZN10CloudClass13publish_eventEPKcS1_iN8particle5FlagsI15PublishFlagTypehEE>
   d44bc:	a805      	add	r0, sp, #20
   d44be:	f7ff fecf 	bl	d4260 <_ZNSt14__shared_countILN9__gnu_cxx12_Lock_policyE0EED1Ev>
   d44c2:	a806      	add	r0, sp, #24
   d44c4:	f003 f832 	bl	d752c <_ZN6StringD1Ev>
    }

    if (BLE.connected())
   d44c8:	f001 fbfc 	bl	d5cc4 <_ZN8particle14BleLocalDevice11getInstanceEv>
   d44cc:	f001 fc8a 	bl	d5de4 <_ZNK8particle14BleLocalDevice9connectedEv>
   d44d0:	2800      	cmp	r0, #0
   d44d2:	d051      	beq.n	d4578 <loop+0x180>
    {
      uint8_t uptime = (uint8_t)DiagnosticsHelper::getValue(DIAG_ID_SYSTEM_UPTIME);
   d44d4:	2006      	movs	r0, #6
   d44d6:	f000 f927 	bl	d4728 <_ZN17DiagnosticsHelper8getValueEt>
      uptimeCharacteristic.setValue(uptime);
   d44da:	fa5f f880 	uxtb.w	r8, r0
   d44de:	4641      	mov	r1, r8
   d44e0:	4837      	ldr	r0, [pc, #220]	; (d45c0 <loop+0x1c8>)
   d44e2:	f7ff fef2 	bl	d42ca <_ZN8particle17BleCharacteristic8setValueIhEEiT_>

      uint8_t signalStrength = (uint8_t)(DiagnosticsHelper::getValue(DIAG_ID_NETWORK_SIGNAL_STRENGTH) >> 8);
   d44e6:	2021      	movs	r0, #33	; 0x21
   d44e8:	f000 f91e 	bl	d4728 <_ZN17DiagnosticsHelper8getValueEt>
   d44ec:	f3c0 2707 	ubfx	r7, r0, #8, #8
      signalStrengthCharacteristic.setValue(signalStrength);
   d44f0:	4639      	mov	r1, r7
   d44f2:	4834      	ldr	r0, [pc, #208]	; (d45c4 <loop+0x1cc>)
   d44f4:	f7ff fee9 	bl	d42ca <_ZN8particle17BleCharacteristic8setValueIhEEiT_>

      int32_t usedRAM = DiagnosticsHelper::getValue(DIAG_ID_SYSTEM_USED_RAM);
   d44f8:	201a      	movs	r0, #26
   d44fa:	f000 f915 	bl	d4728 <_ZN17DiagnosticsHelper8getValueEt>
   d44fe:	4604      	mov	r4, r0
      int32_t totalRAM = DiagnosticsHelper::getValue(DIAG_ID_SYSTEM_TOTAL_RAM);
   d4500:	2019      	movs	r0, #25
   d4502:	f000 f911 	bl	d4728 <_ZN17DiagnosticsHelper8getValueEt>
      int32_t freeMem = (totalRAM - usedRAM);
   d4506:	1b06      	subs	r6, r0, r4
      freeMemoryCharacteristic.setValue(freeMem);
   d4508:	4631      	mov	r1, r6

      uint8_t signalStrength = (uint8_t)(DiagnosticsHelper::getValue(DIAG_ID_NETWORK_SIGNAL_STRENGTH) >> 8);
      signalStrengthCharacteristic.setValue(signalStrength);

      int32_t usedRAM = DiagnosticsHelper::getValue(DIAG_ID_SYSTEM_USED_RAM);
      int32_t totalRAM = DiagnosticsHelper::getValue(DIAG_ID_SYSTEM_TOTAL_RAM);
   d450a:	4605      	mov	r5, r0
      int32_t freeMem = (totalRAM - usedRAM);
      freeMemoryCharacteristic.setValue(freeMem);
   d450c:	482e      	ldr	r0, [pc, #184]	; (d45c8 <loop+0x1d0>)
   d450e:	f7ff fee8 	bl	d42e2 <_ZN8particle17BleCharacteristic8setValueIlEEiT_>

      Serial.printlnf("Uptime: %d", uptime);
   d4512:	f003 f9b7 	bl	d7884 <_Z16_fetch_usbserialv>
   d4516:	4643      	mov	r3, r8
   d4518:	4a2c      	ldr	r2, [pc, #176]	; (d45cc <loop+0x1d4>)
   d451a:	2101      	movs	r1, #1
   d451c:	f002 ff34 	bl	d7388 <_ZN5Print11printf_implEbPKcz>
      Serial.print("Strength: ");
   d4520:	f003 f9b0 	bl	d7884 <_Z16_fetch_usbserialv>
   d4524:	492a      	ldr	r1, [pc, #168]	; (d45d0 <loop+0x1d8>)
   d4526:	f002 feb7 	bl	d7298 <_ZN5Print5printEPKc>
      Serial.println(signalStrength);
   d452a:	f003 f9ab 	bl	d7884 <_Z16_fetch_usbserialv>
   d452e:	220a      	movs	r2, #10
   d4530:	4639      	mov	r1, r7
   d4532:	f002 fef3 	bl	d731c <_ZN5Print7printlnEhi>
      Serial.print("free memory: ");
   d4536:	f003 f9a5 	bl	d7884 <_Z16_fetch_usbserialv>
   d453a:	4926      	ldr	r1, [pc, #152]	; (d45d4 <loop+0x1dc>)
   d453c:	f002 feac 	bl	d7298 <_ZN5Print5printEPKc>
      Serial.println(freeMem);
   d4540:	f003 f9a0 	bl	d7884 <_Z16_fetch_usbserialv>
   d4544:	220a      	movs	r2, #10
   d4546:	4631      	mov	r1, r6
   d4548:	f002 ff14 	bl	d7374 <_ZN5Print7printlnEli>

      Serial.print("total ram: ");
   d454c:	f003 f99a 	bl	d7884 <_Z16_fetch_usbserialv>
   d4550:	4921      	ldr	r1, [pc, #132]	; (d45d8 <loop+0x1e0>)
   d4552:	f002 fea1 	bl	d7298 <_ZN5Print5printEPKc>
      Serial.println(totalRAM);
   d4556:	f003 f995 	bl	d7884 <_Z16_fetch_usbserialv>
   d455a:	220a      	movs	r2, #10
   d455c:	4629      	mov	r1, r5
   d455e:	f002 ff09 	bl	d7374 <_ZN5Print7printlnEli>

      Serial.print("used ram: ");
   d4562:	f003 f98f 	bl	d7884 <_Z16_fetch_usbserialv>
   d4566:	491d      	ldr	r1, [pc, #116]	; (d45dc <loop+0x1e4>)
   d4568:	f002 fe96 	bl	d7298 <_ZN5Print5printEPKc>
      Serial.println(usedRAM);
   d456c:	f003 f98a 	bl	d7884 <_Z16_fetch_usbserialv>
   d4570:	220a      	movs	r2, #10
   d4572:	4621      	mov	r1, r4
   d4574:	f002 fefe 	bl	d7374 <_ZN5Print7printlnEli>
    }
  }
}
   d4578:	b00a      	add	sp, #40	; 0x28
   d457a:	e8bd 81f0 	ldmia.w	sp!, {r4, r5, r6, r7, r8, pc}
   d457e:	bf00      	nop
	...
   d458c:	40590000 	.word	0x40590000
   d4590:	00000000 	.word	0x00000000
   d4594:	40affe00 	.word	0x40affe00
   d4598:	2003e4a8 	.word	0x2003e4a8
   d459c:	2003e488 	.word	0x2003e488
   d45a0:	2003e45c 	.word	0x2003e45c
   d45a4:	2003e4a4 	.word	0x2003e4a4
   d45a8:	2003e4b0 	.word	0x2003e4b0
   d45ac:	000d8d2b 	.word	0x000d8d2b
   d45b0:	000d8d34 	.word	0x000d8d34
   d45b4:	40490000 	.word	0x40490000
   d45b8:	2003e47c 	.word	0x2003e47c
   d45bc:	000d8d41 	.word	0x000d8d41
   d45c0:	2003e480 	.word	0x2003e480
   d45c4:	2003e460 	.word	0x2003e460
   d45c8:	2003e49c 	.word	0x2003e49c
   d45cc:	000d8d53 	.word	0x000d8d53
   d45d0:	000d8d5e 	.word	0x000d8d5e
   d45d4:	000d8d69 	.word	0x000d8d69
   d45d8:	000d8d77 	.word	0x000d8d77
   d45dc:	000d8d83 	.word	0x000d8d83

000d45e0 <_GLOBAL__sub_I_dht>:
    jw.insertKeyValue("humidity", humidity);
    jw.insertKeyValue("light", light);
  }

  Particle.publish("env-vals", jw.getBuffer(), PRIVATE);
   d45e0:	e92d 43f0 	stmdb	sp!, {r4, r5, r6, r7, r8, r9, lr}
} // namespace particle

// particle::Flag<TagT, ValueT>
template<typename TagT, typename ValueT>
inline particle::Flag<TagT, ValueT>::Flag(ValueT val) :
        val_(val) {
   d45e4:	4b37      	ldr	r3, [pc, #220]	; (d46c4 <_GLOBAL__sub_I_dht+0xe4>)
#include "Grove_ChainableLED.h"
#include "JsonParserGeneratorRK.h"
#include "DiagnosticsHelperRK.h"

DHT dht(D2);
ChainableLED leds(A4, A5, 1);
   d45e6:	4d38      	ldr	r5, [pc, #224]	; (d46c8 <_GLOBAL__sub_I_dht+0xe8>)
   d45e8:	4e38      	ldr	r6, [pc, #224]	; (d46cc <_GLOBAL__sub_I_dht+0xec>)

SYSTEM_THREAD(ENABLED);

// Private battery and power service UUID
const BleUuid serviceUuid("5c1b9a0d-b5be-4a40-8f7a-66b36d0a5176");
   d45ea:	4f39      	ldr	r7, [pc, #228]	; (d46d0 <_GLOBAL__sub_I_dht+0xf0>)

BleCharacteristic uptimeCharacteristic("uptime", BleCharacteristicProperty::NOTIFY, BleUuid("fdcf4a3f-3fed-4ed2-84e6-04bbb9ae04d4"), serviceUuid);
   d45ec:	f8df 910c 	ldr.w	r9, [pc, #268]	; d46fc <_GLOBAL__sub_I_dht+0x11c>
   d45f0:	f8df 810c 	ldr.w	r8, [pc, #268]	; d4700 <_GLOBAL__sub_I_dht+0x120>
    jw.insertKeyValue("humidity", humidity);
    jw.insertKeyValue("light", light);
  }

  Particle.publish("env-vals", jw.getBuffer(), PRIVATE);
   d45f4:	b08f      	sub	sp, #60	; 0x3c
   d45f6:	2401      	movs	r4, #1
   d45f8:	701c      	strb	r4, [r3, #0]

inline void pinSetFast(pin_t _pin) __attribute__((always_inline));
inline void pinResetFast(pin_t _pin) __attribute__((always_inline));
inline int32_t pinReadFast(pin_t _pin) __attribute__((always_inline));

static Hal_Pin_Info* PIN_MAP = HAL_Pin_Map();
   d45fa:	f000 fe35 	bl	d5268 <HAL_Pin_Map>
#include "Grove_Temperature_And_Humidity_Sensor.h"
#include "Grove_ChainableLED.h"
#include "JsonParserGeneratorRK.h"
#include "DiagnosticsHelperRK.h"

DHT dht(D2);
   d45fe:	2206      	movs	r2, #6
   d4600:	2102      	movs	r1, #2
   d4602:	4834      	ldr	r0, [pc, #208]	; (d46d4 <_GLOBAL__sub_I_dht+0xf4>)
   d4604:	f000 fb08 	bl	d4c18 <_ZN3DHTC1Ehh>
ChainableLED leds(A4, A5, 1);
   d4608:	4623      	mov	r3, r4
   d460a:	220e      	movs	r2, #14
   d460c:	210f      	movs	r1, #15
   d460e:	4628      	mov	r0, r5
   d4610:	f000 f8aa 	bl	d4768 <_ZN12ChainableLEDC1Ehhh>
   d4614:	4632      	mov	r2, r6
   d4616:	4930      	ldr	r1, [pc, #192]	; (d46d8 <_GLOBAL__sub_I_dht+0xf8>)
   d4618:	4628      	mov	r0, r5
   d461a:	f003 fae3 	bl	d7be4 <__aeabi_atexit>

SYSTEM_THREAD(ENABLED);
   d461e:	4620      	mov	r0, r4
   d4620:	2100      	movs	r1, #0
   d4622:	f000 ff59 	bl	d54d8 <system_thread_set_state>

// Private battery and power service UUID
const BleUuid serviceUuid("5c1b9a0d-b5be-4a40-8f7a-66b36d0a5176");
   d4626:	492d      	ldr	r1, [pc, #180]	; (d46dc <_GLOBAL__sub_I_dht+0xfc>)
   d4628:	4638      	mov	r0, r7

BleCharacteristic uptimeCharacteristic("uptime", BleCharacteristicProperty::NOTIFY, BleUuid("fdcf4a3f-3fed-4ed2-84e6-04bbb9ae04d4"), serviceUuid);
   d462a:	ac09      	add	r4, sp, #36	; 0x24
ChainableLED leds(A4, A5, 1);

SYSTEM_THREAD(ENABLED);

// Private battery and power service UUID
const BleUuid serviceUuid("5c1b9a0d-b5be-4a40-8f7a-66b36d0a5176");
   d462c:	f001 f9f1 	bl	d5a12 <_ZN8particle7BleUuidC1EPKc>

BleCharacteristic uptimeCharacteristic("uptime", BleCharacteristicProperty::NOTIFY, BleUuid("fdcf4a3f-3fed-4ed2-84e6-04bbb9ae04d4"), serviceUuid);
   d4630:	492b      	ldr	r1, [pc, #172]	; (d46e0 <_GLOBAL__sub_I_dht+0x100>)
   d4632:	a804      	add	r0, sp, #16
   d4634:	2500      	movs	r5, #0
   d4636:	f001 f9ec 	bl	d5a12 <_ZN8particle7BleUuidC1EPKc>
   d463a:	4639      	mov	r1, r7
   d463c:	4620      	mov	r0, r4
   d463e:	f001 f8fd 	bl	d583c <_ZN8particle7BleUuidC1ERKS0_>
   d4642:	ab04      	add	r3, sp, #16
   d4644:	9502      	str	r5, [sp, #8]
   d4646:	e88d 0030 	stmia.w	sp, {r4, r5}
   d464a:	2210      	movs	r2, #16
   d464c:	4925      	ldr	r1, [pc, #148]	; (d46e4 <_GLOBAL__sub_I_dht+0x104>)
   d464e:	4648      	mov	r0, r9
   d4650:	f7ff fe1c 	bl	d428c <_ZN8particle17BleCharacteristicC1INS_7BleUuidEEEPKcNS_25BleCharacteristicPropertyET_S6_PFvPKhjRKNS_13BlePeerDeviceEPvESC_>
   d4654:	4632      	mov	r2, r6
   d4656:	4641      	mov	r1, r8
   d4658:	4648      	mov	r0, r9
   d465a:	f003 fac3 	bl	d7be4 <__aeabi_atexit>
BleCharacteristic signalStrengthCharacteristic("strength", BleCharacteristicProperty::NOTIFY, BleUuid("cc97c20c-5822-4800-ade5-1f661d2133ee"), serviceUuid);
   d465e:	f8df 90a4 	ldr.w	r9, [pc, #164]	; d4704 <_GLOBAL__sub_I_dht+0x124>
   d4662:	4921      	ldr	r1, [pc, #132]	; (d46e8 <_GLOBAL__sub_I_dht+0x108>)
   d4664:	a804      	add	r0, sp, #16
   d4666:	f001 f9d4 	bl	d5a12 <_ZN8particle7BleUuidC1EPKc>
   d466a:	4639      	mov	r1, r7
   d466c:	4620      	mov	r0, r4
   d466e:	f001 f8e5 	bl	d583c <_ZN8particle7BleUuidC1ERKS0_>
   d4672:	ab04      	add	r3, sp, #16
   d4674:	9502      	str	r5, [sp, #8]
   d4676:	e88d 0030 	stmia.w	sp, {r4, r5}
   d467a:	2210      	movs	r2, #16
   d467c:	491b      	ldr	r1, [pc, #108]	; (d46ec <_GLOBAL__sub_I_dht+0x10c>)
   d467e:	4648      	mov	r0, r9
   d4680:	f7ff fe04 	bl	d428c <_ZN8particle17BleCharacteristicC1INS_7BleUuidEEEPKcNS_25BleCharacteristicPropertyET_S6_PFvPKhjRKNS_13BlePeerDeviceEPvESC_>
   d4684:	4632      	mov	r2, r6
   d4686:	4641      	mov	r1, r8
   d4688:	4648      	mov	r0, r9
   d468a:	f003 faab 	bl	d7be4 <__aeabi_atexit>
BleCharacteristic freeMemoryCharacteristic("freeMemory", BleCharacteristicProperty::NOTIFY, BleUuid("d2b26bf3-9792-42fc-9e8a-41f6107df04c"), serviceUuid);
   d468e:	4918      	ldr	r1, [pc, #96]	; (d46f0 <_GLOBAL__sub_I_dht+0x110>)
   d4690:	a804      	add	r0, sp, #16
   d4692:	f001 f9be 	bl	d5a12 <_ZN8particle7BleUuidC1EPKc>
   d4696:	4639      	mov	r1, r7
   d4698:	4f16      	ldr	r7, [pc, #88]	; (d46f4 <_GLOBAL__sub_I_dht+0x114>)
   d469a:	4620      	mov	r0, r4
   d469c:	f001 f8ce 	bl	d583c <_ZN8particle7BleUuidC1ERKS0_>
   d46a0:	ab04      	add	r3, sp, #16
   d46a2:	9502      	str	r5, [sp, #8]
   d46a4:	e88d 0030 	stmia.w	sp, {r4, r5}
   d46a8:	2210      	movs	r2, #16
   d46aa:	4913      	ldr	r1, [pc, #76]	; (d46f8 <_GLOBAL__sub_I_dht+0x118>)
   d46ac:	4638      	mov	r0, r7
   d46ae:	f7ff fded 	bl	d428c <_ZN8particle17BleCharacteristicC1INS_7BleUuidEEEPKcNS_25BleCharacteristicPropertyET_S6_PFvPKhjRKNS_13BlePeerDeviceEPvESC_>
   d46b2:	4632      	mov	r2, r6
   d46b4:	4641      	mov	r1, r8
   d46b6:	4638      	mov	r0, r7
   d46b8:	f003 fa94 	bl	d7be4 <__aeabi_atexit>
    jw.insertKeyValue("humidity", humidity);
    jw.insertKeyValue("light", light);
  }

  Particle.publish("env-vals", jw.getBuffer(), PRIVATE);
   d46bc:	b00f      	add	sp, #60	; 0x3c
   d46be:	e8bd 83f0 	ldmia.w	sp!, {r4, r5, r6, r7, r8, r9, pc}
   d46c2:	bf00      	nop
   d46c4:	2003e47c 	.word	0x2003e47c
   d46c8:	2003e454 	.word	0x2003e454
   d46cc:	2003e450 	.word	0x2003e450
   d46d0:	2003e468 	.word	0x2003e468
   d46d4:	2003e488 	.word	0x2003e488
   d46d8:	000d4783 	.word	0x000d4783
   d46dc:	000d8d8e 	.word	0x000d8d8e
   d46e0:	000d8db3 	.word	0x000d8db3
   d46e4:	000d8dd8 	.word	0x000d8dd8
   d46e8:	000d8ddf 	.word	0x000d8ddf
   d46ec:	000d8e04 	.word	0x000d8e04
   d46f0:	000d8e0d 	.word	0x000d8e0d
   d46f4:	2003e49c 	.word	0x2003e49c
   d46f8:	000d8e32 	.word	0x000d8e32
   d46fc:	2003e480 	.word	0x2003e480
   d4700:	000d5e31 	.word	0x000d5e31
   d4704:	2003e460 	.word	0x2003e460

000d4708 <_ZZN17DiagnosticsHelper8getValueEtENUt_8appenderEPvPKhj>:
	};
    Data data;
    data.offset = data.u.d.value = 0;

    struct {
        static bool appender(void* appender, const uint8_t* data, size_t size) {
   d4708:	b538      	push	{r3, r4, r5, lr}
   d470a:	4604      	mov	r4, r0
            Data *d = (Data *)appender;
            if ((d->offset + size) <= sizeof(Data::u)) {
   d470c:	68c0      	ldr	r0, [r0, #12]
   d470e:	1883      	adds	r3, r0, r2
   d4710:	2b0a      	cmp	r3, #10
	};
    Data data;
    data.offset = data.u.d.value = 0;

    struct {
        static bool appender(void* appender, const uint8_t* data, size_t size) {
   d4712:	4615      	mov	r5, r2
            Data *d = (Data *)appender;
            if ((d->offset + size) <= sizeof(Data::u)) {
   d4714:	d805      	bhi.n	d4722 <_ZZN17DiagnosticsHelper8getValueEtENUt_8appenderEPvPKhj+0x1a>
                memcpy(&d->u.b[d->offset], data, size);
   d4716:	4420      	add	r0, r4
   d4718:	f004 fa4d 	bl	d8bb6 <memcpy>
                d->offset += size;
   d471c:	68e3      	ldr	r3, [r4, #12]
   d471e:	441d      	add	r5, r3
   d4720:	60e5      	str	r5, [r4, #12]
            }
            return true;
        }
   d4722:	2001      	movs	r0, #1
   d4724:	bd38      	pop	{r3, r4, r5, pc}
	...

000d4728 <_ZN17DiagnosticsHelper8getValueEt>:

// Location: https://github.com/rickkas7/DiagnosticsHelperRK
// License: MIT

// [static]
int32_t DiagnosticsHelper::getValue(uint16_t id) {
   d4728:	b510      	push	{r4, lr}
   d472a:	b088      	sub	sp, #32
			uint8_t b[10];
		} u;
		size_t offset;
	};
    Data data;
    data.offset = data.u.d.value = 0;
   d472c:	2400      	movs	r4, #0
            }
            return true;
        }
    } Callback;

    system_format_diag_data(&id, 1, 1, Callback.appender, &data, nullptr);
   d472e:	ab04      	add	r3, sp, #16
   d4730:	2201      	movs	r2, #1

// Location: https://github.com/rickkas7/DiagnosticsHelperRK
// License: MIT

// [static]
int32_t DiagnosticsHelper::getValue(uint16_t id) {
   d4732:	f8ad 000e 	strh.w	r0, [sp, #14]
            }
            return true;
        }
    } Callback;

    system_format_diag_data(&id, 1, 1, Callback.appender, &data, nullptr);
   d4736:	9300      	str	r3, [sp, #0]
   d4738:	9401      	str	r4, [sp, #4]
   d473a:	4b09      	ldr	r3, [pc, #36]	; (d4760 <_ZN17DiagnosticsHelper8getValueEt+0x38>)
			uint8_t b[10];
		} u;
		size_t offset;
	};
    Data data;
    data.offset = data.u.d.value = 0;
   d473c:	f8ad 4016 	strh.w	r4, [sp, #22]
            }
            return true;
        }
    } Callback;

    system_format_diag_data(&id, 1, 1, Callback.appender, &data, nullptr);
   d4740:	4611      	mov	r1, r2
   d4742:	f10d 000e 	add.w	r0, sp, #14
			uint8_t b[10];
		} u;
		size_t offset;
	};
    Data data;
    data.offset = data.u.d.value = 0;
   d4746:	f8ad 4018 	strh.w	r4, [sp, #24]
   d474a:	9407      	str	r4, [sp, #28]
            }
            return true;
        }
    } Callback;

    system_format_diag_data(&id, 1, 1, Callback.appender, &data, nullptr);
   d474c:	f000 fedc 	bl	d5508 <system_format_diag_data>

    // Log.info("idSize=%u valueSize=%u id=%u value=%ld", data.u.d.idSize, data.u.d.valueSize, data.u.d.id, data.u.d.value);

    if (data.offset == sizeof(Data::u)) {
   d4750:	9b07      	ldr	r3, [sp, #28]
   d4752:	2b0a      	cmp	r3, #10
    	return data.u.d.value;
   d4754:	bf0c      	ite	eq
   d4756:	f8dd 0016 	ldreq.w	r0, [sp, #22]
    }
    else {
        return 0;
   d475a:	4620      	movne	r0, r4
    }
}
   d475c:	b008      	add	sp, #32
   d475e:	bd10      	pop	{r4, pc}
   d4760:	000d4709 	.word	0x000d4709

000d4764 <_GLOBAL__sub_I__ZN17DiagnosticsHelper8getValueEt>:
   d4764:	f000 bd80 	b.w	d5268 <HAL_Pin_Map>

000d4768 <_ZN12ChainableLEDC1Ehhh>:
// Forward declaration
float hue2rgb(float p, float q, float t);

// --------------------------------------------------------------------------------------

ChainableLED::ChainableLED(byte clk_pin, byte data_pin, byte number_of_leds) :
   d4768:	b510      	push	{r4, lr}
   d476a:	4604      	mov	r4, r0
    _clk_pin(clk_pin), _data_pin(data_pin), _num_leds(number_of_leds)
   d476c:	7001      	strb	r1, [r0, #0]
   d476e:	7042      	strb	r2, [r0, #1]
   d4770:	7083      	strb	r3, [r0, #2]
{
    _led_state = (byte*) calloc(_num_leds*3, sizeof(byte));
   d4772:	2101      	movs	r1, #1
   d4774:	eb03 0043 	add.w	r0, r3, r3, lsl #1
   d4778:	f004 f9f8 	bl	d8b6c <calloc>
   d477c:	6060      	str	r0, [r4, #4]
}
   d477e:	4620      	mov	r0, r4
   d4780:	bd10      	pop	{r4, pc}

000d4782 <_ZN12ChainableLEDD1Ev>:

ChainableLED::~ChainableLED()
   d4782:	b510      	push	{r4, lr}
   d4784:	4604      	mov	r4, r0
{
    free(_led_state);
   d4786:	6840      	ldr	r0, [r0, #4]
   d4788:	f000 ff5c 	bl	d5644 <free>
}
   d478c:	4620      	mov	r0, r4
   d478e:	bd10      	pop	{r4, pc}

000d4790 <_ZN12ChainableLED3clkEv>:
    for (byte i=0; i<_num_leds; i++)
        setColorRGB(i, 0, 0, 0);
}

void ChainableLED::clk(void)
{
   d4790:	b510      	push	{r4, lr}
    digitalWrite(_clk_pin, LOW);
   d4792:	2100      	movs	r1, #0
    for (byte i=0; i<_num_leds; i++)
        setColorRGB(i, 0, 0, 0);
}

void ChainableLED::clk(void)
{
   d4794:	4604      	mov	r4, r0
    digitalWrite(_clk_pin, LOW);
   d4796:	7800      	ldrb	r0, [r0, #0]
   d4798:	f003 f9b1 	bl	d7afe <digitalWrite>
inline unsigned long micros(void) { return HAL_Timer_Get_Micro_Seconds(); }
void delay(unsigned long ms);
inline void delayMicroseconds(unsigned int us) { HAL_Delay_Microseconds(us); }
   d479c:	2014      	movs	r0, #20
   d479e:	f000 fd53 	bl	d5248 <HAL_Delay_Microseconds>
    delayMicroseconds(_CLK_PULSE_DELAY);
    digitalWrite(_clk_pin, HIGH);
   d47a2:	7820      	ldrb	r0, [r4, #0]
   d47a4:	2101      	movs	r1, #1
   d47a6:	f003 f9aa 	bl	d7afe <digitalWrite>
   d47aa:	2014      	movs	r0, #20
    delayMicroseconds(_CLK_PULSE_DELAY);
}
   d47ac:	e8bd 4010 	ldmia.w	sp!, {r4, lr}
   d47b0:	f000 bd4a 	b.w	d5248 <HAL_Delay_Microseconds>

000d47b4 <_ZN12ChainableLED8sendByteEh>:

void ChainableLED::sendByte(byte b)
{
   d47b4:	b570      	push	{r4, r5, r6, lr}
   d47b6:	4606      	mov	r6, r0
   d47b8:	460d      	mov	r5, r1
   d47ba:	2408      	movs	r4, #8
    // Send one bit at a time, starting with the MSB
    for (byte i=0; i<8; i++)
    {
        // If MSB is 1, write one and clock it, else write 0 and clock
        if ((b & 0x80) != 0)
   d47bc:	f015 0f80 	tst.w	r5, #128	; 0x80
            digitalWrite(_data_pin, HIGH);
   d47c0:	bf14      	ite	ne
   d47c2:	2101      	movne	r1, #1
        else
            digitalWrite(_data_pin, LOW);
   d47c4:	2100      	moveq	r1, #0
   d47c6:	7870      	ldrb	r0, [r6, #1]
   d47c8:	f003 f999 	bl	d7afe <digitalWrite>
   d47cc:	3c01      	subs	r4, #1
        clk();
   d47ce:	4630      	mov	r0, r6
   d47d0:	f7ff ffde 	bl	d4790 <_ZN12ChainableLED3clkEv>

        // Advance to the next bit to send
        b <<= 1;
   d47d4:	006d      	lsls	r5, r5, #1
}

void ChainableLED::sendByte(byte b)
{
    // Send one bit at a time, starting with the MSB
    for (byte i=0; i<8; i++)
   d47d6:	f014 04ff 	ands.w	r4, r4, #255	; 0xff
        else
            digitalWrite(_data_pin, LOW);
        clk();

        // Advance to the next bit to send
        b <<= 1;
   d47da:	b2ed      	uxtb	r5, r5
}

void ChainableLED::sendByte(byte b)
{
    // Send one bit at a time, starting with the MSB
    for (byte i=0; i<8; i++)
   d47dc:	d1ee      	bne.n	d47bc <_ZN12ChainableLED8sendByteEh+0x8>
        clk();

        // Advance to the next bit to send
        b <<= 1;
    }
}
   d47de:	bd70      	pop	{r4, r5, r6, pc}

000d47e0 <_ZN12ChainableLED9sendColorEhhh>:

void ChainableLED::sendColor(byte red, byte green, byte blue)
{
    // Start by sending a byte with the format "1 1 /B7 /B6 /G7 /G6 /R7 /R6"
    byte prefix = 0b11000000;
    if ((blue & 0x80) == 0)     prefix|= 0b00100000;
   d47e0:	f013 0f80 	tst.w	r3, #128	; 0x80
        b <<= 1;
    }
}

void ChainableLED::sendColor(byte red, byte green, byte blue)
{
   d47e4:	b5f8      	push	{r3, r4, r5, r6, r7, lr}
   d47e6:	460d      	mov	r5, r1
   d47e8:	4616      	mov	r6, r2
    // Start by sending a byte with the format "1 1 /B7 /B6 /G7 /G6 /R7 /R6"
    byte prefix = 0b11000000;
    if ((blue & 0x80) == 0)     prefix|= 0b00100000;
   d47ea:	bf14      	ite	ne
   d47ec:	21c0      	movne	r1, #192	; 0xc0
   d47ee:	21e0      	moveq	r1, #224	; 0xe0
    if ((blue & 0x40) == 0)     prefix|= 0b00010000;
   d47f0:	065a      	lsls	r2, r3, #25
        b <<= 1;
    }
}

void ChainableLED::sendColor(byte red, byte green, byte blue)
{
   d47f2:	461f      	mov	r7, r3
    // Start by sending a byte with the format "1 1 /B7 /B6 /G7 /G6 /R7 /R6"
    byte prefix = 0b11000000;
    if ((blue & 0x80) == 0)     prefix|= 0b00100000;
    if ((blue & 0x40) == 0)     prefix|= 0b00010000;
   d47f4:	bf58      	it	pl
   d47f6:	f041 0110 	orrpl.w	r1, r1, #16
    if ((green & 0x80) == 0)    prefix|= 0b00001000;
   d47fa:	0633      	lsls	r3, r6, #24
        b <<= 1;
    }
}

void ChainableLED::sendColor(byte red, byte green, byte blue)
{
   d47fc:	4604      	mov	r4, r0
    // Start by sending a byte with the format "1 1 /B7 /B6 /G7 /G6 /R7 /R6"
    byte prefix = 0b11000000;
    if ((blue & 0x80) == 0)     prefix|= 0b00100000;
    if ((blue & 0x40) == 0)     prefix|= 0b00010000;
    if ((green & 0x80) == 0)    prefix|= 0b00001000;
   d47fe:	bf58      	it	pl
   d4800:	f041 0108 	orrpl.w	r1, r1, #8
    if ((green & 0x40) == 0)    prefix|= 0b00000100;
   d4804:	0670      	lsls	r0, r6, #25
   d4806:	bf58      	it	pl
   d4808:	f041 0104 	orrpl.w	r1, r1, #4
    if ((red & 0x80) == 0)      prefix|= 0b00000010;
   d480c:	062a      	lsls	r2, r5, #24
   d480e:	bf58      	it	pl
   d4810:	f041 0102 	orrpl.w	r1, r1, #2
    if ((red & 0x40) == 0)      prefix|= 0b00000001;
   d4814:	066b      	lsls	r3, r5, #25
   d4816:	bf58      	it	pl
   d4818:	f041 0101 	orrpl.w	r1, r1, #1
    sendByte(prefix);
   d481c:	4620      	mov	r0, r4
   d481e:	f7ff ffc9 	bl	d47b4 <_ZN12ChainableLED8sendByteEh>

    // Now must send the 3 colors
    sendByte(blue);
   d4822:	4639      	mov	r1, r7
   d4824:	4620      	mov	r0, r4
   d4826:	f7ff ffc5 	bl	d47b4 <_ZN12ChainableLED8sendByteEh>
    sendByte(green);
   d482a:	4631      	mov	r1, r6
   d482c:	4620      	mov	r0, r4
   d482e:	f7ff ffc1 	bl	d47b4 <_ZN12ChainableLED8sendByteEh>
    sendByte(red);
   d4832:	4629      	mov	r1, r5
   d4834:	4620      	mov	r0, r4
}
   d4836:	e8bd 40f8 	ldmia.w	sp!, {r3, r4, r5, r6, r7, lr}
    sendByte(prefix);

    // Now must send the 3 colors
    sendByte(blue);
    sendByte(green);
    sendByte(red);
   d483a:	f7ff bfbb 	b.w	d47b4 <_ZN12ChainableLED8sendByteEh>

000d483e <_ZN12ChainableLED11setColorRGBEhhhh>:
}

void ChainableLED::setColorRGB(byte led, byte red, byte green, byte blue)
{
   d483e:	e92d 4ff8 	stmdb	sp!, {r3, r4, r5, r6, r7, r8, r9, sl, fp, lr}
   d4842:	4604      	mov	r4, r0
   d4844:	460d      	mov	r5, r1
    // Send data frame prefix (32x "0")
    sendByte(0x00);
   d4846:	2100      	movs	r1, #0
    sendByte(green);
    sendByte(red);
}

void ChainableLED::setColorRGB(byte led, byte red, byte green, byte blue)
{
   d4848:	4691      	mov	r9, r2
   d484a:	469a      	mov	sl, r3
   d484c:	f89d b028 	ldrb.w	fp, [sp, #40]	; 0x28
    // Send data frame prefix (32x "0")
    sendByte(0x00);
   d4850:	f7ff ffb0 	bl	d47b4 <_ZN12ChainableLED8sendByteEh>
    sendByte(0x00);
   d4854:	2100      	movs	r1, #0
   d4856:	4620      	mov	r0, r4
   d4858:	f7ff ffac 	bl	d47b4 <_ZN12ChainableLED8sendByteEh>
    sendByte(0x00);
   d485c:	2100      	movs	r1, #0
   d485e:	4620      	mov	r0, r4
   d4860:	f7ff ffa8 	bl	d47b4 <_ZN12ChainableLED8sendByteEh>
    sendByte(0x00);
   d4864:	2100      	movs	r1, #0
   d4866:	4620      	mov	r0, r4
   d4868:	f7ff ffa4 	bl	d47b4 <_ZN12ChainableLED8sendByteEh>
    // Send color data for each one of the leds
    for (byte i=0; i<_num_leds; i++)
    {
        if (i == led)
        {
            _led_state[i*3 + _CL_RED] = red;
   d486c:	2703      	movs	r7, #3
            _led_state[i*3 + _CL_GREEN] = green;
   d486e:	f04f 0801 	mov.w	r8, #1
{
    // Send data frame prefix (32x "0")
    sendByte(0x00);
    sendByte(0x00);
    sendByte(0x00);
    sendByte(0x00);
   d4872:	2600      	movs	r6, #0
    for (byte i=0; i<_num_leds; i++)
    {
        if (i == led)
        {
            _led_state[i*3 + _CL_RED] = red;
            _led_state[i*3 + _CL_GREEN] = green;
   d4874:	fb17 8805 	smlabb	r8, r7, r5, r8
    sendByte(0x00);
    sendByte(0x00);
    sendByte(0x00);

    // Send color data for each one of the leds
    for (byte i=0; i<_num_leds; i++)
   d4878:	78a2      	ldrb	r2, [r4, #2]
   d487a:	b2f3      	uxtb	r3, r6
   d487c:	429a      	cmp	r2, r3
   d487e:	d91b      	bls.n	d48b8 <_ZN12ChainableLED11setColorRGBEhhhh+0x7a>
    {
        if (i == led)
   d4880:	42ab      	cmp	r3, r5
   d4882:	d10d      	bne.n	d48a0 <_ZN12ChainableLED11setColorRGBEhhhh+0x62>
        {
            _led_state[i*3 + _CL_RED] = red;
   d4884:	6861      	ldr	r1, [r4, #4]
   d4886:	fb15 f207 	smulbb	r2, r5, r7
   d488a:	f801 9002 	strb.w	r9, [r1, r2]
            _led_state[i*3 + _CL_GREEN] = green;
   d488e:	6862      	ldr	r2, [r4, #4]
   d4890:	f802 a008 	strb.w	sl, [r2, r8]
            _led_state[i*3 + _CL_BLUE] = blue;
   d4894:	2202      	movs	r2, #2
   d4896:	fb17 2205 	smlabb	r2, r7, r5, r2
   d489a:	6861      	ldr	r1, [r4, #4]
   d489c:	f801 b002 	strb.w	fp, [r1, r2]
        }

        sendColor(_led_state[i*3 + _CL_RED],
   d48a0:	6860      	ldr	r0, [r4, #4]
   d48a2:	eb03 0143 	add.w	r1, r3, r3, lsl #1
   d48a6:	1842      	adds	r2, r0, r1
                  _led_state[i*3 + _CL_GREEN],
                  _led_state[i*3 + _CL_BLUE]);
   d48a8:	5c41      	ldrb	r1, [r0, r1]
   d48aa:	7893      	ldrb	r3, [r2, #2]
   d48ac:	7852      	ldrb	r2, [r2, #1]
   d48ae:	4620      	mov	r0, r4
   d48b0:	f7ff ff96 	bl	d47e0 <_ZN12ChainableLED9sendColorEhhh>
   d48b4:	3601      	adds	r6, #1
    sendByte(0x00);
    sendByte(0x00);
    sendByte(0x00);

    // Send color data for each one of the leds
    for (byte i=0; i<_num_leds; i++)
   d48b6:	e7df      	b.n	d4878 <_ZN12ChainableLED11setColorRGBEhhhh+0x3a>
                  _led_state[i*3 + _CL_GREEN],
                  _led_state[i*3 + _CL_BLUE]);
    }

    // Terminate data frame (32x "0")
    sendByte(0x00);
   d48b8:	4620      	mov	r0, r4
   d48ba:	2100      	movs	r1, #0
   d48bc:	f7ff ff7a 	bl	d47b4 <_ZN12ChainableLED8sendByteEh>
    sendByte(0x00);
   d48c0:	4620      	mov	r0, r4
   d48c2:	2100      	movs	r1, #0
   d48c4:	f7ff ff76 	bl	d47b4 <_ZN12ChainableLED8sendByteEh>
    sendByte(0x00);
   d48c8:	4620      	mov	r0, r4
   d48ca:	2100      	movs	r1, #0
   d48cc:	f7ff ff72 	bl	d47b4 <_ZN12ChainableLED8sendByteEh>
    sendByte(0x00);
   d48d0:	4620      	mov	r0, r4
   d48d2:	2100      	movs	r1, #0
}
   d48d4:	e8bd 4ff8 	ldmia.w	sp!, {r3, r4, r5, r6, r7, r8, r9, sl, fp, lr}

    // Terminate data frame (32x "0")
    sendByte(0x00);
    sendByte(0x00);
    sendByte(0x00);
    sendByte(0x00);
   d48d8:	f7ff bf6c 	b.w	d47b4 <_ZN12ChainableLED8sendByteEh>

000d48dc <_ZN12ChainableLED4initEv>:
}

// --------------------------------------------------------------------------------------

void ChainableLED::init()
{
   d48dc:	b573      	push	{r0, r1, r4, r5, r6, lr}
   d48de:	4604      	mov	r4, r0
    pinMode(_clk_pin, OUTPUT);
   d48e0:	2101      	movs	r1, #1
   d48e2:	7800      	ldrb	r0, [r0, #0]
   d48e4:	f003 f8fa 	bl	d7adc <pinMode>
    pinMode(_data_pin, OUTPUT);
   d48e8:	2101      	movs	r1, #1
   d48ea:	7860      	ldrb	r0, [r4, #1]
   d48ec:	f003 f8f6 	bl	d7adc <pinMode>
   d48f0:	2500      	movs	r5, #0

    for (byte i=0; i<_num_leds; i++)
        setColorRGB(i, 0, 0, 0);
   d48f2:	462e      	mov	r6, r5
void ChainableLED::init()
{
    pinMode(_clk_pin, OUTPUT);
    pinMode(_data_pin, OUTPUT);

    for (byte i=0; i<_num_leds; i++)
   d48f4:	78a3      	ldrb	r3, [r4, #2]
   d48f6:	b2e9      	uxtb	r1, r5
   d48f8:	428b      	cmp	r3, r1
   d48fa:	f105 0501 	add.w	r5, r5, #1
   d48fe:	d906      	bls.n	d490e <_ZN12ChainableLED4initEv+0x32>
        setColorRGB(i, 0, 0, 0);
   d4900:	2300      	movs	r3, #0
   d4902:	9600      	str	r6, [sp, #0]
   d4904:	461a      	mov	r2, r3
   d4906:	4620      	mov	r0, r4
   d4908:	f7ff ff99 	bl	d483e <_ZN12ChainableLED11setColorRGBEhhhh>
void ChainableLED::init()
{
    pinMode(_clk_pin, OUTPUT);
    pinMode(_data_pin, OUTPUT);

    for (byte i=0; i<_num_leds; i++)
   d490c:	e7f2      	b.n	d48f4 <_ZN12ChainableLED4initEv+0x18>
        setColorRGB(i, 0, 0, 0);
}
   d490e:	b002      	add	sp, #8
   d4910:	bd70      	pop	{r4, r5, r6, pc}
   d4912:	0000      	movs	r0, r0
   d4914:	0000      	movs	r0, r0
	...

000d4918 <_Z7hue2rgbfff>:
}

// --------------------------------------------------------------------------------------

float hue2rgb(float p, float q, float t)
{
   d4918:	b5f8      	push	{r3, r4, r5, r6, r7, lr}
    if (t < 0.0)
   d491a:	eeb5 1ac0 	vcmpe.f32	s2, #0.0
   d491e:	eef7 7a00 	vmov.f32	s15, #112	; 0x3f800000  1.0
   d4922:	eef1 fa10 	vmrs	APSR_nzcv, fpscr
}

// --------------------------------------------------------------------------------------

float hue2rgb(float p, float q, float t)
{
   d4926:	ed2d 8b04 	vpush	{d8-d9}
   d492a:	eef0 8a41 	vmov.f32	s17, s2
    if (t < 0.0)
        t += 1.0;
   d492e:	bf48      	it	mi
   d4930:	ee71 8a27 	vaddmi.f32	s17, s2, s15
}

// --------------------------------------------------------------------------------------

float hue2rgb(float p, float q, float t)
{
   d4934:	eeb0 8a40 	vmov.f32	s16, s0
    if (t < 0.0)
        t += 1.0;
    if(t > 1.0)
   d4938:	eef4 8ae7 	vcmpe.f32	s17, s15
   d493c:	eef1 fa10 	vmrs	APSR_nzcv, fpscr
        t -= 1.0;
   d4940:	bfc4      	itt	gt
   d4942:	eef7 7a00 	vmovgt.f32	s15, #112	; 0x3f800000  1.0
   d4946:	ee78 8ae7 	vsubgt.f32	s17, s17, s15
}

// --------------------------------------------------------------------------------------

float hue2rgb(float p, float q, float t)
{
   d494a:	eeb0 9a60 	vmov.f32	s18, s1
    if (t < 0.0)
        t += 1.0;
    if(t > 1.0)
        t -= 1.0;
    if(t < 1.0/6.0)
   d494e:	ee18 0a90 	vmov	r0, s17
   d4952:	f003 fbfd 	bl	d8150 <__aeabi_f2d>
   d4956:	a32f      	add	r3, pc, #188	; (adr r3, d4a14 <_Z7hue2rgbfff+0xfc>)
   d4958:	e9d3 2300 	ldrd	r2, r3, [r3]
   d495c:	4604      	mov	r4, r0
   d495e:	460d      	mov	r5, r1
   d4960:	f003 febc 	bl	d86dc <__aeabi_dcmplt>
   d4964:	b160      	cbz	r0, d4980 <_Z7hue2rgbfff+0x68>
        return p + (q - p) * 6.0 * t;
   d4966:	ee79 7a48 	vsub.f32	s15, s18, s16
   d496a:	ee17 0a90 	vmov	r0, s15
   d496e:	f003 fbef 	bl	d8150 <__aeabi_f2d>
   d4972:	2200      	movs	r2, #0
   d4974:	4b26      	ldr	r3, [pc, #152]	; (d4a10 <_Z7hue2rgbfff+0xf8>)
   d4976:	f003 fc3f 	bl	d81f8 <__aeabi_dmul>
   d497a:	4622      	mov	r2, r4
   d497c:	462b      	mov	r3, r5
   d497e:	e025      	b.n	d49cc <_Z7hue2rgbfff+0xb4>
    if(t < 1.0/2.0)
   d4980:	eef6 7a00 	vmov.f32	s15, #96	; 0x3f000000  0.5
   d4984:	eef4 8ae7 	vcmpe.f32	s17, s15
   d4988:	eef1 fa10 	vmrs	APSR_nzcv, fpscr
   d498c:	d42f      	bmi.n	d49ee <_Z7hue2rgbfff+0xd6>
        return q;
    if(t < 2.0/3.0)
   d498e:	a31e      	add	r3, pc, #120	; (adr r3, d4a08 <_Z7hue2rgbfff+0xf0>)
   d4990:	e9d3 2300 	ldrd	r2, r3, [r3]
   d4994:	4620      	mov	r0, r4
   d4996:	4629      	mov	r1, r5
   d4998:	f003 fea0 	bl	d86dc <__aeabi_dcmplt>
   d499c:	b350      	cbz	r0, d49f4 <_Z7hue2rgbfff+0xdc>
        return p + (q - p) * (2.0/3.0 - t) * 6.0;
   d499e:	ee79 7a48 	vsub.f32	s15, s18, s16
   d49a2:	ee17 0a90 	vmov	r0, s15
   d49a6:	f003 fbd3 	bl	d8150 <__aeabi_f2d>
   d49aa:	4622      	mov	r2, r4
   d49ac:	4606      	mov	r6, r0
   d49ae:	460f      	mov	r7, r1
   d49b0:	462b      	mov	r3, r5
   d49b2:	a115      	add	r1, pc, #84	; (adr r1, d4a08 <_Z7hue2rgbfff+0xf0>)
   d49b4:	e9d1 0100 	ldrd	r0, r1, [r1]
   d49b8:	f003 fa6a 	bl	d7e90 <__aeabi_dsub>
   d49bc:	4602      	mov	r2, r0
   d49be:	460b      	mov	r3, r1
   d49c0:	4630      	mov	r0, r6
   d49c2:	4639      	mov	r1, r7
   d49c4:	f003 fc18 	bl	d81f8 <__aeabi_dmul>
   d49c8:	4b11      	ldr	r3, [pc, #68]	; (d4a10 <_Z7hue2rgbfff+0xf8>)
   d49ca:	2200      	movs	r2, #0
   d49cc:	f003 fc14 	bl	d81f8 <__aeabi_dmul>
   d49d0:	4604      	mov	r4, r0
   d49d2:	ee18 0a10 	vmov	r0, s16
   d49d6:	460d      	mov	r5, r1
   d49d8:	f003 fbba 	bl	d8150 <__aeabi_f2d>
   d49dc:	4602      	mov	r2, r0
   d49de:	460b      	mov	r3, r1
   d49e0:	4620      	mov	r0, r4
   d49e2:	4629      	mov	r1, r5
   d49e4:	f003 fa56 	bl	d7e94 <__adddf3>
   d49e8:	f003 fec0 	bl	d876c <__aeabi_d2f>
   d49ec:	e004      	b.n	d49f8 <_Z7hue2rgbfff+0xe0>
    if(t > 1.0)
        t -= 1.0;
    if(t < 1.0/6.0)
        return p + (q - p) * 6.0 * t;
    if(t < 1.0/2.0)
        return q;
   d49ee:	ee19 0a10 	vmov	r0, s18
   d49f2:	e001      	b.n	d49f8 <_Z7hue2rgbfff+0xe0>
    if(t < 2.0/3.0)
        return p + (q - p) * (2.0/3.0 - t) * 6.0;

    return p;
   d49f4:	ee18 0a10 	vmov	r0, s16
}
   d49f8:	ecbd 8b04 	vpop	{d8-d9}
   d49fc:	ee00 0a10 	vmov	s0, r0
   d4a00:	bdf8      	pop	{r3, r4, r5, r6, r7, pc}
   d4a02:	bf00      	nop
   d4a04:	f3af 8000 	nop.w
   d4a08:	55555555 	.word	0x55555555
   d4a0c:	3fe55555 	.word	0x3fe55555
   d4a10:	40180000 	.word	0x40180000
   d4a14:	55555555 	.word	0x55555555
   d4a18:	3fc55555 	.word	0x3fc55555
   d4a1c:	00000000 	.word	0x00000000

000d4a20 <_ZN12ChainableLED11setColorHSBEhfff>:
    sendByte(0x00);
    sendByte(0x00);
}

void ChainableLED::setColorHSB(byte led, float hue, float saturation, float brightness)
{
   d4a20:	e92d 43f0 	stmdb	sp!, {r4, r5, r6, r7, r8, r9, lr}
   d4a24:	ed2d 8b04 	vpush	{d8-d9}

    constrain(hue, 0.0, 1.0);
    constrain(saturation, 0.0, 1.0);
    constrain(brightness, 0.0, 1.0);

    if(saturation == 0.0)
   d4a28:	eef5 0a40 	vcmp.f32	s1, #0.0
   d4a2c:	eef1 fa10 	vmrs	APSR_nzcv, fpscr
    sendByte(0x00);
    sendByte(0x00);
}

void ChainableLED::setColorHSB(byte led, float hue, float saturation, float brightness)
{
   d4a30:	b083      	sub	sp, #12
   d4a32:	4680      	mov	r8, r0
   d4a34:	4689      	mov	r9, r1
   d4a36:	eef0 9a40 	vmov.f32	s19, s0
   d4a3a:	eeb0 9a60 	vmov.f32	s18, s1
   d4a3e:	eeb0 8a41 	vmov.f32	s16, s2

    constrain(hue, 0.0, 1.0);
    constrain(saturation, 0.0, 1.0);
    constrain(brightness, 0.0, 1.0);

    if(saturation == 0.0)
   d4a42:	d06e      	beq.n	d4b22 <_ZN12ChainableLED11setColorHSBEhfff+0x102>
typename std::common_type<T, U>::type
min (T a, U b) { return static_cast<typename std::common_type<T, U>::type>((a)<(b)?(a):(b)); }

template <typename T, typename U, typename V>
static inline
T constrain (T amt, U low, V high) { return ((amt)<(low)?(low):((amt)>(high)?(high):(amt))); }
   d4a44:	ee11 0a10 	vmov	r0, s2
   d4a48:	f003 fb82 	bl	d8150 <__aeabi_f2d>
        r = g = b = brightness;
    }
    else
    {
        float q = brightness < 0.5 ?
            brightness * (1.0 + saturation) : brightness + saturation - brightness * saturation;
   d4a4c:	eef6 7a00 	vmov.f32	s15, #96	; 0x3f000000  0.5
   d4a50:	eeb4 8ae7 	vcmpe.f32	s16, s15
   d4a54:	eef1 fa10 	vmrs	APSR_nzcv, fpscr
   d4a58:	4606      	mov	r6, r0
   d4a5a:	460f      	mov	r7, r1
   d4a5c:	d510      	bpl.n	d4a80 <_ZN12ChainableLED11setColorHSBEhfff+0x60>
   d4a5e:	ee19 0a10 	vmov	r0, s18
   d4a62:	f003 fb75 	bl	d8150 <__aeabi_f2d>
   d4a66:	2200      	movs	r2, #0
   d4a68:	4b4d      	ldr	r3, [pc, #308]	; (d4ba0 <_ZN12ChainableLED11setColorHSBEhfff+0x180>)
   d4a6a:	f003 fa13 	bl	d7e94 <__adddf3>
   d4a6e:	4632      	mov	r2, r6
   d4a70:	463b      	mov	r3, r7
   d4a72:	f003 fbc1 	bl	d81f8 <__aeabi_dmul>
   d4a76:	f003 fe79 	bl	d876c <__aeabi_d2f>
   d4a7a:	ee08 0a90 	vmov	s17, r0
   d4a7e:	e003      	b.n	d4a88 <_ZN12ChainableLED11setColorHSBEhfff+0x68>
   d4a80:	ee79 8a08 	vadd.f32	s17, s18, s16
   d4a84:	eee9 8a48 	vfms.f32	s17, s18, s16
   d4a88:	ee19 0a90 	vmov	r0, s19
   d4a8c:	f003 fb60 	bl	d8150 <__aeabi_f2d>
        float p = 2.0 * brightness - q;
   d4a90:	4632      	mov	r2, r6
   d4a92:	463b      	mov	r3, r7
   d4a94:	4604      	mov	r4, r0
   d4a96:	460d      	mov	r5, r1
   d4a98:	4630      	mov	r0, r6
   d4a9a:	4639      	mov	r1, r7
   d4a9c:	f003 f9fa 	bl	d7e94 <__adddf3>
   d4aa0:	4606      	mov	r6, r0
   d4aa2:	ee18 0a90 	vmov	r0, s17
   d4aa6:	460f      	mov	r7, r1
   d4aa8:	f003 fb52 	bl	d8150 <__aeabi_f2d>
   d4aac:	4602      	mov	r2, r0
   d4aae:	460b      	mov	r3, r1
   d4ab0:	4630      	mov	r0, r6
   d4ab2:	4639      	mov	r1, r7
   d4ab4:	f003 f9ec 	bl	d7e90 <__aeabi_dsub>
   d4ab8:	f003 fe58 	bl	d876c <__aeabi_d2f>
        r = hue2rgb(p, q, hue + 1.0/3.0);
   d4abc:	a334      	add	r3, pc, #208	; (adr r3, d4b90 <_ZN12ChainableLED11setColorHSBEhfff+0x170>)
   d4abe:	e9d3 2300 	ldrd	r2, r3, [r3]
    }
    else
    {
        float q = brightness < 0.5 ?
            brightness * (1.0 + saturation) : brightness + saturation - brightness * saturation;
        float p = 2.0 * brightness - q;
   d4ac2:	ee09 0a10 	vmov	s18, r0
        r = hue2rgb(p, q, hue + 1.0/3.0);
   d4ac6:	4629      	mov	r1, r5
   d4ac8:	4620      	mov	r0, r4
   d4aca:	f003 f9e3 	bl	d7e94 <__adddf3>
   d4ace:	f003 fe4d 	bl	d876c <__aeabi_d2f>
   d4ad2:	eef0 0a68 	vmov.f32	s1, s17
   d4ad6:	ee01 0a10 	vmov	s2, r0
   d4ada:	eeb0 0a49 	vmov.f32	s0, s18
   d4ade:	f7ff ff1b 	bl	d4918 <_Z7hue2rgbfff>
        g = hue2rgb(p, q, hue);
   d4ae2:	eeb0 1a69 	vmov.f32	s2, s19
   d4ae6:	eef0 0a68 	vmov.f32	s1, s17
    else
    {
        float q = brightness < 0.5 ?
            brightness * (1.0 + saturation) : brightness + saturation - brightness * saturation;
        float p = 2.0 * brightness - q;
        r = hue2rgb(p, q, hue + 1.0/3.0);
   d4aea:	eeb0 8a40 	vmov.f32	s16, s0
        g = hue2rgb(p, q, hue);
   d4aee:	eeb0 0a49 	vmov.f32	s0, s18
   d4af2:	f7ff ff11 	bl	d4918 <_Z7hue2rgbfff>
        b = hue2rgb(p, q, hue - 1.0/3.0);
   d4af6:	a326      	add	r3, pc, #152	; (adr r3, d4b90 <_ZN12ChainableLED11setColorHSBEhfff+0x170>)
   d4af8:	e9d3 2300 	ldrd	r2, r3, [r3]
   d4afc:	4620      	mov	r0, r4
   d4afe:	4629      	mov	r1, r5
    {
        float q = brightness < 0.5 ?
            brightness * (1.0 + saturation) : brightness + saturation - brightness * saturation;
        float p = 2.0 * brightness - q;
        r = hue2rgb(p, q, hue + 1.0/3.0);
        g = hue2rgb(p, q, hue);
   d4b00:	eef0 9a40 	vmov.f32	s19, s0
        b = hue2rgb(p, q, hue - 1.0/3.0);
   d4b04:	f003 f9c4 	bl	d7e90 <__aeabi_dsub>
   d4b08:	f003 fe30 	bl	d876c <__aeabi_d2f>
   d4b0c:	eef0 0a68 	vmov.f32	s1, s17
   d4b10:	ee01 0a10 	vmov	s2, r0
   d4b14:	eeb0 0a49 	vmov.f32	s0, s18
   d4b18:	f7ff fefe 	bl	d4918 <_Z7hue2rgbfff>
   d4b1c:	eef0 8a40 	vmov.f32	s17, s0
   d4b20:	e003      	b.n	d4b2a <_ZN12ChainableLED11setColorHSBEhfff+0x10a>
    constrain(saturation, 0.0, 1.0);
    constrain(brightness, 0.0, 1.0);

    if(saturation == 0.0)
    {
        r = g = b = brightness;
   d4b22:	eef0 8a41 	vmov.f32	s17, s2
   d4b26:	eef0 9a41 	vmov.f32	s19, s2
        r = hue2rgb(p, q, hue + 1.0/3.0);
        g = hue2rgb(p, q, hue);
        b = hue2rgb(p, q, hue - 1.0/3.0);
    }

    setColorRGB(led, (byte)(255.0*r), (byte)(255.0*g), (byte)(255.0*b));
   d4b2a:	ee19 0a90 	vmov	r0, s19
   d4b2e:	f003 fb0f 	bl	d8150 <__aeabi_f2d>
   d4b32:	a319      	add	r3, pc, #100	; (adr r3, d4b98 <_ZN12ChainableLED11setColorHSBEhfff+0x178>)
   d4b34:	e9d3 2300 	ldrd	r2, r3, [r3]
   d4b38:	f003 fb5e 	bl	d81f8 <__aeabi_dmul>
   d4b3c:	f003 fdf6 	bl	d872c <__aeabi_d2uiz>
   d4b40:	b2c5      	uxtb	r5, r0
   d4b42:	ee18 0a10 	vmov	r0, s16
   d4b46:	f003 fb03 	bl	d8150 <__aeabi_f2d>
   d4b4a:	a313      	add	r3, pc, #76	; (adr r3, d4b98 <_ZN12ChainableLED11setColorHSBEhfff+0x178>)
   d4b4c:	e9d3 2300 	ldrd	r2, r3, [r3]
   d4b50:	f003 fb52 	bl	d81f8 <__aeabi_dmul>
   d4b54:	f003 fdea 	bl	d872c <__aeabi_d2uiz>
   d4b58:	b2c4      	uxtb	r4, r0
   d4b5a:	ee18 0a90 	vmov	r0, s17
   d4b5e:	f003 faf7 	bl	d8150 <__aeabi_f2d>
   d4b62:	a30d      	add	r3, pc, #52	; (adr r3, d4b98 <_ZN12ChainableLED11setColorHSBEhfff+0x178>)
   d4b64:	e9d3 2300 	ldrd	r2, r3, [r3]
   d4b68:	f003 fb46 	bl	d81f8 <__aeabi_dmul>
   d4b6c:	f003 fdde 	bl	d872c <__aeabi_d2uiz>
   d4b70:	b2c0      	uxtb	r0, r0
   d4b72:	9000      	str	r0, [sp, #0]
   d4b74:	462b      	mov	r3, r5
   d4b76:	4622      	mov	r2, r4
   d4b78:	4649      	mov	r1, r9
   d4b7a:	4640      	mov	r0, r8
   d4b7c:	f7ff fe5f 	bl	d483e <_ZN12ChainableLED11setColorRGBEhhhh>
}
   d4b80:	b003      	add	sp, #12
   d4b82:	ecbd 8b04 	vpop	{d8-d9}
   d4b86:	e8bd 83f0 	ldmia.w	sp!, {r4, r5, r6, r7, r8, r9, pc}
   d4b8a:	bf00      	nop
   d4b8c:	f3af 8000 	nop.w
   d4b90:	55555555 	.word	0x55555555
   d4b94:	3fd55555 	.word	0x3fd55555
   d4b98:	00000000 	.word	0x00000000
   d4b9c:	406fe000 	.word	0x406fe000
   d4ba0:	3ff00000 	.word	0x3ff00000

000d4ba4 <_GLOBAL__sub_I__ZN12ChainableLEDC2Ehhh>:
   d4ba4:	f000 bb60 	b.w	d5268 <HAL_Pin_Map>

000d4ba8 <nrf_gpio_pin_port_decode>:
 *
 * @return Pointer to port register set.
 *
 */
__STATIC_INLINE NRF_GPIO_Type * nrf_gpio_pin_port_decode(uint32_t * p_pin)
{
   d4ba8:	b510      	push	{r4, lr}
    NRFX_ASSERT(*p_pin < NUMBER_OF_PINS);
   d4baa:	6803      	ldr	r3, [r0, #0]
   d4bac:	2b2f      	cmp	r3, #47	; 0x2f
 *
 * @return Pointer to port register set.
 *
 */
__STATIC_INLINE NRF_GPIO_Type * nrf_gpio_pin_port_decode(uint32_t * p_pin)
{
   d4bae:	4604      	mov	r4, r0
    NRFX_ASSERT(*p_pin < NUMBER_OF_PINS);
   d4bb0:	d904      	bls.n	d4bbc <nrf_gpio_pin_port_decode+0x14>
   d4bb2:	4a07      	ldr	r2, [pc, #28]	; (d4bd0 <nrf_gpio_pin_port_decode+0x28>)
   d4bb4:	2100      	movs	r1, #0
   d4bb6:	200a      	movs	r0, #10
   d4bb8:	f000 fc6e 	bl	d5498 <panic_>
#if (GPIO_COUNT == 1)
    return NRF_P0;
#else
    if (*p_pin < P0_PIN_NUM)
   d4bbc:	6823      	ldr	r3, [r4, #0]
   d4bbe:	2b1f      	cmp	r3, #31
    {
        return NRF_P0;
    }
    else
    {
        *p_pin = *p_pin & (P0_PIN_NUM - 1);
   d4bc0:	bf83      	ittte	hi
   d4bc2:	f003 031f 	andhi.w	r3, r3, #31
   d4bc6:	6023      	strhi	r3, [r4, #0]
        return NRF_P1;
   d4bc8:	4802      	ldrhi	r0, [pc, #8]	; (d4bd4 <nrf_gpio_pin_port_decode+0x2c>)
#if (GPIO_COUNT == 1)
    return NRF_P0;
#else
    if (*p_pin < P0_PIN_NUM)
    {
        return NRF_P0;
   d4bca:	f04f 40a0 	movls.w	r0, #1342177280	; 0x50000000
    {
        *p_pin = *p_pin & (P0_PIN_NUM - 1);
        return NRF_P1;
    }
#endif
}
   d4bce:	bd10      	pop	{r4, pc}
   d4bd0:	000d5249 	.word	0x000d5249
   d4bd4:	50000300 	.word	0x50000300

000d4bd8 <nrf_gpio_pin_set>:
    }
}


__STATIC_INLINE void nrf_gpio_pin_set(uint32_t pin_number)
{
   d4bd8:	b507      	push	{r0, r1, r2, lr}
   d4bda:	ab02      	add	r3, sp, #8
   d4bdc:	f843 0d04 	str.w	r0, [r3, #-4]!
    NRF_GPIO_Type * reg = nrf_gpio_pin_port_decode(&pin_number);
   d4be0:	4618      	mov	r0, r3
   d4be2:	f7ff ffe1 	bl	d4ba8 <nrf_gpio_pin_port_decode>

    nrf_gpio_port_out_set(reg, 1UL << pin_number);
   d4be6:	9a01      	ldr	r2, [sp, #4]
   d4be8:	2301      	movs	r3, #1
   d4bea:	4093      	lsls	r3, r2
}


__STATIC_INLINE void nrf_gpio_port_out_set(NRF_GPIO_Type * p_reg, uint32_t set_mask)
{
    p_reg->OUTSET = set_mask;
   d4bec:	f8c0 3508 	str.w	r3, [r0, #1288]	; 0x508
__STATIC_INLINE void nrf_gpio_pin_set(uint32_t pin_number)
{
    NRF_GPIO_Type * reg = nrf_gpio_pin_port_decode(&pin_number);

    nrf_gpio_port_out_set(reg, 1UL << pin_number);
}
   d4bf0:	b003      	add	sp, #12
   d4bf2:	f85d fb04 	ldr.w	pc, [sp], #4

000d4bf6 <nrf_gpio_pin_read>:
    }
}


__STATIC_INLINE uint32_t nrf_gpio_pin_read(uint32_t pin_number)
{
   d4bf6:	b507      	push	{r0, r1, r2, lr}
   d4bf8:	ab02      	add	r3, sp, #8
   d4bfa:	f843 0d04 	str.w	r0, [r3, #-4]!
    NRF_GPIO_Type * reg = nrf_gpio_pin_port_decode(&pin_number);
   d4bfe:	4618      	mov	r0, r3
   d4c00:	f7ff ffd2 	bl	d4ba8 <nrf_gpio_pin_port_decode>
}


__STATIC_INLINE uint32_t nrf_gpio_port_in_read(NRF_GPIO_Type const * p_reg)
{
    return p_reg->IN;
   d4c04:	f8d0 3510 	ldr.w	r3, [r0, #1296]	; 0x510

__STATIC_INLINE uint32_t nrf_gpio_pin_read(uint32_t pin_number)
{
    NRF_GPIO_Type * reg = nrf_gpio_pin_port_decode(&pin_number);

    return ((nrf_gpio_port_in_read(reg) >> pin_number) & 1UL);
   d4c08:	9801      	ldr	r0, [sp, #4]
   d4c0a:	fa23 f000 	lsr.w	r0, r3, r0
}
   d4c0e:	f000 0001 	and.w	r0, r0, #1
   d4c12:	b003      	add	sp, #12
   d4c14:	f85d fb04 	ldr.w	pc, [sp], #4

000d4c18 <_ZN3DHTC1Ehh>:
#include "Grove_Temperature_And_Humidity_Sensor.h"

DHT::DHT(u8 pin, u8 count)
{
	_pin = pin;
	_count = count;
   d4c18:	7202      	strb	r2, [r0, #8]
	firstreading = true;
   d4c1a:	2201      	movs	r2, #1

#include "Grove_Temperature_And_Humidity_Sensor.h"

DHT::DHT(u8 pin, u8 count)
{
	_pin = pin;
   d4c1c:	7181      	strb	r1, [r0, #6]
	_count = count;
	firstreading = true;
   d4c1e:	7402      	strb	r2, [r0, #16]
}
   d4c20:	4770      	bx	lr
	...

000d4c24 <_ZN3DHT5beginEv>:

void DHT::begin(void)
{
   d4c24:	b510      	push	{r4, lr}
// set up the pins!
	pinMode(_pin, INPUT);
   d4c26:	2100      	movs	r1, #0
	_count = count;
	firstreading = true;
}

void DHT::begin(void)
{
   d4c28:	4604      	mov	r4, r0
// set up the pins!
	pinMode(_pin, INPUT);
   d4c2a:	7980      	ldrb	r0, [r0, #6]
   d4c2c:	f002 ff56 	bl	d7adc <pinMode>

inline void pinSetFast(pin_t _pin)
{
    uint32_t nrf_pin = NRF_GPIO_PIN_MAP(PIN_MAP[_pin].gpio_port, PIN_MAP[_pin].gpio_pin);
   d4c30:	4a07      	ldr	r2, [pc, #28]	; (d4c50 <_ZN3DHT5beginEv+0x2c>)
   d4c32:	79a3      	ldrb	r3, [r4, #6]
   d4c34:	6812      	ldr	r2, [r2, #0]
   d4c36:	011b      	lsls	r3, r3, #4
   d4c38:	18d1      	adds	r1, r2, r3
    nrf_gpio_pin_set(nrf_pin);
   d4c3a:	5cd0      	ldrb	r0, [r2, r3]
   d4c3c:	784b      	ldrb	r3, [r1, #1]
   d4c3e:	f003 031f 	and.w	r3, r3, #31
   d4c42:	ea43 1040 	orr.w	r0, r3, r0, lsl #5
   d4c46:	f7ff ffc7 	bl	d4bd8 <nrf_gpio_pin_set>
	pinSetFast(_pin);
	_lastreadtime = 0;
   d4c4a:	2300      	movs	r3, #0
   d4c4c:	60e3      	str	r3, [r4, #12]
   d4c4e:	bd10      	pop	{r4, pc}
   d4c50:	2003e4b8 	.word	0x2003e4b8

000d4c54 <_ZN3DHT4readEv>:
	return NAN;
}


boolean DHT::read(void)
{
   d4c54:	e92d 4ff7 	stmdb	sp!, {r0, r1, r2, r4, r5, r6, r7, r8, r9, sl, fp, lr}
   d4c58:	4604      	mov	r4, r0
#endif

#include "timer_hal.h"
#include "delay_hal.h"

inline system_tick_t millis(void) { return HAL_Timer_Get_Milli_Seconds(); }
   d4c5a:	f000 fafd 	bl	d5258 <HAL_Timer_Get_Milli_Seconds>
	u32 currenttime;

// Check if sensor was read less than two seconds ago and return early
// to use last reading.
	currenttime = millis();
	if (currenttime < _lastreadtime)
   d4c5e:	68e3      	ldr	r3, [r4, #12]
   d4c60:	4283      	cmp	r3, r0
	{
// ie there was a rollover
		_lastreadtime = 0;
   d4c62:	bf84      	itt	hi
   d4c64:	2300      	movhi	r3, #0
   d4c66:	60e3      	strhi	r3, [r4, #12]
	}
	if (!firstreading && ((currenttime - _lastreadtime) < 2000)) {
   d4c68:	7c23      	ldrb	r3, [r4, #16]
   d4c6a:	b933      	cbnz	r3, d4c7a <_ZN3DHT4readEv+0x26>
   d4c6c:	68e3      	ldr	r3, [r4, #12]
   d4c6e:	1ac0      	subs	r0, r0, r3
   d4c70:	f5b0 6ffa 	cmp.w	r0, #2000	; 0x7d0
   d4c74:	d201      	bcs.n	d4c7a <_ZN3DHT4readEv+0x26>
		return true; // return last correct measurement
   d4c76:	2001      	movs	r0, #1
   d4c78:	e0a8      	b.n	d4dcc <_ZN3DHT4readEv+0x178>
//		delay(2000 - (currenttime - _lastreadtime));
	}
	firstreading = false;
   d4c7a:	2500      	movs	r5, #0

static Hal_Pin_Info* PIN_MAP = HAL_Pin_Map();

inline void pinSetFast(pin_t _pin)
{
    uint32_t nrf_pin = NRF_GPIO_PIN_MAP(PIN_MAP[_pin].gpio_port, PIN_MAP[_pin].gpio_pin);
   d4c7c:	4e55      	ldr	r6, [pc, #340]	; (d4dd4 <_ZN3DHT4readEv+0x180>)
   d4c7e:	7425      	strb	r5, [r4, #16]
   d4c80:	f000 faea 	bl	d5258 <HAL_Timer_Get_Milli_Seconds>
   d4c84:	79a3      	ldrb	r3, [r4, #6]
   d4c86:	6832      	ldr	r2, [r6, #0]
/*
	Serial.print("Currtime: "); Serial.print(currenttime);
	Serial.print(" Lasttime: "); Serial.print(_lastreadtime);
*/
	_lastreadtime = millis();
   d4c88:	60e0      	str	r0, [r4, #12]
   d4c8a:	011b      	lsls	r3, r3, #4
   d4c8c:	18d1      	adds	r1, r2, r3

	data[0] = data[1] = data[2] = data[3] = data[4] = 0;
   d4c8e:	7125      	strb	r5, [r4, #4]
   d4c90:	70e5      	strb	r5, [r4, #3]
   d4c92:	70a5      	strb	r5, [r4, #2]
   d4c94:	7065      	strb	r5, [r4, #1]
   d4c96:	7025      	strb	r5, [r4, #0]
    nrf_gpio_pin_set(nrf_pin);
   d4c98:	5cd0      	ldrb	r0, [r2, r3]
   d4c9a:	784b      	ldrb	r3, [r1, #1]
   d4c9c:	f003 031f 	and.w	r3, r3, #31
   d4ca0:	ea43 1040 	orr.w	r0, r3, r0, lsl #5
   d4ca4:	f7ff ff98 	bl	d4bd8 <nrf_gpio_pin_set>

// pull the pin high and wait 250 milliseconds
	pinSetFast(_pin);
	delay(250);
   d4ca8:	20fa      	movs	r0, #250	; 0xfa
   d4caa:	f000 fd3c 	bl	d5726 <delay>

// send begin signal
	pinMode(_pin, OUTPUT);
   d4cae:	2101      	movs	r1, #1
   d4cb0:	79a0      	ldrb	r0, [r4, #6]
   d4cb2:	f002 ff13 	bl	d7adc <pinMode>
}

inline void pinResetFast(pin_t _pin)
{
    uint32_t nrf_pin = NRF_GPIO_PIN_MAP(PIN_MAP[_pin].gpio_port, PIN_MAP[_pin].gpio_pin);
   d4cb6:	79a3      	ldrb	r3, [r4, #6]
   d4cb8:	6832      	ldr	r2, [r6, #0]
   d4cba:	011b      	lsls	r3, r3, #4
   d4cbc:	18d1      	adds	r1, r2, r3
   d4cbe:	5cd2      	ldrb	r2, [r2, r3]
   d4cc0:	784b      	ldrb	r3, [r1, #1]
   d4cc2:	a802      	add	r0, sp, #8
   d4cc4:	f003 031f 	and.w	r3, r3, #31
   d4cc8:	ea43 1342 	orr.w	r3, r3, r2, lsl #5
   d4ccc:	f840 3d04 	str.w	r3, [r0, #-4]!
}


__STATIC_INLINE void nrf_gpio_pin_clear(uint32_t pin_number)
{
    NRF_GPIO_Type * reg = nrf_gpio_pin_port_decode(&pin_number);
   d4cd0:	f7ff ff6a 	bl	d4ba8 <nrf_gpio_pin_port_decode>

    nrf_gpio_port_out_clear(reg, 1UL << pin_number);
   d4cd4:	9b01      	ldr	r3, [sp, #4]
   d4cd6:	f04f 0801 	mov.w	r8, #1
   d4cda:	fa08 f303 	lsl.w	r3, r8, r3
}


__STATIC_INLINE void nrf_gpio_port_out_clear(NRF_GPIO_Type * p_reg, uint32_t clr_mask)
{
    p_reg->OUTCLR = clr_mask;
   d4cde:	f8c0 350c 	str.w	r3, [r0, #1292]	; 0x50c
	pinResetFast(_pin);
	delay(20);
   d4ce2:	2014      	movs	r0, #20
   d4ce4:	f000 fd1f 	bl	d5726 <delay>
	noInterrupts();
   d4ce8:	f002 f8dc 	bl	d6ea4 <_Z12noInterruptsv>

static Hal_Pin_Info* PIN_MAP = HAL_Pin_Map();

inline void pinSetFast(pin_t _pin)
{
    uint32_t nrf_pin = NRF_GPIO_PIN_MAP(PIN_MAP[_pin].gpio_port, PIN_MAP[_pin].gpio_pin);
   d4cec:	79a3      	ldrb	r3, [r4, #6]
   d4cee:	6832      	ldr	r2, [r6, #0]
   d4cf0:	011b      	lsls	r3, r3, #4
   d4cf2:	18d1      	adds	r1, r2, r3
    nrf_gpio_pin_set(nrf_pin);
   d4cf4:	5cd0      	ldrb	r0, [r2, r3]
   d4cf6:	784b      	ldrb	r3, [r1, #1]
   d4cf8:	f003 031f 	and.w	r3, r3, #31
   d4cfc:	ea43 1040 	orr.w	r0, r3, r0, lsl #5
   d4d00:	f7ff ff6a 	bl	d4bd8 <nrf_gpio_pin_set>
inline unsigned long micros(void) { return HAL_Timer_Get_Micro_Seconds(); }
void delay(unsigned long ms);
inline void delayMicroseconds(unsigned int us) { HAL_Delay_Microseconds(us); }
   d4d04:	2028      	movs	r0, #40	; 0x28
   d4d06:	f000 fa9f 	bl	d5248 <HAL_Delay_Microseconds>
	pinSetFast(_pin);
	delayMicroseconds(40);
	pinMode(_pin, INPUT);
   d4d0a:	4629      	mov	r1, r5
   d4d0c:	79a0      	ldrb	r0, [r4, #6]
   d4d0e:	f002 fee5 	bl	d7adc <pinMode>

boolean DHT::read(void)
{
	u8 laststate = HIGH;
	u8 counter = 0;
	u8 j = 0, i;
   d4d12:	462f      	mov	r7, r5
}


boolean DHT::read(void)
{
	u8 laststate = HIGH;
   d4d14:	f04f 0b00 	mov.w	fp, #0
    nrf_gpio_pin_clear(nrf_pin);
}

inline int32_t pinReadFast(pin_t _pin)
{
    uint32_t nrf_pin = NRF_GPIO_PIN_MAP(PIN_MAP[_pin].gpio_port, PIN_MAP[_pin].gpio_pin);
   d4d18:	79a3      	ldrb	r3, [r4, #6]
   d4d1a:	6832      	ldr	r2, [r6, #0]
   d4d1c:	011b      	lsls	r3, r3, #4
   d4d1e:	18d1      	adds	r1, r2, r3
   d4d20:	f812 a003 	ldrb.w	sl, [r2, r3]
   d4d24:	784b      	ldrb	r3, [r1, #1]
   d4d26:	f003 031f 	and.w	r3, r3, #31
   d4d2a:	ea43 1a4a 	orr.w	sl, r3, sl, lsl #5
    // Dummy read is needed because peripherals run at 16 MHz while the CPU runs at 64 MHz.
    (void)nrf_gpio_pin_read(nrf_pin);
   d4d2e:	4650      	mov	r0, sl
   d4d30:	f7ff ff61 	bl	d4bf6 <nrf_gpio_pin_read>
    return nrf_gpio_pin_read(nrf_pin);
   d4d34:	4650      	mov	r0, sl
   d4d36:	f7ff ff5e 	bl	d4bf6 <nrf_gpio_pin_read>
	pinMode(_pin, INPUT);

// read high/low status
	for ( i=0; i< MAXTIMINGS; i++) {
		counter = 0;
		while (pinReadFast(_pin) == laststate) {
   d4d3a:	4580      	cmp	r8, r0
   d4d3c:	fa5f f98b 	uxtb.w	r9, fp
   d4d40:	d108      	bne.n	d4d54 <_ZN3DHT4readEv+0x100>
   d4d42:	2001      	movs	r0, #1
   d4d44:	f10b 0b01 	add.w	fp, fp, #1
   d4d48:	f000 fa7e 	bl	d5248 <HAL_Delay_Microseconds>
			counter++;
			delayMicroseconds(1);
			if (counter == 255) {
   d4d4c:	f1bb 0fff 	cmp.w	fp, #255	; 0xff
   d4d50:	d1e2      	bne.n	d4d18 <_ZN3DHT4readEv+0xc4>
   d4d52:	46d9      	mov	r9, fp
    nrf_gpio_pin_clear(nrf_pin);
}

inline int32_t pinReadFast(pin_t _pin)
{
    uint32_t nrf_pin = NRF_GPIO_PIN_MAP(PIN_MAP[_pin].gpio_port, PIN_MAP[_pin].gpio_pin);
   d4d54:	79a3      	ldrb	r3, [r4, #6]
   d4d56:	6832      	ldr	r2, [r6, #0]
   d4d58:	011b      	lsls	r3, r3, #4
   d4d5a:	18d1      	adds	r1, r2, r3
   d4d5c:	f812 8003 	ldrb.w	r8, [r2, r3]
   d4d60:	784b      	ldrb	r3, [r1, #1]
   d4d62:	f003 031f 	and.w	r3, r3, #31
   d4d66:	ea43 1848 	orr.w	r8, r3, r8, lsl #5
    // Dummy read is needed because peripherals run at 16 MHz while the CPU runs at 64 MHz.
    (void)nrf_gpio_pin_read(nrf_pin);
   d4d6a:	4640      	mov	r0, r8
   d4d6c:	f7ff ff43 	bl	d4bf6 <nrf_gpio_pin_read>
    return nrf_gpio_pin_read(nrf_pin);
   d4d70:	4640      	mov	r0, r8
   d4d72:	f7ff ff40 	bl	d4bf6 <nrf_gpio_pin_read>
				break;
			}
		}
		laststate = pinReadFast(_pin);

		if (counter == 255) break;
   d4d76:	f1b9 0fff 	cmp.w	r9, #255	; 0xff
			delayMicroseconds(1);
			if (counter == 255) {
				break;
			}
		}
		laststate = pinReadFast(_pin);
   d4d7a:	fa5f f880 	uxtb.w	r8, r0

		if (counter == 255) break;
   d4d7e:	d014      	beq.n	d4daa <_ZN3DHT4readEv+0x156>

// ignore first 3 transitions,it's response signal
		if ((i >= 4) && (i%2 == 0)) {
   d4d80:	2d03      	cmp	r5, #3
   d4d82:	d90e      	bls.n	d4da2 <_ZN3DHT4readEv+0x14e>
   d4d84:	07eb      	lsls	r3, r5, #31
   d4d86:	d40c      	bmi.n	d4da2 <_ZN3DHT4readEv+0x14e>
// shove each bit into the storage bytes
			data[j/8] <<= 1;
   d4d88:	08fa      	lsrs	r2, r7, #3
			if (counter > _count)
				data[j/8] |= 1;
			j++;
   d4d8a:	3701      	adds	r7, #1
		if (counter == 255) break;

// ignore first 3 transitions,it's response signal
		if ((i >= 4) && (i%2 == 0)) {
// shove each bit into the storage bytes
			data[j/8] <<= 1;
   d4d8c:	5ca3      	ldrb	r3, [r4, r2]
   d4d8e:	005b      	lsls	r3, r3, #1
   d4d90:	b2db      	uxtb	r3, r3
   d4d92:	54a3      	strb	r3, [r4, r2]
			if (counter > _count)
   d4d94:	7a21      	ldrb	r1, [r4, #8]
   d4d96:	4549      	cmp	r1, r9
				data[j/8] |= 1;
   d4d98:	bf3c      	itt	cc
   d4d9a:	f043 0301 	orrcc.w	r3, r3, #1
   d4d9e:	54a3      	strbcc	r3, [r4, r2]
			j++;
   d4da0:	b2ff      	uxtb	r7, r7
	pinSetFast(_pin);
	delayMicroseconds(40);
	pinMode(_pin, INPUT);

// read high/low status
	for ( i=0; i< MAXTIMINGS; i++) {
   d4da2:	3501      	adds	r5, #1
   d4da4:	b2ed      	uxtb	r5, r5
   d4da6:	2d55      	cmp	r5, #85	; 0x55
   d4da8:	d1b4      	bne.n	d4d14 <_ZN3DHT4readEv+0xc0>
			j++;
		}

	}

	interrupts();
   d4daa:	f002 f87d 	bl	d6ea8 <_Z10interruptsv>
	Serial.print(data[4], HEX); Serial.print(" =? ");
	Serial.println(data[0] + data[1] + data[2] + data[3], HEX);
*/

// Verify that the data is correct
	if ((j >= 40) &&
   d4dae:	2f27      	cmp	r7, #39	; 0x27
   d4db0:	d90b      	bls.n	d4dca <_ZN3DHT4readEv+0x176>
   d4db2:	7822      	ldrb	r2, [r4, #0]
   d4db4:	7863      	ldrb	r3, [r4, #1]
   d4db6:	7921      	ldrb	r1, [r4, #4]
   d4db8:	4413      	add	r3, r2
   d4dba:	78a2      	ldrb	r2, [r4, #2]
   d4dbc:	4413      	add	r3, r2
   d4dbe:	78e2      	ldrb	r2, [r4, #3]
   d4dc0:	4413      	add	r3, r2
   d4dc2:	b2db      	uxtb	r3, r3
   d4dc4:	4299      	cmp	r1, r3
   d4dc6:	f43f af56 	beq.w	d4c76 <_ZN3DHT4readEv+0x22>
	   (data[4] == ((data[0] + data[1] + data[2] + data[3]) & 0xFF)) ) {
		return true;
	}

	return false;
   d4dca:	2000      	movs	r0, #0

}
   d4dcc:	b003      	add	sp, #12
   d4dce:	e8bd 8ff0 	ldmia.w	sp!, {r4, r5, r6, r7, r8, r9, sl, fp, pc}
   d4dd2:	bf00      	nop
   d4dd4:	2003e4b8 	.word	0x2003e4b8

000d4dd8 <_ZN3DHT15readTemperatureEv>:
	pinSetFast(_pin);
	_lastreadtime = 0;
}

float DHT::readTemperature()
{
   d4dd8:	b510      	push	{r4, lr}
   d4dda:	4604      	mov	r4, r0
	float f;

	if (read())
   d4ddc:	f7ff ff3a 	bl	d4c54 <_ZN3DHT4readEv>
   d4de0:	b128      	cbz	r0, d4dee <_ZN3DHT15readTemperatureEv+0x16>
	{
		f = data[2];
   d4de2:	78a3      	ldrb	r3, [r4, #2]
   d4de4:	ee00 3a10 	vmov	s0, r3
   d4de8:	eeb8 0a40 	vcvt.f32.u32	s0, s0
		return f;
   d4dec:	bd10      	pop	{r4, pc}
	}
	return NAN;
   d4dee:	ed9f 0a01 	vldr	s0, [pc, #4]	; d4df4 <_ZN3DHT15readTemperatureEv+0x1c>
}
   d4df2:	bd10      	pop	{r4, pc}
   d4df4:	7fc00000 	.word	0x7fc00000

000d4df8 <_ZN3DHT16getTempFarenheitEv>:
{
	return readTemperature();
}

float DHT::getTempFarenheit()
{
   d4df8:	b508      	push	{r3, lr}
	return convertCtoF(readTemperature());
   d4dfa:	f7ff ffed 	bl	d4dd8 <_ZN3DHT15readTemperatureEv>
   d4dfe:	eef2 7a02 	vmov.f32	s15, #34	; 0x41100000  9.0
   d4e02:	ee60 7a27 	vmul.f32	s15, s0, s15
   d4e06:	eeb1 7a04 	vmov.f32	s14, #20	; 0x40a00000  5.0
   d4e0a:	ee87 0a87 	vdiv.f32	s0, s15, s14
}
   d4e0e:	eddf 7a02 	vldr	s15, [pc, #8]	; d4e18 <_ZN3DHT16getTempFarenheitEv+0x20>
   d4e12:	ee30 0a27 	vadd.f32	s0, s0, s15
   d4e16:	bd08      	pop	{r3, pc}
   d4e18:	42000000 	.word	0x42000000

000d4e1c <_ZN3DHT12readHumidityEv>:
{
	return c * 9 / 5 + 32;
}

float DHT::readHumidity(void)
{
   d4e1c:	b510      	push	{r4, lr}
   d4e1e:	4604      	mov	r4, r0
	float f;

	if (read())
   d4e20:	f7ff ff18 	bl	d4c54 <_ZN3DHT4readEv>
   d4e24:	b128      	cbz	r0, d4e32 <_ZN3DHT12readHumidityEv+0x16>
	{
		f = data[0];
   d4e26:	7823      	ldrb	r3, [r4, #0]
   d4e28:	ee00 3a10 	vmov	s0, r3
   d4e2c:	eeb8 0a40 	vcvt.f32.u32	s0, s0
		return f;
   d4e30:	bd10      	pop	{r4, pc}
	}
	return NAN;
   d4e32:	ed9f 0a01 	vldr	s0, [pc, #4]	; d4e38 <_ZN3DHT12readHumidityEv+0x1c>
}
   d4e36:	bd10      	pop	{r4, pc}
   d4e38:	7fc00000 	.word	0x7fc00000

000d4e3c <_ZN3DHT11getHumidityEv>:
	return NAN;
}

float DHT::getHumidity()
{
	return readHumidity();
   d4e3c:	f7ff bfee 	b.w	d4e1c <_ZN3DHT12readHumidityEv>

000d4e40 <_GLOBAL__sub_I__ZN3DHTC2Ehh>:
		return true;
	}

	return false;

}
   d4e40:	b508      	push	{r3, lr}

inline void pinSetFast(pin_t _pin) __attribute__((always_inline));
inline void pinResetFast(pin_t _pin) __attribute__((always_inline));
inline int32_t pinReadFast(pin_t _pin) __attribute__((always_inline));

static Hal_Pin_Info* PIN_MAP = HAL_Pin_Map();
   d4e42:	f000 fa11 	bl	d5268 <HAL_Pin_Map>
   d4e46:	4b01      	ldr	r3, [pc, #4]	; (d4e4c <_GLOBAL__sub_I__ZN3DHTC2Ehh+0xc>)
   d4e48:	6018      	str	r0, [r3, #0]
   d4e4a:	bd08      	pop	{r3, pc}
   d4e4c:	2003e4b8 	.word	0x2003e4b8

000d4e50 <_ZN10JsonBufferD1Ev>:


JsonBuffer::JsonBuffer()  : buffer(0), bufferLen(0), offset(0), staticBuffers(false) {

}
JsonBuffer::~JsonBuffer() {
   d4e50:	b510      	push	{r4, lr}
   d4e52:	4b05      	ldr	r3, [pc, #20]	; (d4e68 <_ZN10JsonBufferD1Ev+0x18>)
   d4e54:	6003      	str	r3, [r0, #0]
	if (!staticBuffers && buffer) {
   d4e56:	7c03      	ldrb	r3, [r0, #16]


JsonBuffer::JsonBuffer()  : buffer(0), bufferLen(0), offset(0), staticBuffers(false) {

}
JsonBuffer::~JsonBuffer() {
   d4e58:	4604      	mov	r4, r0
	if (!staticBuffers && buffer) {
   d4e5a:	b91b      	cbnz	r3, d4e64 <_ZN10JsonBufferD1Ev+0x14>
   d4e5c:	6840      	ldr	r0, [r0, #4]
   d4e5e:	b108      	cbz	r0, d4e64 <_ZN10JsonBufferD1Ev+0x14>
		free(buffer);
   d4e60:	f000 fbf0 	bl	d5644 <free>
	}
}
   d4e64:	4620      	mov	r0, r4
   d4e66:	bd10      	pop	{r4, pc}
   d4e68:	000d8e48 	.word	0x000d8e48

000d4e6c <_ZN10JsonBufferD0Ev>:


JsonBuffer::JsonBuffer()  : buffer(0), bufferLen(0), offset(0), staticBuffers(false) {

}
JsonBuffer::~JsonBuffer() {
   d4e6c:	b510      	push	{r4, lr}
   d4e6e:	4604      	mov	r4, r0
	if (!staticBuffers && buffer) {
		free(buffer);
	}
}
   d4e70:	f7ff ffee 	bl	d4e50 <_ZN10JsonBufferD1Ev>
   d4e74:	4620      	mov	r0, r4
   d4e76:	2114      	movs	r1, #20
   d4e78:	f002 feb9 	bl	d7bee <_ZdlPvj>
   d4e7c:	4620      	mov	r0, r4
   d4e7e:	bd10      	pop	{r4, pc}

000d4e80 <_ZN10JsonWriterD1Ev>:
//
JsonWriter::JsonWriter() : JsonBuffer(), floatPlaces(-1) {
	init();
}

JsonWriter::~JsonWriter() {
   d4e80:	b510      	push	{r4, lr}
   d4e82:	4b03      	ldr	r3, [pc, #12]	; (d4e90 <_ZN10JsonWriterD1Ev+0x10>)
   d4e84:	6003      	str	r3, [r0, #0]
   d4e86:	4604      	mov	r4, r0
   d4e88:	f7ff ffe2 	bl	d4e50 <_ZN10JsonBufferD1Ev>

}
   d4e8c:	4620      	mov	r0, r4
   d4e8e:	bd10      	pop	{r4, pc}
   d4e90:	000d8e58 	.word	0x000d8e58

000d4e94 <_ZN10JsonWriterD0Ev>:
//
JsonWriter::JsonWriter() : JsonBuffer(), floatPlaces(-1) {
	init();
}

JsonWriter::~JsonWriter() {
   d4e94:	b510      	push	{r4, lr}
   d4e96:	4604      	mov	r4, r0

}
   d4e98:	f7ff fff2 	bl	d4e80 <_ZN10JsonWriterD1Ev>
   d4e9c:	4620      	mov	r0, r4
   d4e9e:	2130      	movs	r1, #48	; 0x30
   d4ea0:	f002 fea5 	bl	d7bee <_ZdlPvj>
   d4ea4:	4620      	mov	r0, r4
   d4ea6:	bd10      	pop	{r4, pc}

000d4ea8 <_ZN10JsonWriter4initEv>:
	init();
}

void JsonWriter::init() {
	// Save start of insertion point for later
	offset = 0;
   d4ea8:	2300      	movs	r3, #0
   d4eaa:	60c3      	str	r3, [r0, #12]

	contextIndex = 0;
   d4eac:	6143      	str	r3, [r0, #20]
	context[contextIndex].isFirst = false;
   d4eae:	7603      	strb	r3, [r0, #24]
	context[contextIndex].terminator = 0;
   d4eb0:	7643      	strb	r3, [r0, #25]

	truncated = false;
   d4eb2:	f880 302a 	strb.w	r3, [r0, #42]	; 0x2a
   d4eb6:	4770      	bx	lr

000d4eb8 <_ZN10JsonWriterC1EPcj>:
	if (!staticBuffers && buffer) {
		free(buffer);
	}
}

JsonBuffer::JsonBuffer(char *buffer, size_t bufferLen)  : buffer(buffer), bufferLen(bufferLen), offset(0), staticBuffers(true) {
   d4eb8:	2300      	movs	r3, #0

JsonWriter::~JsonWriter() {

}

JsonWriter::JsonWriter(char *buffer, size_t bufferLen) : JsonBuffer(buffer, bufferLen), floatPlaces(-1) {
   d4eba:	b510      	push	{r4, lr}
	if (!staticBuffers && buffer) {
		free(buffer);
	}
}

JsonBuffer::JsonBuffer(char *buffer, size_t bufferLen)  : buffer(buffer), bufferLen(bufferLen), offset(0), staticBuffers(true) {
   d4ebc:	60c3      	str	r3, [r0, #12]
   d4ebe:	2301      	movs	r3, #1
   d4ec0:	7403      	strb	r3, [r0, #16]

JsonWriter::~JsonWriter() {

}

JsonWriter::JsonWriter(char *buffer, size_t bufferLen) : JsonBuffer(buffer, bufferLen), floatPlaces(-1) {
   d4ec2:	4b05      	ldr	r3, [pc, #20]	; (d4ed8 <_ZN10JsonWriterC1EPcj+0x20>)
   d4ec4:	6003      	str	r3, [r0, #0]
   d4ec6:	f04f 33ff 	mov.w	r3, #4294967295	; 0xffffffff
	if (!staticBuffers && buffer) {
		free(buffer);
	}
}

JsonBuffer::JsonBuffer(char *buffer, size_t bufferLen)  : buffer(buffer), bufferLen(bufferLen), offset(0), staticBuffers(true) {
   d4eca:	6041      	str	r1, [r0, #4]
   d4ecc:	6082      	str	r2, [r0, #8]

JsonWriter::~JsonWriter() {

}

JsonWriter::JsonWriter(char *buffer, size_t bufferLen) : JsonBuffer(buffer, bufferLen), floatPlaces(-1) {
   d4ece:	62c3      	str	r3, [r0, #44]	; 0x2c
	init();
   d4ed0:	f7ff ffea 	bl	d4ea8 <_ZN10JsonWriter4initEv>
}
   d4ed4:	bd10      	pop	{r4, pc}
   d4ed6:	bf00      	nop
   d4ed8:	000d8e58 	.word	0x000d8e58

000d4edc <_ZN10JsonWriter10insertCharEc>:
	}
}


void JsonWriter::insertChar(char ch) {
	if (offset < bufferLen) {
   d4edc:	68c3      	ldr	r3, [r0, #12]
   d4ede:	6882      	ldr	r2, [r0, #8]
		buffer[bufferLen - 1] = 0;
	}
}


void JsonWriter::insertChar(char ch) {
   d4ee0:	b510      	push	{r4, lr}
	if (offset < bufferLen) {
   d4ee2:	4293      	cmp	r3, r2
		buffer[offset++] = ch;
   d4ee4:	bf3f      	itttt	cc
   d4ee6:	6842      	ldrcc	r2, [r0, #4]
   d4ee8:	1c5c      	addcc	r4, r3, #1
   d4eea:	60c4      	strcc	r4, [r0, #12]
   d4eec:	54d1      	strbcc	r1, [r2, r3]
	}
	else {
		truncated = true;
   d4eee:	bf24      	itt	cs
   d4ef0:	2301      	movcs	r3, #1
   d4ef2:	f880 302a 	strbcs.w	r3, [r0, #42]	; 0x2a
   d4ef6:	bd10      	pop	{r4, pc}

000d4ef8 <_ZN10JsonWriter18startObjectOrArrayEcc>:

	truncated = false;

}

bool JsonWriter::startObjectOrArray(char startChar, char endChar) {
   d4ef8:	b538      	push	{r3, r4, r5, lr}
	if ((contextIndex + 1) >= MAX_NESTED_CONTEXT) {
   d4efa:	6944      	ldr	r4, [r0, #20]
   d4efc:	1c65      	adds	r5, r4, #1
   d4efe:	2d08      	cmp	r5, #8
   d4f00:	d809      	bhi.n	d4f16 <_ZN10JsonWriter18startObjectOrArrayEcc+0x1e>
   d4f02:	eb00 0344 	add.w	r3, r0, r4, lsl #1
		return false;
	}
	contextIndex++;

	context[contextIndex].isFirst = true;
   d4f06:	2401      	movs	r4, #1

bool JsonWriter::startObjectOrArray(char startChar, char endChar) {
	if ((contextIndex + 1) >= MAX_NESTED_CONTEXT) {
		return false;
	}
	contextIndex++;
   d4f08:	6145      	str	r5, [r0, #20]

	context[contextIndex].isFirst = true;
   d4f0a:	769c      	strb	r4, [r3, #26]
	context[contextIndex].terminator = endChar;
   d4f0c:	76da      	strb	r2, [r3, #27]

	insertChar(startChar);
   d4f0e:	f7ff ffe5 	bl	d4edc <_ZN10JsonWriter10insertCharEc>
	return true;
   d4f12:	4620      	mov	r0, r4
   d4f14:	bd38      	pop	{r3, r4, r5, pc}

}

bool JsonWriter::startObjectOrArray(char startChar, char endChar) {
	if ((contextIndex + 1) >= MAX_NESTED_CONTEXT) {
		return false;
   d4f16:	2000      	movs	r0, #0
	context[contextIndex].isFirst = true;
	context[contextIndex].terminator = endChar;

	insertChar(startChar);
	return true;
}
   d4f18:	bd38      	pop	{r3, r4, r5, pc}

000d4f1a <_ZN10JsonWriter19finishObjectOrArrayEv>:


void JsonWriter::finishObjectOrArray() {
   d4f1a:	b510      	push	{r4, lr}
	if (contextIndex > 0) {
   d4f1c:	6943      	ldr	r3, [r0, #20]
	insertChar(startChar);
	return true;
}


void JsonWriter::finishObjectOrArray() {
   d4f1e:	4604      	mov	r4, r0
	if (contextIndex > 0) {
   d4f20:	b143      	cbz	r3, d4f34 <_ZN10JsonWriter19finishObjectOrArrayEv+0x1a>
		if (context[contextIndex].terminator != 0) {
   d4f22:	eb00 0343 	add.w	r3, r0, r3, lsl #1
   d4f26:	7e59      	ldrb	r1, [r3, #25]
   d4f28:	b109      	cbz	r1, d4f2e <_ZN10JsonWriter19finishObjectOrArrayEv+0x14>
			insertChar(context[contextIndex].terminator);
   d4f2a:	f7ff ffd7 	bl	d4edc <_ZN10JsonWriter10insertCharEc>
		}
		contextIndex--;
   d4f2e:	6963      	ldr	r3, [r4, #20]
   d4f30:	3b01      	subs	r3, #1
   d4f32:	6163      	str	r3, [r4, #20]
	}
	// Make sure buffer is null terminated
	if (offset < bufferLen) {
   d4f34:	68a3      	ldr	r3, [r4, #8]
   d4f36:	68e0      	ldr	r0, [r4, #12]
   d4f38:	6861      	ldr	r1, [r4, #4]
   d4f3a:	4298      	cmp	r0, r3
   d4f3c:	f04f 0200 	mov.w	r2, #0
		buffer[offset] = 0;
	}
	else {
		buffer[bufferLen - 1] = 0;
   d4f40:	bf2a      	itet	cs
   d4f42:	185b      	addcs	r3, r3, r1
		}
		contextIndex--;
	}
	// Make sure buffer is null terminated
	if (offset < bufferLen) {
		buffer[offset] = 0;
   d4f44:	540a      	strbcc	r2, [r1, r0]
	}
	else {
		buffer[bufferLen - 1] = 0;
   d4f46:	f803 2c01 	strbcs.w	r2, [r3, #-1]
   d4f4a:	bd10      	pop	{r4, pc}

000d4f4c <_ZN10JsonWriter14insertvsprintfEPKcSt9__va_list>:
	va_start(ap, fmt);
	insertvsprintf(fmt, ap);
	va_end(ap);
}

void JsonWriter::insertvsprintf(const char *fmt, va_list ap) {
   d4f4c:	b570      	push	{r4, r5, r6, lr}
   d4f4e:	4604      	mov	r4, r0
	size_t spaceAvailable = bufferLen - offset;
   d4f50:	68c0      	ldr	r0, [r0, #12]
   d4f52:	68a5      	ldr	r5, [r4, #8]

	size_t count = vsnprintf(&buffer[offset], spaceAvailable, fmt, ap);
   d4f54:	6866      	ldr	r6, [r4, #4]
	insertvsprintf(fmt, ap);
	va_end(ap);
}

void JsonWriter::insertvsprintf(const char *fmt, va_list ap) {
	size_t spaceAvailable = bufferLen - offset;
   d4f56:	1a2d      	subs	r5, r5, r0

	size_t count = vsnprintf(&buffer[offset], spaceAvailable, fmt, ap);
   d4f58:	4613      	mov	r3, r2
   d4f5a:	4430      	add	r0, r6
   d4f5c:	460a      	mov	r2, r1
   d4f5e:	4629      	mov	r1, r5
   d4f60:	f000 fb80 	bl	d5664 <vsnprintf>
	if (count <= spaceAvailable) {
   d4f64:	4285      	cmp	r5, r0
		offset += count;
   d4f66:	bf2d      	iteet	cs
   d4f68:	68e3      	ldrcs	r3, [r4, #12]
	}
	else {
		// Truncated, no more space left
		offset = bufferLen;
   d4f6a:	68a3      	ldrcc	r3, [r4, #8]
   d4f6c:	60e3      	strcc	r3, [r4, #12]
void JsonWriter::insertvsprintf(const char *fmt, va_list ap) {
	size_t spaceAvailable = bufferLen - offset;

	size_t count = vsnprintf(&buffer[offset], spaceAvailable, fmt, ap);
	if (count <= spaceAvailable) {
		offset += count;
   d4f6e:	18c0      	addcs	r0, r0, r3
	}
	else {
		// Truncated, no more space left
		offset = bufferLen;
		truncated = true;
   d4f70:	bf36      	itet	cc
   d4f72:	2301      	movcc	r3, #1
void JsonWriter::insertvsprintf(const char *fmt, va_list ap) {
	size_t spaceAvailable = bufferLen - offset;

	size_t count = vsnprintf(&buffer[offset], spaceAvailable, fmt, ap);
	if (count <= spaceAvailable) {
		offset += count;
   d4f74:	60e0      	strcs	r0, [r4, #12]
	}
	else {
		// Truncated, no more space left
		offset = bufferLen;
		truncated = true;
   d4f76:	f884 302a 	strbcc.w	r3, [r4, #42]	; 0x2a
   d4f7a:	bd70      	pop	{r4, r5, r6, pc}

000d4f7c <_ZN10JsonWriter13insertsprintfEPKcz>:

}



void JsonWriter::insertsprintf(const char *fmt, ...) {
   d4f7c:	b40e      	push	{r1, r2, r3}
   d4f7e:	b503      	push	{r0, r1, lr}
   d4f80:	aa03      	add	r2, sp, #12
   d4f82:	f852 1b04 	ldr.w	r1, [r2], #4
	va_list ap;
	va_start(ap, fmt);
   d4f86:	9201      	str	r2, [sp, #4]
	insertvsprintf(fmt, ap);
   d4f88:	f7ff ffe0 	bl	d4f4c <_ZN10JsonWriter14insertvsprintfEPKcSt9__va_list>
	va_end(ap);
}
   d4f8c:	b002      	add	sp, #8
   d4f8e:	f85d eb04 	ldr.w	lr, [sp], #4
   d4f92:	b003      	add	sp, #12
   d4f94:	4770      	bx	lr
	...

000d4f98 <_ZN10JsonWriter12insertStringEPKcb>:
	else {
		truncated = true;
	}
}

void JsonWriter::insertString(const char *s, bool quoted) {
   d4f98:	e92d 41f0 	stmdb	sp!, {r4, r5, r6, r7, r8, lr}
   d4f9c:	4604      	mov	r4, r0
   d4f9e:	460e      	mov	r6, r1
	// 110xxxxx 10xxxxxx

	// 0x00000800 - 0x0000FFFF:
	// 1110xxxx 10xxxxxx 10xxxxxx

	if (quoted) {
   d4fa0:	4617      	mov	r7, r2
   d4fa2:	b112      	cbz	r2, d4faa <_ZN10JsonWriter12insertStringEPKcb+0x12>
		insertChar('"');
   d4fa4:	2122      	movs	r1, #34	; 0x22
   d4fa6:	f7ff ff99 	bl	d4edc <_ZN10JsonWriter10insertCharEc>
	else {
		truncated = true;
	}
}

void JsonWriter::insertString(const char *s, bool quoted) {
   d4faa:	2500      	movs	r5, #0

	if (quoted) {
		insertChar('"');
	}

	for(size_t ii = 0; s[ii] && offset < bufferLen; ii++) {
   d4fac:	5d71      	ldrb	r1, [r6, r5]
   d4fae:	eb06 0805 	add.w	r8, r6, r5
   d4fb2:	2900      	cmp	r1, #0
   d4fb4:	d071      	beq.n	d509a <_ZN10JsonWriter12insertStringEPKcb+0x102>
   d4fb6:	68e2      	ldr	r2, [r4, #12]
   d4fb8:	68a3      	ldr	r3, [r4, #8]
   d4fba:	429a      	cmp	r2, r3
   d4fbc:	d26d      	bcs.n	d509a <_ZN10JsonWriter12insertStringEPKcb+0x102>
		if (s[ii] & 0x80) {
   d4fbe:	060b      	lsls	r3, r1, #24
   d4fc0:	d533      	bpl.n	d502a <_ZN10JsonWriter12insertStringEPKcb+0x92>
			// High bit set: convert UTF-8 to JSON Unicode escape
			if (((s[ii] & 0b11110000) == 0b11100000) && ((s[ii+1] & 0b11000000) == 0b10000000) && ((s[ii+2] & 0b11000000) == 0b10000000)) {
   d4fc2:	f001 03f0 	and.w	r3, r1, #240	; 0xf0
   d4fc6:	2be0      	cmp	r3, #224	; 0xe0
   d4fc8:	d117      	bne.n	d4ffa <_ZN10JsonWriter12insertStringEPKcb+0x62>
   d4fca:	f898 3001 	ldrb.w	r3, [r8, #1]
   d4fce:	f003 02c0 	and.w	r2, r3, #192	; 0xc0
   d4fd2:	2a80      	cmp	r2, #128	; 0x80
   d4fd4:	d111      	bne.n	d4ffa <_ZN10JsonWriter12insertStringEPKcb+0x62>
   d4fd6:	f105 0802 	add.w	r8, r5, #2
   d4fda:	f816 2008 	ldrb.w	r2, [r6, r8]
   d4fde:	f002 00c0 	and.w	r0, r2, #192	; 0xc0
   d4fe2:	2880      	cmp	r0, #128	; 0x80
   d4fe4:	d109      	bne.n	d4ffa <_ZN10JsonWriter12insertStringEPKcb+0x62>
				// 3-byte
				uint16_t utf16 = ((s[ii] & 0b1111) << 12) | ((s[ii+1] & 0b111111) << 6) | (s[ii+2] & 0b111111);
				insertsprintf("\\u%04X", utf16);
   d4fe6:	f002 023f 	and.w	r2, r2, #63	; 0x3f
   d4fea:	019b      	lsls	r3, r3, #6
   d4fec:	ea42 3201 	orr.w	r2, r2, r1, lsl #12
   d4ff0:	f403 637c 	and.w	r3, r3, #4032	; 0xfc0
   d4ff4:	431a      	orrs	r2, r3
   d4ff6:	b292      	uxth	r2, r2
   d4ff8:	e011      	b.n	d501e <_ZN10JsonWriter12insertStringEPKcb+0x86>
				ii += 2; // plus one more in loop increment
			}
			else
			if (((s[ii] & 0b11100000) == 0b11000000) && ((s[ii+1] & 0b11000000) == 0b10000000)) {
   d4ffa:	f001 03e0 	and.w	r3, r1, #224	; 0xe0
   d4ffe:	2bc0      	cmp	r3, #192	; 0xc0
   d5000:	d146      	bne.n	d5090 <_ZN10JsonWriter12insertStringEPKcb+0xf8>
   d5002:	f105 0801 	add.w	r8, r5, #1
   d5006:	f816 3008 	ldrb.w	r3, [r6, r8]
   d500a:	f003 02c0 	and.w	r2, r3, #192	; 0xc0
   d500e:	2a80      	cmp	r2, #128	; 0x80
   d5010:	d13e      	bne.n	d5090 <_ZN10JsonWriter12insertStringEPKcb+0xf8>
				// 2-byte
				uint16_t utf16 = ((s[ii] & 0b11111) << 6) | (s[ii+1] & 0b111111);
				insertsprintf("\\u%04X", utf16);
   d5012:	0189      	lsls	r1, r1, #6
   d5014:	f401 62f8 	and.w	r2, r1, #1984	; 0x7c0
   d5018:	f003 033f 	and.w	r3, r3, #63	; 0x3f
   d501c:	431a      	orrs	r2, r3
   d501e:	4923      	ldr	r1, [pc, #140]	; (d50ac <_ZN10JsonWriter12insertStringEPKcb+0x114>)
   d5020:	4620      	mov	r0, r4
   d5022:	f7ff ffab 	bl	d4f7c <_ZN10JsonWriter13insertsprintfEPKcz>
				ii++; // plus one more in loop increment
   d5026:	4645      	mov	r5, r8
   d5028:	e035      	b.n	d5096 <_ZN10JsonWriter12insertStringEPKcb+0xfe>
				// Not valid unicode, just pass characters through
				insertChar(s[ii]);
			}
		}
		else {
			switch(s[ii]) {
   d502a:	290c      	cmp	r1, #12
   d502c:	d018      	beq.n	d5060 <_ZN10JsonWriter12insertStringEPKcb+0xc8>
   d502e:	d80b      	bhi.n	d5048 <_ZN10JsonWriter12insertStringEPKcb+0xb0>
   d5030:	2909      	cmp	r1, #9
   d5032:	d021      	beq.n	d5078 <_ZN10JsonWriter12insertStringEPKcb+0xe0>
   d5034:	290a      	cmp	r1, #10
   d5036:	d019      	beq.n	d506c <_ZN10JsonWriter12insertStringEPKcb+0xd4>
   d5038:	2908      	cmp	r1, #8
   d503a:	d129      	bne.n	d5090 <_ZN10JsonWriter12insertStringEPKcb+0xf8>
			case '\b':
				insertChar('\\');
   d503c:	215c      	movs	r1, #92	; 0x5c
   d503e:	4620      	mov	r0, r4
   d5040:	f7ff ff4c 	bl	d4edc <_ZN10JsonWriter10insertCharEc>
				insertChar('b');
   d5044:	2162      	movs	r1, #98	; 0x62
   d5046:	e023      	b.n	d5090 <_ZN10JsonWriter12insertStringEPKcb+0xf8>
				// Not valid unicode, just pass characters through
				insertChar(s[ii]);
			}
		}
		else {
			switch(s[ii]) {
   d5048:	2922      	cmp	r1, #34	; 0x22
   d504a:	d01b      	beq.n	d5084 <_ZN10JsonWriter12insertStringEPKcb+0xec>
   d504c:	295c      	cmp	r1, #92	; 0x5c
   d504e:	d019      	beq.n	d5084 <_ZN10JsonWriter12insertStringEPKcb+0xec>
   d5050:	290d      	cmp	r1, #13
   d5052:	d11d      	bne.n	d5090 <_ZN10JsonWriter12insertStringEPKcb+0xf8>
				insertChar('\\');
				insertChar('n');
				break;

			case '\r':
				insertChar('\\');
   d5054:	215c      	movs	r1, #92	; 0x5c
   d5056:	4620      	mov	r0, r4
   d5058:	f7ff ff40 	bl	d4edc <_ZN10JsonWriter10insertCharEc>
				insertChar('r');
   d505c:	2172      	movs	r1, #114	; 0x72
   d505e:	e017      	b.n	d5090 <_ZN10JsonWriter12insertStringEPKcb+0xf8>
				insertChar('\\');
				insertChar('b');
				break;

			case '\f':
				insertChar('\\');
   d5060:	215c      	movs	r1, #92	; 0x5c
   d5062:	4620      	mov	r0, r4
   d5064:	f7ff ff3a 	bl	d4edc <_ZN10JsonWriter10insertCharEc>
				insertChar('f');
   d5068:	2166      	movs	r1, #102	; 0x66
   d506a:	e011      	b.n	d5090 <_ZN10JsonWriter12insertStringEPKcb+0xf8>
				break;

			case '\n':
				insertChar('\\');
   d506c:	215c      	movs	r1, #92	; 0x5c
   d506e:	4620      	mov	r0, r4
   d5070:	f7ff ff34 	bl	d4edc <_ZN10JsonWriter10insertCharEc>
				insertChar('n');
   d5074:	216e      	movs	r1, #110	; 0x6e
   d5076:	e00b      	b.n	d5090 <_ZN10JsonWriter12insertStringEPKcb+0xf8>
				insertChar('\\');
				insertChar('r');
				break;

			case '\t':
				insertChar('\\');
   d5078:	215c      	movs	r1, #92	; 0x5c
   d507a:	4620      	mov	r0, r4
   d507c:	f7ff ff2e 	bl	d4edc <_ZN10JsonWriter10insertCharEc>
				insertChar('t');
   d5080:	2174      	movs	r1, #116	; 0x74
   d5082:	e005      	b.n	d5090 <_ZN10JsonWriter12insertStringEPKcb+0xf8>
				break;

			case '"':
			case '\\':
				insertChar('\\');
   d5084:	215c      	movs	r1, #92	; 0x5c
   d5086:	4620      	mov	r0, r4
   d5088:	f7ff ff28 	bl	d4edc <_ZN10JsonWriter10insertCharEc>
				insertChar(s[ii]);
   d508c:	f898 1000 	ldrb.w	r1, [r8]
				break;

			default:
				insertChar(s[ii]);
   d5090:	4620      	mov	r0, r4
   d5092:	f7ff ff23 	bl	d4edc <_ZN10JsonWriter10insertCharEc>

	if (quoted) {
		insertChar('"');
	}

	for(size_t ii = 0; s[ii] && offset < bufferLen; ii++) {
   d5096:	3501      	adds	r5, #1
   d5098:	e788      	b.n	d4fac <_ZN10JsonWriter12insertStringEPKcb+0x14>
				insertChar(s[ii]);
				break;
			}
		}
	}
	if (quoted) {
   d509a:	b12f      	cbz	r7, d50a8 <_ZN10JsonWriter12insertStringEPKcb+0x110>
		insertChar('"');
   d509c:	4620      	mov	r0, r4
   d509e:	2122      	movs	r1, #34	; 0x22
	}

}
   d50a0:	e8bd 41f0 	ldmia.w	sp!, {r4, r5, r6, r7, r8, lr}
				break;
			}
		}
	}
	if (quoted) {
		insertChar('"');
   d50a4:	f7ff bf1a 	b.w	d4edc <_ZN10JsonWriter10insertCharEc>
   d50a8:	e8bd 81f0 	ldmia.w	sp!, {r4, r5, r6, r7, r8, pc}
   d50ac:	000d8e69 	.word	0x000d8e69

000d50b0 <_ZN10JsonWriter20insertCheckSeparatorEv>:
		offset = bufferLen;
		truncated = true;
	}
}

void JsonWriter::insertCheckSeparator() {
   d50b0:	6942      	ldr	r2, [r0, #20]
   d50b2:	eb00 0342 	add.w	r3, r0, r2, lsl #1
	if (context[contextIndex].isFirst) {
   d50b6:	7e1a      	ldrb	r2, [r3, #24]
   d50b8:	b112      	cbz	r2, d50c0 <_ZN10JsonWriter20insertCheckSeparatorEv+0x10>
		context[contextIndex].isFirst = false;
   d50ba:	2200      	movs	r2, #0
   d50bc:	761a      	strb	r2, [r3, #24]
   d50be:	4770      	bx	lr
	}
	else {
		insertChar(',');
   d50c0:	212c      	movs	r1, #44	; 0x2c
   d50c2:	f7ff bf0b 	b.w	d4edc <_ZN10JsonWriter10insertCharEc>
	...

000d50c8 <_ZN10JsonWriter11insertValueEd>:
	}
	else {
		insertsprintf("%f", value);
	}
}
void JsonWriter::insertValue(double value) {
   d50c8:	b507      	push	{r0, r1, r2, lr}
	if (floatPlaces >= 0) {
   d50ca:	6ac2      	ldr	r2, [r0, #44]	; 0x2c
   d50cc:	2a00      	cmp	r2, #0
   d50ce:	db07      	blt.n	d50e0 <_ZN10JsonWriter11insertValueEd+0x18>
		insertsprintf("%.*lf", floatPlaces, value);
   d50d0:	ed8d 0b00 	vstr	d0, [sp]
   d50d4:	4906      	ldr	r1, [pc, #24]	; (d50f0 <_ZN10JsonWriter11insertValueEd+0x28>)
   d50d6:	f7ff ff51 	bl	d4f7c <_ZN10JsonWriter13insertsprintfEPKcz>
	}
	else {
		insertsprintf("%lf", value);
	}
}
   d50da:	b003      	add	sp, #12
   d50dc:	f85d fb04 	ldr.w	pc, [sp], #4
void JsonWriter::insertValue(double value) {
	if (floatPlaces >= 0) {
		insertsprintf("%.*lf", floatPlaces, value);
	}
	else {
		insertsprintf("%lf", value);
   d50e0:	ec53 2b10 	vmov	r2, r3, d0
   d50e4:	4903      	ldr	r1, [pc, #12]	; (d50f4 <_ZN10JsonWriter11insertValueEd+0x2c>)
	}
}
   d50e6:	b003      	add	sp, #12
   d50e8:	f85d eb04 	ldr.w	lr, [sp], #4
void JsonWriter::insertValue(double value) {
	if (floatPlaces >= 0) {
		insertsprintf("%.*lf", floatPlaces, value);
	}
	else {
		insertsprintf("%lf", value);
   d50ec:	f7ff bf46 	b.w	d4f7c <_ZN10JsonWriter13insertsprintfEPKcz>
   d50f0:	000d8e80 	.word	0x000d8e80
   d50f4:	000d8e86 	.word	0x000d8e86

000d50f8 <_GLOBAL__sub_I__ZN10JsonBufferC2Ev>:
   d50f8:	f000 b8b6 	b.w	d5268 <HAL_Pin_Map>

000d50fc <hal_ble_stack_init>:

DYNALIB_BEGIN(hal_ble)

DYNALIB_FN(0, hal_ble, hal_ble_lock, int(void*))
DYNALIB_FN(1, hal_ble, hal_ble_unlock, int(void*))
DYNALIB_FN(2, hal_ble, hal_ble_stack_init, int(void*))
   d50fc:	b508      	push	{r3, lr}
   d50fe:	4b02      	ldr	r3, [pc, #8]	; (d5108 <hal_ble_stack_init+0xc>)
   d5100:	681b      	ldr	r3, [r3, #0]
   d5102:	689b      	ldr	r3, [r3, #8]
   d5104:	9301      	str	r3, [sp, #4]
   d5106:	bd08      	pop	{r3, pc}
   d5108:	00030278 	.word	0x00030278

000d510c <hal_ble_gap_set_advertising_data>:
DYNALIB_FN(15, hal_ble, hal_ble_gap_delete_whitelist, int(void*))
DYNALIB_FN(16, hal_ble, hal_ble_gap_set_tx_power, int(int8_t, void*))
DYNALIB_FN(17, hal_ble, hal_ble_gap_get_tx_power, int(int8_t*, void*))
DYNALIB_FN(18, hal_ble, hal_ble_gap_set_advertising_parameters, int(const hal_ble_adv_params_t*, void*))
DYNALIB_FN(19, hal_ble, hal_ble_gap_get_advertising_parameters, int(hal_ble_adv_params_t*, void*))
DYNALIB_FN(20, hal_ble, hal_ble_gap_set_advertising_data, int(const uint8_t*, size_t, void*))
   d510c:	b508      	push	{r3, lr}
   d510e:	4b02      	ldr	r3, [pc, #8]	; (d5118 <hal_ble_gap_set_advertising_data+0xc>)
   d5110:	681b      	ldr	r3, [r3, #0]
   d5112:	6d1b      	ldr	r3, [r3, #80]	; 0x50
   d5114:	9301      	str	r3, [sp, #4]
   d5116:	bd08      	pop	{r3, pc}
   d5118:	00030278 	.word	0x00030278

000d511c <hal_ble_gap_set_scan_response_data>:
DYNALIB_FN(21, hal_ble, hal_ble_gap_get_advertising_data, ssize_t(uint8_t*, size_t, void*))
DYNALIB_FN(22, hal_ble, hal_ble_gap_set_scan_response_data, int(const uint8_t*, size_t, void*))
   d511c:	b508      	push	{r3, lr}
   d511e:	4b02      	ldr	r3, [pc, #8]	; (d5128 <hal_ble_gap_set_scan_response_data+0xc>)
   d5120:	681b      	ldr	r3, [r3, #0]
   d5122:	6d9b      	ldr	r3, [r3, #88]	; 0x58
   d5124:	9301      	str	r3, [sp, #4]
   d5126:	bd08      	pop	{r3, pc}
   d5128:	00030278 	.word	0x00030278

000d512c <hal_ble_gap_start_advertising>:
DYNALIB_FN(23, hal_ble, hal_ble_gap_get_scan_response_data, ssize_t(uint8_t*, size_t, void*))
DYNALIB_FN(24, hal_ble, hal_ble_gap_start_advertising, int(void*))
   d512c:	b508      	push	{r3, lr}
   d512e:	4b02      	ldr	r3, [pc, #8]	; (d5138 <hal_ble_gap_start_advertising+0xc>)
   d5130:	681b      	ldr	r3, [r3, #0]
   d5132:	6e1b      	ldr	r3, [r3, #96]	; 0x60
   d5134:	9301      	str	r3, [sp, #4]
   d5136:	bd08      	pop	{r3, pc}
   d5138:	00030278 	.word	0x00030278

000d513c <hal_ble_gap_disconnect>:
DYNALIB_FN(33, hal_ble, hal_ble_gap_stop_scan, int(void*))
DYNALIB_FN(34, hal_ble, hal_ble_gap_connect_deprecated, int(const hal_ble_addr_t*, void*))
DYNALIB_FN(35, hal_ble, hal_ble_gap_is_connecting, bool(const hal_ble_addr_t*, void*))
DYNALIB_FN(36, hal_ble, hal_ble_gap_is_connected, bool(const hal_ble_addr_t*, void*))
DYNALIB_FN(37, hal_ble, hal_ble_gap_connect_cancel, int(const hal_ble_addr_t*, void*))
DYNALIB_FN(38, hal_ble, hal_ble_gap_disconnect, int(hal_ble_conn_handle_t, void*))
   d513c:	b508      	push	{r3, lr}
   d513e:	4b03      	ldr	r3, [pc, #12]	; (d514c <hal_ble_gap_disconnect+0x10>)
   d5140:	681b      	ldr	r3, [r3, #0]
   d5142:	f8d3 3098 	ldr.w	r3, [r3, #152]	; 0x98
   d5146:	9301      	str	r3, [sp, #4]
   d5148:	bd08      	pop	{r3, pc}
   d514a:	0000      	.short	0x0000
   d514c:	00030278 	.word	0x00030278

000d5150 <hal_ble_gatt_server_add_service>:
DYNALIB_FN(39, hal_ble, hal_ble_gap_update_connection_params, int(hal_ble_conn_handle_t, const hal_ble_conn_params_t*, void*))
DYNALIB_FN(40, hal_ble, hal_ble_gap_get_connection_params_deprecated, int(hal_ble_conn_handle_t, hal_ble_conn_params_t*, void*))
DYNALIB_FN(41, hal_ble, hal_ble_gap_get_rssi, int(hal_ble_conn_handle_t, void*))
DYNALIB_FN(42, hal_ble, hal_ble_gatt_server_add_service, int(uint8_t, const hal_ble_uuid_t*, hal_ble_attr_handle_t*, void*))
   d5150:	b508      	push	{r3, lr}
   d5152:	4b03      	ldr	r3, [pc, #12]	; (d5160 <hal_ble_gatt_server_add_service+0x10>)
   d5154:	681b      	ldr	r3, [r3, #0]
   d5156:	f8d3 30a8 	ldr.w	r3, [r3, #168]	; 0xa8
   d515a:	9301      	str	r3, [sp, #4]
   d515c:	bd08      	pop	{r3, pc}
   d515e:	0000      	.short	0x0000
   d5160:	00030278 	.word	0x00030278

000d5164 <hal_ble_gatt_server_set_characteristic_value>:
DYNALIB_FN(43, hal_ble, hal_ble_gatt_server_add_characteristic_deprecated, int(const hal_ble_char_init_deprecated_t*, hal_ble_char_handles_t*, void*))
DYNALIB_FN(44, hal_ble, hal_ble_gatt_server_add_descriptor, int(const hal_ble_desc_init_t*, hal_ble_attr_handle_t*, void*))
DYNALIB_FN(45, hal_ble, hal_ble_gatt_server_set_characteristic_value, ssize_t(hal_ble_attr_handle_t, const uint8_t*, size_t, void*))
   d5164:	b508      	push	{r3, lr}
   d5166:	4b03      	ldr	r3, [pc, #12]	; (d5174 <hal_ble_gatt_server_set_characteristic_value+0x10>)
   d5168:	681b      	ldr	r3, [r3, #0]
   d516a:	f8d3 30b4 	ldr.w	r3, [r3, #180]	; 0xb4
   d516e:	9301      	str	r3, [sp, #4]
   d5170:	bd08      	pop	{r3, pc}
   d5172:	0000      	.short	0x0000
   d5174:	00030278 	.word	0x00030278

000d5178 <hal_ble_gatt_client_write_with_response>:
DYNALIB_FN(49, hal_ble, hal_ble_gatt_client_discover_characteristics, int(hal_ble_conn_handle_t, const hal_ble_svc_t*, hal_ble_on_disc_char_cb_t, void*, void*))
DYNALIB_FN(50, hal_ble, hal_ble_gatt_client_discover_characteristics_by_uuid, int(hal_ble_conn_handle_t, const hal_ble_svc_t*, const hal_ble_uuid_t*, hal_ble_on_disc_char_cb_t, void*, void*))
DYNALIB_FN(51, hal_ble, hal_ble_gatt_client_is_discovering, bool(hal_ble_conn_handle_t, void*))
DYNALIB_FN(52, hal_ble, hal_ble_gatt_set_att_mtu, int(size_t, void*))
DYNALIB_FN(53, hal_ble, hal_ble_gatt_client_configure_cccd_deprecated, int(hal_ble_conn_handle_t, hal_ble_attr_handle_t, ble_sig_cccd_value_t, void*))
DYNALIB_FN(54, hal_ble, hal_ble_gatt_client_write_with_response, ssize_t(hal_ble_conn_handle_t, hal_ble_attr_handle_t, const uint8_t*, size_t, void*))
   d5178:	b508      	push	{r3, lr}
   d517a:	4b03      	ldr	r3, [pc, #12]	; (d5188 <hal_ble_gatt_client_write_with_response+0x10>)
   d517c:	681b      	ldr	r3, [r3, #0]
   d517e:	f8d3 30d8 	ldr.w	r3, [r3, #216]	; 0xd8
   d5182:	9301      	str	r3, [sp, #4]
   d5184:	bd08      	pop	{r3, pc}
   d5186:	0000      	.short	0x0000
   d5188:	00030278 	.word	0x00030278

000d518c <hal_ble_gatt_client_write_without_response>:
DYNALIB_FN(55, hal_ble, hal_ble_gatt_client_write_without_response, ssize_t(hal_ble_conn_handle_t, hal_ble_attr_handle_t, const uint8_t*, size_t, void*))
   d518c:	b508      	push	{r3, lr}
   d518e:	4b03      	ldr	r3, [pc, #12]	; (d519c <hal_ble_gatt_client_write_without_response+0x10>)
   d5190:	681b      	ldr	r3, [r3, #0]
   d5192:	f8d3 30dc 	ldr.w	r3, [r3, #220]	; 0xdc
   d5196:	9301      	str	r3, [sp, #4]
   d5198:	bd08      	pop	{r3, pc}
   d519a:	0000      	.short	0x0000
   d519c:	00030278 	.word	0x00030278

000d51a0 <hal_ble_gatt_server_add_characteristic>:
DYNALIB_FN(56, hal_ble, hal_ble_gatt_client_read, ssize_t(hal_ble_conn_handle_t, hal_ble_attr_handle_t, uint8_t*, size_t, void*))

DYNALIB_FN(57, hal_ble, hal_ble_gap_connect, int(const hal_ble_conn_cfg_t*, hal_ble_conn_handle_t*, void*))
DYNALIB_FN(58, hal_ble, hal_ble_gap_get_connection_info, int(hal_ble_conn_handle_t, hal_ble_conn_info_t*, void*))
DYNALIB_FN(59, hal_ble, hal_ble_gatt_server_add_characteristic, int(const hal_ble_char_init_t*, hal_ble_char_handles_t*, void*))
   d51a0:	b508      	push	{r3, lr}
   d51a2:	4b03      	ldr	r3, [pc, #12]	; (d51b0 <hal_ble_gatt_server_add_characteristic+0x10>)
   d51a4:	681b      	ldr	r3, [r3, #0]
   d51a6:	f8d3 30ec 	ldr.w	r3, [r3, #236]	; 0xec
   d51aa:	9301      	str	r3, [sp, #4]
   d51ac:	bd08      	pop	{r3, pc}
   d51ae:	0000      	.short	0x0000
   d51b0:	00030278 	.word	0x00030278

000d51b4 <hal_ble_set_callback_on_periph_link_events>:
DYNALIB_FN(60, hal_ble, hal_ble_set_callback_on_periph_link_events, int(hal_ble_on_link_evt_cb_t, void*, void*))
   d51b4:	b508      	push	{r3, lr}
   d51b6:	4b03      	ldr	r3, [pc, #12]	; (d51c4 <hal_ble_set_callback_on_periph_link_events+0x10>)
   d51b8:	681b      	ldr	r3, [r3, #0]
   d51ba:	f8d3 30f0 	ldr.w	r3, [r3, #240]	; 0xf0
   d51be:	9301      	str	r3, [sp, #4]
   d51c0:	bd08      	pop	{r3, pc}
   d51c2:	0000      	.short	0x0000
   d51c4:	00030278 	.word	0x00030278

000d51c8 <os_thread_is_current>:
DYNALIB_BEGIN(hal_concurrent)

#if PLATFORM_THREADING
DYNALIB_FN(0, hal_concurrent, __gthread_equal, bool(__gthread_t, __gthread_t))
DYNALIB_FN(1, hal_concurrent, os_thread_create, os_result_t(os_thread_t*, const char*, os_thread_prio_t, os_thread_fn_t, void*, size_t))
DYNALIB_FN(2, hal_concurrent, os_thread_is_current, bool(os_thread_t))
   d51c8:	b508      	push	{r3, lr}
   d51ca:	4b02      	ldr	r3, [pc, #8]	; (d51d4 <os_thread_is_current+0xc>)
   d51cc:	681b      	ldr	r3, [r3, #0]
   d51ce:	689b      	ldr	r3, [r3, #8]
   d51d0:	9301      	str	r3, [sp, #4]
   d51d2:	bd08      	pop	{r3, pc}
   d51d4:	00030248 	.word	0x00030248

000d51d8 <os_thread_join>:
DYNALIB_FN(3, hal_concurrent, os_thread_yield, os_result_t(void))
DYNALIB_FN(4, hal_concurrent, os_thread_join, os_result_t(os_thread_t))
   d51d8:	b508      	push	{r3, lr}
   d51da:	4b02      	ldr	r3, [pc, #8]	; (d51e4 <os_thread_join+0xc>)
   d51dc:	681b      	ldr	r3, [r3, #0]
   d51de:	691b      	ldr	r3, [r3, #16]
   d51e0:	9301      	str	r3, [sp, #4]
   d51e2:	bd08      	pop	{r3, pc}
   d51e4:	00030248 	.word	0x00030248

000d51e8 <os_thread_cleanup>:
DYNALIB_FN(5, hal_concurrent, os_thread_cleanup, os_result_t(os_thread_t))
   d51e8:	b508      	push	{r3, lr}
   d51ea:	4b02      	ldr	r3, [pc, #8]	; (d51f4 <os_thread_cleanup+0xc>)
   d51ec:	681b      	ldr	r3, [r3, #0]
   d51ee:	695b      	ldr	r3, [r3, #20]
   d51f0:	9301      	str	r3, [sp, #4]
   d51f2:	bd08      	pop	{r3, pc}
   d51f4:	00030248 	.word	0x00030248

000d51f8 <os_mutex_create>:
DYNALIB_FN(8, hal_concurrent, os_timer_create, int(os_timer_t*, unsigned, void(*)(os_timer_t), void*, bool, void*))
DYNALIB_FN(9, hal_concurrent, os_timer_destroy, int(os_timer_t, void*))
DYNALIB_FN(10, hal_concurrent, os_timer_get_id, int(os_timer_t, void**))
DYNALIB_FN(11, hal_concurrent, os_timer_change, int(os_timer_t, os_timer_change_t, bool, unsigned, unsigned, void*))

DYNALIB_FN(12, hal_concurrent, os_mutex_create, int(os_mutex_t*))
   d51f8:	b508      	push	{r3, lr}
   d51fa:	4b02      	ldr	r3, [pc, #8]	; (d5204 <os_mutex_create+0xc>)
   d51fc:	681b      	ldr	r3, [r3, #0]
   d51fe:	6b1b      	ldr	r3, [r3, #48]	; 0x30
   d5200:	9301      	str	r3, [sp, #4]
   d5202:	bd08      	pop	{r3, pc}
   d5204:	00030248 	.word	0x00030248

000d5208 <os_mutex_recursive_create>:
DYNALIB_FN(13, hal_concurrent, os_mutex_destroy, int(os_mutex_t))
DYNALIB_FN(14, hal_concurrent, os_mutex_lock, int(os_mutex_t))
DYNALIB_FN(15, hal_concurrent, os_mutex_trylock, int(os_mutex_t))
DYNALIB_FN(16, hal_concurrent, os_mutex_unlock, int(os_mutex_t))

DYNALIB_FN(17, hal_concurrent, os_mutex_recursive_create, int(os_mutex_recursive_t*))
   d5208:	b508      	push	{r3, lr}
   d520a:	4b02      	ldr	r3, [pc, #8]	; (d5214 <os_mutex_recursive_create+0xc>)
   d520c:	681b      	ldr	r3, [r3, #0]
   d520e:	6c5b      	ldr	r3, [r3, #68]	; 0x44
   d5210:	9301      	str	r3, [sp, #4]
   d5212:	bd08      	pop	{r3, pc}
   d5214:	00030248 	.word	0x00030248

000d5218 <os_mutex_recursive_lock>:
DYNALIB_FN(18, hal_concurrent, os_mutex_recursive_destroy, int(os_mutex_recursive_t))
DYNALIB_FN(19, hal_concurrent, os_mutex_recursive_lock, int(os_mutex_recursive_t))
   d5218:	b508      	push	{r3, lr}
   d521a:	4b02      	ldr	r3, [pc, #8]	; (d5224 <os_mutex_recursive_lock+0xc>)
   d521c:	681b      	ldr	r3, [r3, #0]
   d521e:	6cdb      	ldr	r3, [r3, #76]	; 0x4c
   d5220:	9301      	str	r3, [sp, #4]
   d5222:	bd08      	pop	{r3, pc}
   d5224:	00030248 	.word	0x00030248

000d5228 <os_mutex_recursive_unlock>:
DYNALIB_FN(20, hal_concurrent, os_mutex_recursive_trylock, int(os_mutex_recursive_t))
DYNALIB_FN(21, hal_concurrent, os_mutex_recursive_unlock, int(os_mutex_recursive_t))
   d5228:	b508      	push	{r3, lr}
   d522a:	4b02      	ldr	r3, [pc, #8]	; (d5234 <os_mutex_recursive_unlock+0xc>)
   d522c:	681b      	ldr	r3, [r3, #0]
   d522e:	6d5b      	ldr	r3, [r3, #84]	; 0x54
   d5230:	9301      	str	r3, [sp, #4]
   d5232:	bd08      	pop	{r3, pc}
   d5234:	00030248 	.word	0x00030248

000d5238 <HAL_RNG_GetRandomNumber>:

DYNALIB_BEGIN(hal)

#if PLATFORM_ID > 3
DYNALIB_FN(0, hal, HAL_RNG_Configuration, void(void))
DYNALIB_FN(1, hal, HAL_RNG_GetRandomNumber, uint32_t(void))
   d5238:	b508      	push	{r3, lr}
   d523a:	4b02      	ldr	r3, [pc, #8]	; (d5244 <HAL_RNG_GetRandomNumber+0xc>)
   d523c:	681b      	ldr	r3, [r3, #0]
   d523e:	685b      	ldr	r3, [r3, #4]
   d5240:	9301      	str	r3, [sp, #4]
   d5242:	bd08      	pop	{r3, pc}
   d5244:	00030218 	.word	0x00030218

000d5248 <HAL_Delay_Microseconds>:
#else
#define BASE_IDX 0
#endif

DYNALIB_FN(BASE_IDX + 0, hal, HAL_Delay_Milliseconds, void(uint32_t))
DYNALIB_FN(BASE_IDX + 1, hal, HAL_Delay_Microseconds, void(uint32_t))
   d5248:	b508      	push	{r3, lr}
   d524a:	4b02      	ldr	r3, [pc, #8]	; (d5254 <HAL_Delay_Microseconds+0xc>)
   d524c:	681b      	ldr	r3, [r3, #0]
   d524e:	68db      	ldr	r3, [r3, #12]
   d5250:	9301      	str	r3, [sp, #4]
   d5252:	bd08      	pop	{r3, pc}
   d5254:	00030218 	.word	0x00030218

000d5258 <HAL_Timer_Get_Milli_Seconds>:
DYNALIB_FN(BASE_IDX + 2, hal, HAL_Timer_Get_Micro_Seconds, system_tick_t(void))
DYNALIB_FN(BASE_IDX + 3, hal, HAL_Timer_Get_Milli_Seconds, system_tick_t(void))
   d5258:	b508      	push	{r3, lr}
   d525a:	4b02      	ldr	r3, [pc, #8]	; (d5264 <HAL_Timer_Get_Milli_Seconds+0xc>)
   d525c:	681b      	ldr	r3, [r3, #0]
   d525e:	695b      	ldr	r3, [r3, #20]
   d5260:	9301      	str	r3, [sp, #4]
   d5262:	bd08      	pop	{r3, pc}
   d5264:	00030218 	.word	0x00030218

000d5268 <HAL_Pin_Map>:
// New HAL functions must be added to the end of this list.
// GNINRAW

DYNALIB_BEGIN(hal_gpio)

DYNALIB_FN(0, hal_gpio, HAL_Pin_Map, Hal_Pin_Info*(void))
   d5268:	b508      	push	{r3, lr}
   d526a:	4b02      	ldr	r3, [pc, #8]	; (d5274 <HAL_Pin_Map+0xc>)
   d526c:	681b      	ldr	r3, [r3, #0]
   d526e:	681b      	ldr	r3, [r3, #0]
   d5270:	9301      	str	r3, [sp, #4]
   d5272:	bd08      	pop	{r3, pc}
   d5274:	0003022c 	.word	0x0003022c

000d5278 <HAL_Validate_Pin_Function>:
DYNALIB_FN(1, hal_gpio, HAL_Validate_Pin_Function, PinFunction(pin_t, PinFunction))
   d5278:	b508      	push	{r3, lr}
   d527a:	4b02      	ldr	r3, [pc, #8]	; (d5284 <HAL_Validate_Pin_Function+0xc>)
   d527c:	681b      	ldr	r3, [r3, #0]
   d527e:	685b      	ldr	r3, [r3, #4]
   d5280:	9301      	str	r3, [sp, #4]
   d5282:	bd08      	pop	{r3, pc}
   d5284:	0003022c 	.word	0x0003022c

000d5288 <HAL_Pin_Mode>:
DYNALIB_FN(2, hal_gpio, HAL_Pin_Mode, void(pin_t, PinMode))
   d5288:	b508      	push	{r3, lr}
   d528a:	4b02      	ldr	r3, [pc, #8]	; (d5294 <HAL_Pin_Mode+0xc>)
   d528c:	681b      	ldr	r3, [r3, #0]
   d528e:	689b      	ldr	r3, [r3, #8]
   d5290:	9301      	str	r3, [sp, #4]
   d5292:	bd08      	pop	{r3, pc}
   d5294:	0003022c 	.word	0x0003022c

000d5298 <HAL_Get_Pin_Mode>:
DYNALIB_FN(3, hal_gpio, HAL_Get_Pin_Mode, PinMode(pin_t))
   d5298:	b508      	push	{r3, lr}
   d529a:	4b02      	ldr	r3, [pc, #8]	; (d52a4 <HAL_Get_Pin_Mode+0xc>)
   d529c:	681b      	ldr	r3, [r3, #0]
   d529e:	68db      	ldr	r3, [r3, #12]
   d52a0:	9301      	str	r3, [sp, #4]
   d52a2:	bd08      	pop	{r3, pc}
   d52a4:	0003022c 	.word	0x0003022c

000d52a8 <HAL_GPIO_Write>:
DYNALIB_FN(4, hal_gpio, HAL_GPIO_Write, void(pin_t, uint8_t))
   d52a8:	b508      	push	{r3, lr}
   d52aa:	4b02      	ldr	r3, [pc, #8]	; (d52b4 <HAL_GPIO_Write+0xc>)
   d52ac:	681b      	ldr	r3, [r3, #0]
   d52ae:	691b      	ldr	r3, [r3, #16]
   d52b0:	9301      	str	r3, [sp, #4]
   d52b2:	bd08      	pop	{r3, pc}
   d52b4:	0003022c 	.word	0x0003022c

000d52b8 <HAL_Interrupts_Enable_All>:
DYNALIB_FN(5, hal_gpio, HAL_GPIO_Read, int32_t(pin_t))
DYNALIB_FN(6, hal_gpio, HAL_Interrupts_Attach, void(uint16_t, HAL_InterruptHandler, void*, InterruptMode, HAL_InterruptExtraConfiguration*))
DYNALIB_FN(7, hal_gpio, HAL_Interrupts_Detach, void(uint16_t))
DYNALIB_FN(8, hal_gpio, HAL_Interrupts_Enable_All, void(void))
   d52b8:	b508      	push	{r3, lr}
   d52ba:	4b02      	ldr	r3, [pc, #8]	; (d52c4 <HAL_Interrupts_Enable_All+0xc>)
   d52bc:	681b      	ldr	r3, [r3, #0]
   d52be:	6a1b      	ldr	r3, [r3, #32]
   d52c0:	9301      	str	r3, [sp, #4]
   d52c2:	bd08      	pop	{r3, pc}
   d52c4:	0003022c 	.word	0x0003022c

000d52c8 <HAL_Interrupts_Disable_All>:
DYNALIB_FN(9, hal_gpio, HAL_Interrupts_Disable_All, void(void))
   d52c8:	b508      	push	{r3, lr}
   d52ca:	4b02      	ldr	r3, [pc, #8]	; (d52d4 <HAL_Interrupts_Disable_All+0xc>)
   d52cc:	681b      	ldr	r3, [r3, #0]
   d52ce:	6a5b      	ldr	r3, [r3, #36]	; 0x24
   d52d0:	9301      	str	r3, [sp, #4]
   d52d2:	bd08      	pop	{r3, pc}
   d52d4:	0003022c 	.word	0x0003022c

000d52d8 <HAL_ADC_Read>:

DYNALIB_FN(10, hal_gpio, HAL_DAC_Write, void(pin_t, uint16_t))
DYNALIB_FN(11, hal_gpio, HAL_ADC_Set_Sample_Time, void(uint8_t))
DYNALIB_FN(12, hal_gpio, HAL_ADC_Read, int32_t(uint16_t))
   d52d8:	b508      	push	{r3, lr}
   d52da:	4b02      	ldr	r3, [pc, #8]	; (d52e4 <HAL_ADC_Read+0xc>)
   d52dc:	681b      	ldr	r3, [r3, #0]
   d52de:	6b1b      	ldr	r3, [r3, #48]	; 0x30
   d52e0:	9301      	str	r3, [sp, #4]
   d52e2:	bd08      	pop	{r3, pc}
   d52e4:	0003022c 	.word	0x0003022c

000d52e8 <HAL_I2C_Write_Data>:
DYNALIB_FN(BASE_IDX + 3, hal_i2c, HAL_I2C_Begin, void(HAL_I2C_Interface, I2C_Mode, uint8_t, void*))
DYNALIB_FN(BASE_IDX + 4, hal_i2c, HAL_I2C_End, void(HAL_I2C_Interface, void*))
DYNALIB_FN(BASE_IDX + 5, hal_i2c, HAL_I2C_Request_Data, uint32_t(HAL_I2C_Interface, uint8_t, uint8_t, uint8_t, void*))
DYNALIB_FN(BASE_IDX + 6, hal_i2c, HAL_I2C_Begin_Transmission, void(HAL_I2C_Interface, uint8_t, void*))
DYNALIB_FN(BASE_IDX + 7, hal_i2c, HAL_I2C_End_Transmission, uint8_t(HAL_I2C_Interface, uint8_t, void*))
DYNALIB_FN(BASE_IDX + 8, hal_i2c, HAL_I2C_Write_Data, uint32_t(HAL_I2C_Interface, uint8_t, void*))
   d52e8:	b508      	push	{r3, lr}
   d52ea:	4b02      	ldr	r3, [pc, #8]	; (d52f4 <HAL_I2C_Write_Data+0xc>)
   d52ec:	681b      	ldr	r3, [r3, #0]
   d52ee:	6a1b      	ldr	r3, [r3, #32]
   d52f0:	9301      	str	r3, [sp, #4]
   d52f2:	bd08      	pop	{r3, pc}
   d52f4:	00030228 	.word	0x00030228

000d52f8 <HAL_I2C_Available_Data>:
DYNALIB_FN(BASE_IDX + 9, hal_i2c, HAL_I2C_Available_Data, int32_t(HAL_I2C_Interface, void*))
   d52f8:	b508      	push	{r3, lr}
   d52fa:	4b02      	ldr	r3, [pc, #8]	; (d5304 <HAL_I2C_Available_Data+0xc>)
   d52fc:	681b      	ldr	r3, [r3, #0]
   d52fe:	6a5b      	ldr	r3, [r3, #36]	; 0x24
   d5300:	9301      	str	r3, [sp, #4]
   d5302:	bd08      	pop	{r3, pc}
   d5304:	00030228 	.word	0x00030228

000d5308 <HAL_I2C_Read_Data>:
DYNALIB_FN(BASE_IDX + 10, hal_i2c, HAL_I2C_Read_Data, int32_t(HAL_I2C_Interface, void*))
   d5308:	b508      	push	{r3, lr}
   d530a:	4b02      	ldr	r3, [pc, #8]	; (d5314 <HAL_I2C_Read_Data+0xc>)
   d530c:	681b      	ldr	r3, [r3, #0]
   d530e:	6a9b      	ldr	r3, [r3, #40]	; 0x28
   d5310:	9301      	str	r3, [sp, #4]
   d5312:	bd08      	pop	{r3, pc}
   d5314:	00030228 	.word	0x00030228

000d5318 <HAL_I2C_Peek_Data>:
DYNALIB_FN(BASE_IDX + 11, hal_i2c, HAL_I2C_Peek_Data, int32_t(HAL_I2C_Interface, void*))
   d5318:	b508      	push	{r3, lr}
   d531a:	4b02      	ldr	r3, [pc, #8]	; (d5324 <HAL_I2C_Peek_Data+0xc>)
   d531c:	681b      	ldr	r3, [r3, #0]
   d531e:	6adb      	ldr	r3, [r3, #44]	; 0x2c
   d5320:	9301      	str	r3, [sp, #4]
   d5322:	bd08      	pop	{r3, pc}
   d5324:	00030228 	.word	0x00030228

000d5328 <HAL_I2C_Flush_Data>:
DYNALIB_FN(BASE_IDX + 12, hal_i2c, HAL_I2C_Flush_Data, void(HAL_I2C_Interface, void*))
   d5328:	b508      	push	{r3, lr}
   d532a:	4b02      	ldr	r3, [pc, #8]	; (d5334 <HAL_I2C_Flush_Data+0xc>)
   d532c:	681b      	ldr	r3, [r3, #0]
   d532e:	6b1b      	ldr	r3, [r3, #48]	; 0x30
   d5330:	9301      	str	r3, [sp, #4]
   d5332:	bd08      	pop	{r3, pc}
   d5334:	00030228 	.word	0x00030228

000d5338 <HAL_I2C_Is_Enabled>:
DYNALIB_FN(BASE_IDX + 13, hal_i2c, HAL_I2C_Is_Enabled, bool(HAL_I2C_Interface, void*))
   d5338:	b508      	push	{r3, lr}
   d533a:	4b02      	ldr	r3, [pc, #8]	; (d5344 <HAL_I2C_Is_Enabled+0xc>)
   d533c:	681b      	ldr	r3, [r3, #0]
   d533e:	6b5b      	ldr	r3, [r3, #52]	; 0x34
   d5340:	9301      	str	r3, [sp, #4]
   d5342:	bd08      	pop	{r3, pc}
   d5344:	00030228 	.word	0x00030228

000d5348 <HAL_I2C_Init>:
DYNALIB_FN(BASE_IDX + 14, hal_i2c, HAL_I2C_Set_Callback_On_Receive, void(HAL_I2C_Interface, void(*)(int), void*))
DYNALIB_FN(BASE_IDX + 15, hal_i2c, HAL_I2C_Set_Callback_On_Request, void(HAL_I2C_Interface, void(*)(void), void*))
DYNALIB_FN(BASE_IDX + 16, hal_i2c, HAL_I2C_Init, void(HAL_I2C_Interface, void*))
   d5348:	b508      	push	{r3, lr}
   d534a:	4b02      	ldr	r3, [pc, #8]	; (d5354 <HAL_I2C_Init+0xc>)
   d534c:	681b      	ldr	r3, [r3, #0]
   d534e:	6c1b      	ldr	r3, [r3, #64]	; 0x40
   d5350:	9301      	str	r3, [sp, #4]
   d5352:	bd08      	pop	{r3, pc}
   d5354:	00030228 	.word	0x00030228

000d5358 <inet_inet_ntop>:
DYNALIB_FN(0, hal_inet, inet_inet_addr, in_addr_t(const char*))
DYNALIB_FN(1, hal_inet, inet_inet_aton, int(const char*, struct in_addr*))
DYNALIB_FN(2, hal_inet, inet_inet_network, in_addr_t(const char*))
DYNALIB_FN(3, hal_inet, inet_inet_ntoa, char*(struct in_addr))
DYNALIB_FN(4, hal_inet, inet_inet_ntoa_r, char*(struct in_addr, char*, socklen_t))
DYNALIB_FN(5, hal_inet, inet_inet_ntop, const char*(int, const void*, char*, socklen_t))
   d5358:	b508      	push	{r3, lr}
   d535a:	4b02      	ldr	r3, [pc, #8]	; (d5364 <inet_inet_ntop+0xc>)
   d535c:	681b      	ldr	r3, [r3, #0]
   d535e:	695b      	ldr	r3, [r3, #20]
   d5360:	9301      	str	r3, [sp, #4]
   d5362:	bd08      	pop	{r3, pc}
   d5364:	00030264 	.word	0x00030264

000d5368 <netdb_freeaddrinfo>:

DYNALIB_BEGIN(hal_netdb)

DYNALIB_FN(0, hal_netdb, netdb_gethostbyname, struct hostent*(const char*))
DYNALIB_FN(1, hal_netdb, netdb_gethostbyname_r, int(const char*, struct hostent*, char*, size_t, struct hostent**, int*))
DYNALIB_FN(2, hal_netdb, netdb_freeaddrinfo, void(struct addrinfo*))
   d5368:	b508      	push	{r3, lr}
   d536a:	4b02      	ldr	r3, [pc, #8]	; (d5374 <netdb_freeaddrinfo+0xc>)
   d536c:	681b      	ldr	r3, [r3, #0]
   d536e:	689b      	ldr	r3, [r3, #8]
   d5370:	9301      	str	r3, [sp, #4]
   d5372:	bd08      	pop	{r3, pc}
   d5374:	00030268 	.word	0x00030268

000d5378 <netdb_getaddrinfo>:
DYNALIB_FN(3, hal_netdb, netdb_getaddrinfo, int(const char*, const char*, const struct addrinfo*, struct addrinfo**))
   d5378:	b508      	push	{r3, lr}
   d537a:	4b02      	ldr	r3, [pc, #8]	; (d5384 <netdb_getaddrinfo+0xc>)
   d537c:	681b      	ldr	r3, [r3, #0]
   d537e:	68db      	ldr	r3, [r3, #12]
   d5380:	9301      	str	r3, [sp, #4]
   d5382:	bd08      	pop	{r3, pc}
   d5384:	00030268 	.word	0x00030268

000d5388 <HAL_SPI_Init>:
DYNALIB_FN(2, hal_spi, HAL_SPI_Set_Bit_Order, void(HAL_SPI_Interface, uint8_t))
DYNALIB_FN(3, hal_spi, HAL_SPI_Set_Data_Mode, void(HAL_SPI_Interface, uint8_t))
DYNALIB_FN(4, hal_spi, HAL_SPI_Set_Clock_Divider, void(HAL_SPI_Interface, uint8_t))
DYNALIB_FN(5, hal_spi, HAL_SPI_Send_Receive_Data, uint16_t(HAL_SPI_Interface, uint16_t))
DYNALIB_FN(6, hal_spi, HAL_SPI_Is_Enabled_Old, bool(void))
DYNALIB_FN(7, hal_spi, HAL_SPI_Init, void(HAL_SPI_Interface))
   d5388:	b508      	push	{r3, lr}
   d538a:	4b02      	ldr	r3, [pc, #8]	; (d5394 <HAL_SPI_Init+0xc>)
   d538c:	681b      	ldr	r3, [r3, #0]
   d538e:	69db      	ldr	r3, [r3, #28]
   d5390:	9301      	str	r3, [sp, #4]
   d5392:	bd08      	pop	{r3, pc}
   d5394:	00030230 	.word	0x00030230

000d5398 <HAL_SPI_Is_Enabled>:
DYNALIB_FN(8, hal_spi, HAL_SPI_Is_Enabled, bool(HAL_SPI_Interface))
   d5398:	b508      	push	{r3, lr}
   d539a:	4b02      	ldr	r3, [pc, #8]	; (d53a4 <HAL_SPI_Is_Enabled+0xc>)
   d539c:	681b      	ldr	r3, [r3, #0]
   d539e:	6a1b      	ldr	r3, [r3, #32]
   d53a0:	9301      	str	r3, [sp, #4]
   d53a2:	bd08      	pop	{r3, pc}
   d53a4:	00030230 	.word	0x00030230

000d53a8 <HAL_USART_Init>:
#define BASE_IDX 6 // Base index for all subsequent functions
#else
#define BASE_IDX 0
#endif

DYNALIB_FN(BASE_IDX + 0, hal_usart, HAL_USART_Init, void(HAL_USART_Serial, Ring_Buffer*, Ring_Buffer*))
   d53a8:	b508      	push	{r3, lr}
   d53aa:	4b02      	ldr	r3, [pc, #8]	; (d53b4 <HAL_USART_Init+0xc>)
   d53ac:	681b      	ldr	r3, [r3, #0]
   d53ae:	681b      	ldr	r3, [r3, #0]
   d53b0:	9301      	str	r3, [sp, #4]
   d53b2:	bd08      	pop	{r3, pc}
   d53b4:	0003023c 	.word	0x0003023c

000d53b8 <HAL_USART_Write_Data>:
DYNALIB_FN(BASE_IDX + 1, hal_usart, HAL_USART_Begin, void(HAL_USART_Serial, uint32_t))
DYNALIB_FN(BASE_IDX + 2, hal_usart, HAL_USART_End, void(HAL_USART_Serial))
DYNALIB_FN(BASE_IDX + 3, hal_usart, HAL_USART_Write_Data, uint32_t(HAL_USART_Serial, uint8_t))
   d53b8:	b508      	push	{r3, lr}
   d53ba:	4b02      	ldr	r3, [pc, #8]	; (d53c4 <HAL_USART_Write_Data+0xc>)
   d53bc:	681b      	ldr	r3, [r3, #0]
   d53be:	68db      	ldr	r3, [r3, #12]
   d53c0:	9301      	str	r3, [sp, #4]
   d53c2:	bd08      	pop	{r3, pc}
   d53c4:	0003023c 	.word	0x0003023c

000d53c8 <HAL_USART_Available_Data>:
DYNALIB_FN(BASE_IDX + 4, hal_usart, HAL_USART_Available_Data, int32_t(HAL_USART_Serial))
   d53c8:	b508      	push	{r3, lr}
   d53ca:	4b02      	ldr	r3, [pc, #8]	; (d53d4 <HAL_USART_Available_Data+0xc>)
   d53cc:	681b      	ldr	r3, [r3, #0]
   d53ce:	691b      	ldr	r3, [r3, #16]
   d53d0:	9301      	str	r3, [sp, #4]
   d53d2:	bd08      	pop	{r3, pc}
   d53d4:	0003023c 	.word	0x0003023c

000d53d8 <HAL_USART_Read_Data>:
DYNALIB_FN(BASE_IDX + 5, hal_usart, HAL_USART_Read_Data, int32_t(HAL_USART_Serial))
   d53d8:	b508      	push	{r3, lr}
   d53da:	4b02      	ldr	r3, [pc, #8]	; (d53e4 <HAL_USART_Read_Data+0xc>)
   d53dc:	681b      	ldr	r3, [r3, #0]
   d53de:	695b      	ldr	r3, [r3, #20]
   d53e0:	9301      	str	r3, [sp, #4]
   d53e2:	bd08      	pop	{r3, pc}
   d53e4:	0003023c 	.word	0x0003023c

000d53e8 <HAL_USART_Peek_Data>:
DYNALIB_FN(BASE_IDX + 6, hal_usart, HAL_USART_Peek_Data, int32_t(HAL_USART_Serial))
   d53e8:	b508      	push	{r3, lr}
   d53ea:	4b02      	ldr	r3, [pc, #8]	; (d53f4 <HAL_USART_Peek_Data+0xc>)
   d53ec:	681b      	ldr	r3, [r3, #0]
   d53ee:	699b      	ldr	r3, [r3, #24]
   d53f0:	9301      	str	r3, [sp, #4]
   d53f2:	bd08      	pop	{r3, pc}
   d53f4:	0003023c 	.word	0x0003023c

000d53f8 <HAL_USART_Flush_Data>:
DYNALIB_FN(BASE_IDX + 7, hal_usart, HAL_USART_Flush_Data, void(HAL_USART_Serial))
   d53f8:	b508      	push	{r3, lr}
   d53fa:	4b02      	ldr	r3, [pc, #8]	; (d5404 <HAL_USART_Flush_Data+0xc>)
   d53fc:	681b      	ldr	r3, [r3, #0]
   d53fe:	69db      	ldr	r3, [r3, #28]
   d5400:	9301      	str	r3, [sp, #4]
   d5402:	bd08      	pop	{r3, pc}
   d5404:	0003023c 	.word	0x0003023c

000d5408 <HAL_USART_Is_Enabled>:
DYNALIB_FN(BASE_IDX + 8, hal_usart, HAL_USART_Is_Enabled, bool(HAL_USART_Serial))
   d5408:	b508      	push	{r3, lr}
   d540a:	4b02      	ldr	r3, [pc, #8]	; (d5414 <HAL_USART_Is_Enabled+0xc>)
   d540c:	681b      	ldr	r3, [r3, #0]
   d540e:	6a1b      	ldr	r3, [r3, #32]
   d5410:	9301      	str	r3, [sp, #4]
   d5412:	bd08      	pop	{r3, pc}
   d5414:	0003023c 	.word	0x0003023c

000d5418 <HAL_USART_Available_Data_For_Write>:
DYNALIB_FN(BASE_IDX + 9, hal_usart, HAL_USART_Half_Duplex, void(HAL_USART_Serial, bool))
DYNALIB_FN(BASE_IDX + 10, hal_usart, HAL_USART_Available_Data_For_Write, int32_t(HAL_USART_Serial))
   d5418:	b508      	push	{r3, lr}
   d541a:	4b02      	ldr	r3, [pc, #8]	; (d5424 <HAL_USART_Available_Data_For_Write+0xc>)
   d541c:	681b      	ldr	r3, [r3, #0]
   d541e:	6a9b      	ldr	r3, [r3, #40]	; 0x28
   d5420:	9301      	str	r3, [sp, #4]
   d5422:	bd08      	pop	{r3, pc}
   d5424:	0003023c 	.word	0x0003023c

000d5428 <HAL_USB_USART_Init>:
#endif

DYNALIB_BEGIN(hal_usb)

#ifdef USB_CDC_ENABLE
DYNALIB_FN(0, hal_usb, HAL_USB_USART_Init, void(HAL_USB_USART_Serial, const HAL_USB_USART_Config*))
   d5428:	b508      	push	{r3, lr}
   d542a:	4b02      	ldr	r3, [pc, #8]	; (d5434 <HAL_USB_USART_Init+0xc>)
   d542c:	681b      	ldr	r3, [r3, #0]
   d542e:	681b      	ldr	r3, [r3, #0]
   d5430:	9301      	str	r3, [sp, #4]
   d5432:	bd08      	pop	{r3, pc}
   d5434:	0003024c 	.word	0x0003024c

000d5438 <HAL_USB_USART_Begin>:
DYNALIB_FN(1, hal_usb, HAL_USB_USART_Begin, void(HAL_USB_USART_Serial, uint32_t, void *))
   d5438:	b508      	push	{r3, lr}
   d543a:	4b02      	ldr	r3, [pc, #8]	; (d5444 <HAL_USB_USART_Begin+0xc>)
   d543c:	681b      	ldr	r3, [r3, #0]
   d543e:	685b      	ldr	r3, [r3, #4]
   d5440:	9301      	str	r3, [sp, #4]
   d5442:	bd08      	pop	{r3, pc}
   d5444:	0003024c 	.word	0x0003024c

000d5448 <HAL_USB_USART_Available_Data>:
DYNALIB_FN(2, hal_usb, HAL_USB_USART_End, void(HAL_USB_USART_Serial))
DYNALIB_FN(3, hal_usb, HAL_USB_USART_Baud_Rate, unsigned int(HAL_USB_USART_Serial))
DYNALIB_FN(4, hal_usb, HAL_USB_USART_Available_Data, int32_t(HAL_USB_USART_Serial))
   d5448:	b508      	push	{r3, lr}
   d544a:	4b02      	ldr	r3, [pc, #8]	; (d5454 <HAL_USB_USART_Available_Data+0xc>)
   d544c:	681b      	ldr	r3, [r3, #0]
   d544e:	691b      	ldr	r3, [r3, #16]
   d5450:	9301      	str	r3, [sp, #4]
   d5452:	bd08      	pop	{r3, pc}
   d5454:	0003024c 	.word	0x0003024c

000d5458 <HAL_USB_USART_Available_Data_For_Write>:
DYNALIB_FN(5, hal_usb, HAL_USB_USART_Available_Data_For_Write, int32_t(HAL_USB_USART_Serial))
   d5458:	b508      	push	{r3, lr}
   d545a:	4b02      	ldr	r3, [pc, #8]	; (d5464 <HAL_USB_USART_Available_Data_For_Write+0xc>)
   d545c:	681b      	ldr	r3, [r3, #0]
   d545e:	695b      	ldr	r3, [r3, #20]
   d5460:	9301      	str	r3, [sp, #4]
   d5462:	bd08      	pop	{r3, pc}
   d5464:	0003024c 	.word	0x0003024c

000d5468 <HAL_USB_USART_Receive_Data>:
DYNALIB_FN(6, hal_usb, HAL_USB_USART_Receive_Data, int32_t(HAL_USB_USART_Serial, uint8_t))
   d5468:	b508      	push	{r3, lr}
   d546a:	4b02      	ldr	r3, [pc, #8]	; (d5474 <HAL_USB_USART_Receive_Data+0xc>)
   d546c:	681b      	ldr	r3, [r3, #0]
   d546e:	699b      	ldr	r3, [r3, #24]
   d5470:	9301      	str	r3, [sp, #4]
   d5472:	bd08      	pop	{r3, pc}
   d5474:	0003024c 	.word	0x0003024c

000d5478 <HAL_USB_USART_Send_Data>:
DYNALIB_FN(7, hal_usb, HAL_USB_USART_Send_Data, int32_t(HAL_USB_USART_Serial, uint8_t))
   d5478:	b508      	push	{r3, lr}
   d547a:	4b02      	ldr	r3, [pc, #8]	; (d5484 <HAL_USB_USART_Send_Data+0xc>)
   d547c:	681b      	ldr	r3, [r3, #0]
   d547e:	69db      	ldr	r3, [r3, #28]
   d5480:	9301      	str	r3, [sp, #4]
   d5482:	bd08      	pop	{r3, pc}
   d5484:	0003024c 	.word	0x0003024c

000d5488 <HAL_USB_USART_Flush_Data>:
DYNALIB_FN(8, hal_usb, HAL_USB_USART_Flush_Data, void(HAL_USB_USART_Serial))
   d5488:	b508      	push	{r3, lr}
   d548a:	4b02      	ldr	r3, [pc, #8]	; (d5494 <HAL_USB_USART_Flush_Data+0xc>)
   d548c:	681b      	ldr	r3, [r3, #0]
   d548e:	6a1b      	ldr	r3, [r3, #32]
   d5490:	9301      	str	r3, [sp, #4]
   d5492:	bd08      	pop	{r3, pc}
   d5494:	0003024c 	.word	0x0003024c

000d5498 <panic_>:
DYNALIB_FN(9, services, LED_Toggle, void(Led_TypeDef))
DYNALIB_FN(10, services, LED_Fade, void(Led_TypeDef))
DYNALIB_FN(11, services, Get_LED_Brightness, uint8_t(void))

DYNALIB_FN(12, services, set_logger_output, void(debug_output_fn, LoggerOutputLevel)) // Deprecated
DYNALIB_FN(13, services, panic_, void(ePanicCode, void*, void(*)(uint32_t)))
   d5498:	b508      	push	{r3, lr}
   d549a:	4b02      	ldr	r3, [pc, #8]	; (d54a4 <panic_+0xc>)
   d549c:	681b      	ldr	r3, [r3, #0]
   d549e:	6b5b      	ldr	r3, [r3, #52]	; 0x34
   d54a0:	9301      	str	r3, [sp, #4]
   d54a2:	bd08      	pop	{r3, pc}
   d54a4:	00030260 	.word	0x00030260

000d54a8 <log_message>:
DYNALIB_FN(16, services, log_print_, void(int, int, const char*, const char*, const char*, ...)) // Deprecated
DYNALIB_FN(17, services, LED_RGB_SetChangeHandler, void(led_update_handler_fn, void*))
DYNALIB_FN(18, services, log_print_direct_, void(int, void*, const char*, ...)) // Deprecated
DYNALIB_FN(19, services, LED_GetColor, uint32_t(uint32_t, void*))

DYNALIB_FN(20, services, log_message, void(int, const char*, LogAttributes*, void*, const char*, ...))
   d54a8:	b508      	push	{r3, lr}
   d54aa:	4b02      	ldr	r3, [pc, #8]	; (d54b4 <log_message+0xc>)
   d54ac:	681b      	ldr	r3, [r3, #0]
   d54ae:	6d1b      	ldr	r3, [r3, #80]	; 0x50
   d54b0:	9301      	str	r3, [sp, #4]
   d54b2:	bd08      	pop	{r3, pc}
   d54b4:	00030260 	.word	0x00030260

000d54b8 <set_system_mode>:
#endif

DYNALIB_BEGIN(system)

DYNALIB_FN(0, system, system_mode, System_Mode_TypeDef(void))
DYNALIB_FN(1, system, set_system_mode, void(System_Mode_TypeDef))
   d54b8:	b508      	push	{r3, lr}
   d54ba:	4b02      	ldr	r3, [pc, #8]	; (d54c4 <set_system_mode+0xc>)
   d54bc:	681b      	ldr	r3, [r3, #0]
   d54be:	685b      	ldr	r3, [r3, #4]
   d54c0:	9301      	str	r3, [sp, #4]
   d54c2:	bd08      	pop	{r3, pc}
   d54c4:	00030220 	.word	0x00030220

000d54c8 <system_delay_ms>:

DYNALIB_FN(2, system, set_ymodem_serial_flash_update_handler, void(ymodem_serial_flash_update_handler))
DYNALIB_FN(3, system, system_firmwareUpdate, bool(Stream*, void*))
DYNALIB_FN(4, system, system_fileTransfer, bool(system_file_transfer_t*, void*))

DYNALIB_FN(5, system, system_delay_ms, void(unsigned long, bool))
   d54c8:	b508      	push	{r3, lr}
   d54ca:	4b02      	ldr	r3, [pc, #8]	; (d54d4 <system_delay_ms+0xc>)
   d54cc:	681b      	ldr	r3, [r3, #0]
   d54ce:	695b      	ldr	r3, [r3, #20]
   d54d0:	9301      	str	r3, [sp, #4]
   d54d2:	bd08      	pop	{r3, pc}
   d54d4:	00030220 	.word	0x00030220

000d54d8 <system_thread_set_state>:
DYNALIB_FN(6, system, system_sleep, int(Spark_Sleep_TypeDef, long, uint32_t, void*))
DYNALIB_FN(7, system, system_sleep_pin, int(uint16_t, uint16_t, long, uint32_t, void*))
DYNALIB_FN(8, system, system_subscribe_event, int(system_event_t, system_event_handler_t*, void*))
DYNALIB_FN(9, system, system_unsubscribe_event, void(system_event_t, system_event_handler_t*, void*))
DYNALIB_FN(10, system, system_button_pushed_duration, uint16_t(uint8_t, void*))
DYNALIB_FN(11, system, system_thread_set_state, void(spark::feature::State, void*))
   d54d8:	b508      	push	{r3, lr}
   d54da:	4b02      	ldr	r3, [pc, #8]	; (d54e4 <system_thread_set_state+0xc>)
   d54dc:	681b      	ldr	r3, [r3, #0]
   d54de:	6adb      	ldr	r3, [r3, #44]	; 0x2c
   d54e0:	9301      	str	r3, [sp, #4]
   d54e2:	bd08      	pop	{r3, pc}
   d54e4:	00030220 	.word	0x00030220

000d54e8 <application_thread_current>:
DYNALIB_FN(15, system, system_get_flag, int(system_flag_t, uint8_t*, void*))
DYNALIB_FN(16, system, Spark_Prepare_For_Firmware_Update, int(FileTransfer::Descriptor&, uint32_t, void*))
DYNALIB_FN(17, system, Spark_Save_Firmware_Chunk, int(FileTransfer::Descriptor&, const uint8_t*, void*))
DYNALIB_FN(18, system, Spark_Finish_Firmware_Update, int(FileTransfer::Descriptor&, uint32_t, void*))

DYNALIB_FN(19, system, application_thread_current, uint8_t(void*))
   d54e8:	b508      	push	{r3, lr}
   d54ea:	4b02      	ldr	r3, [pc, #8]	; (d54f4 <application_thread_current+0xc>)
   d54ec:	681b      	ldr	r3, [r3, #0]
   d54ee:	6cdb      	ldr	r3, [r3, #76]	; 0x4c
   d54f0:	9301      	str	r3, [sp, #4]
   d54f2:	bd08      	pop	{r3, pc}
   d54f4:	00030220 	.word	0x00030220

000d54f8 <application_thread_invoke>:
DYNALIB_FN(20, system, system_thread_current, uint8_t(void*))
DYNALIB_FN(21, system, application_thread_invoke, uint8_t(void(*)(void*), void*, void*))
   d54f8:	b508      	push	{r3, lr}
   d54fa:	4b02      	ldr	r3, [pc, #8]	; (d5504 <application_thread_invoke+0xc>)
   d54fc:	681b      	ldr	r3, [r3, #0]
   d54fe:	6d5b      	ldr	r3, [r3, #84]	; 0x54
   d5500:	9301      	str	r3, [sp, #4]
   d5502:	bd08      	pop	{r3, pc}
   d5504:	00030220 	.word	0x00030220

000d5508 <system_format_diag_data>:
DYNALIB_FN(BASE_IDX + 3, system, led_set_signal_theme, int(const LEDSignalThemeData*, int, void*))
DYNALIB_FN(BASE_IDX + 4, system, led_get_signal_theme, int(LEDSignalThemeData*, int, void*))
DYNALIB_FN(BASE_IDX + 5, system, led_signal_status, const LEDStatusData*(int, void*))
DYNALIB_FN(BASE_IDX + 6, system, led_pattern_period, uint16_t(int, int, void*))
DYNALIB_FN(BASE_IDX + 7, system, system_set_tester_handlers, int(system_tester_handlers_t*, void*))
DYNALIB_FN(BASE_IDX + 8, system, system_format_diag_data, int(const uint16_t*, size_t, unsigned, appender_fn, void*, void*))
   d5508:	b508      	push	{r3, lr}
   d550a:	4b03      	ldr	r3, [pc, #12]	; (d5518 <system_format_diag_data+0x10>)
   d550c:	681b      	ldr	r3, [r3, #0]
   d550e:	f8d3 3084 	ldr.w	r3, [r3, #132]	; 0x84
   d5512:	9301      	str	r3, [sp, #4]
   d5514:	bd08      	pop	{r3, pc}
   d5516:	0000      	.short	0x0000
   d5518:	00030220 	.word	0x00030220

000d551c <system_ctrl_set_app_request_handler>:

// Control requests
DYNALIB_FN(BASE_IDX + 9, system, system_ctrl_set_app_request_handler, int(ctrl_request_handler_fn, void*))
   d551c:	b508      	push	{r3, lr}
   d551e:	4b03      	ldr	r3, [pc, #12]	; (d552c <system_ctrl_set_app_request_handler+0x10>)
   d5520:	681b      	ldr	r3, [r3, #0]
   d5522:	f8d3 3088 	ldr.w	r3, [r3, #136]	; 0x88
   d5526:	9301      	str	r3, [sp, #4]
   d5528:	bd08      	pop	{r3, pc}
   d552a:	0000      	.short	0x0000
   d552c:	00030220 	.word	0x00030220

000d5530 <system_ctrl_set_result>:
DYNALIB_FN(BASE_IDX + 10, system, system_ctrl_alloc_reply_data, int(ctrl_request*, size_t, void*))
DYNALIB_FN(BASE_IDX + 11, system, system_ctrl_free_request_data, void(ctrl_request*, void*))
DYNALIB_FN(BASE_IDX + 12, system, system_ctrl_set_result, void(ctrl_request*, int, ctrl_completion_handler_fn, void*, void*))
   d5530:	b508      	push	{r3, lr}
   d5532:	4b03      	ldr	r3, [pc, #12]	; (d5540 <system_ctrl_set_result+0x10>)
   d5534:	681b      	ldr	r3, [r3, #0]
   d5536:	f8d3 3094 	ldr.w	r3, [r3, #148]	; 0x94
   d553a:	9301      	str	r3, [sp, #4]
   d553c:	bd08      	pop	{r3, pc}
   d553e:	0000      	.short	0x0000
   d5540:	00030220 	.word	0x00030220

000d5544 <spark_variable>:
#endif


DYNALIB_BEGIN(system_cloud)

DYNALIB_FN(0, system_cloud, spark_variable, bool(const char*, const void*, Spark_Data_TypeDef, spark_variable_t*))
   d5544:	b508      	push	{r3, lr}
   d5546:	4b02      	ldr	r3, [pc, #8]	; (d5550 <spark_variable+0xc>)
   d5548:	681b      	ldr	r3, [r3, #0]
   d554a:	681b      	ldr	r3, [r3, #0]
   d554c:	9301      	str	r3, [sp, #4]
   d554e:	bd08      	pop	{r3, pc}
   d5550:	00030244 	.word	0x00030244

000d5554 <spark_function>:
DYNALIB_FN(1, system_cloud, spark_function, bool(const char*, p_user_function_int_str_t, void*))
   d5554:	b508      	push	{r3, lr}
   d5556:	4b02      	ldr	r3, [pc, #8]	; (d5560 <spark_function+0xc>)
   d5558:	681b      	ldr	r3, [r3, #0]
   d555a:	685b      	ldr	r3, [r3, #4]
   d555c:	9301      	str	r3, [sp, #4]
   d555e:	bd08      	pop	{r3, pc}
   d5560:	00030244 	.word	0x00030244

000d5564 <spark_cloud_flag_connected>:
DYNALIB_FN(2, system_cloud, spark_process, void(void))
DYNALIB_FN(3, system_cloud, spark_cloud_flag_connect, void(void))
DYNALIB_FN(4, system_cloud, spark_cloud_flag_disconnect, void(void))
DYNALIB_FN(5, system_cloud, spark_cloud_flag_connected, bool(void))
   d5564:	b508      	push	{r3, lr}
   d5566:	4b02      	ldr	r3, [pc, #8]	; (d5570 <spark_cloud_flag_connected+0xc>)
   d5568:	681b      	ldr	r3, [r3, #0]
   d556a:	695b      	ldr	r3, [r3, #20]
   d556c:	9301      	str	r3, [sp, #4]
   d556e:	bd08      	pop	{r3, pc}
   d5570:	00030244 	.word	0x00030244

000d5574 <spark_send_event>:
DYNALIB_FN(6, system_cloud, system_cloud_protocol_instance, ProtocolFacade*(void))
DYNALIB_FN(7, system_cloud, spark_deviceID, String(void))
DYNALIB_FN(8, system_cloud, spark_send_event, bool(const char*, const char*, int, uint32_t, void*))
   d5574:	b508      	push	{r3, lr}
   d5576:	4b02      	ldr	r3, [pc, #8]	; (d5580 <spark_send_event+0xc>)
   d5578:	681b      	ldr	r3, [r3, #0]
   d557a:	6a1b      	ldr	r3, [r3, #32]
   d557c:	9301      	str	r3, [sp, #4]
   d557e:	bd08      	pop	{r3, pc}
   d5580:	00030244 	.word	0x00030244

000d5584 <spark_set_random_seed_from_cloud_handler>:
DYNALIB_FN(10, system_cloud, spark_unsubscribe, void(void*))
DYNALIB_FN(11, system_cloud, spark_sync_time, bool(void*))
DYNALIB_FN(12, system_cloud, spark_sync_time_pending, bool(void*))
DYNALIB_FN(13, system_cloud, spark_sync_time_last, system_tick_t(time_t*, void*))
DYNALIB_FN(14, system_cloud, spark_set_connection_property, int(unsigned, unsigned, particle::protocol::connection_properties_t*, void*))
DYNALIB_FN(15, system_cloud, spark_set_random_seed_from_cloud_handler, int(void (*handler)(unsigned int), void*))
   d5584:	b508      	push	{r3, lr}
   d5586:	4b02      	ldr	r3, [pc, #8]	; (d5590 <spark_set_random_seed_from_cloud_handler+0xc>)
   d5588:	681b      	ldr	r3, [r3, #0]
   d558a:	6bdb      	ldr	r3, [r3, #60]	; 0x3c
   d558c:	9301      	str	r3, [sp, #4]
   d558e:	bd08      	pop	{r3, pc}
   d5590:	00030244 	.word	0x00030244

000d5594 <network_connect>:
#endif

DYNALIB_BEGIN(system_net)

DYNALIB_FN(0, system_net, network_config, const void*(network_handle_t, uint32_t, void*))
DYNALIB_FN(1, system_net, network_connect, void(network_handle_t, uint32_t, uint32_t, void*))
   d5594:	b508      	push	{r3, lr}
   d5596:	4b02      	ldr	r3, [pc, #8]	; (d55a0 <network_connect+0xc>)
   d5598:	681b      	ldr	r3, [r3, #0]
   d559a:	685b      	ldr	r3, [r3, #4]
   d559c:	9301      	str	r3, [sp, #4]
   d559e:	bd08      	pop	{r3, pc}
   d55a0:	00030240 	.word	0x00030240

000d55a4 <network_connecting>:
DYNALIB_FN(2, system_net, network_connecting, bool(network_handle_t, uint32_t, void*))
   d55a4:	b508      	push	{r3, lr}
   d55a6:	4b02      	ldr	r3, [pc, #8]	; (d55b0 <network_connecting+0xc>)
   d55a8:	681b      	ldr	r3, [r3, #0]
   d55aa:	689b      	ldr	r3, [r3, #8]
   d55ac:	9301      	str	r3, [sp, #4]
   d55ae:	bd08      	pop	{r3, pc}
   d55b0:	00030240 	.word	0x00030240

000d55b4 <network_disconnect>:
DYNALIB_FN(3, system_net, network_disconnect, void(network_handle_t, uint32_t, void*))
   d55b4:	b508      	push	{r3, lr}
   d55b6:	4b02      	ldr	r3, [pc, #8]	; (d55c0 <network_disconnect+0xc>)
   d55b8:	681b      	ldr	r3, [r3, #0]
   d55ba:	68db      	ldr	r3, [r3, #12]
   d55bc:	9301      	str	r3, [sp, #4]
   d55be:	bd08      	pop	{r3, pc}
   d55c0:	00030240 	.word	0x00030240

000d55c4 <network_ready>:
DYNALIB_FN(4, system_net, network_ready, bool(network_handle_t, uint32_t, void*))
   d55c4:	b508      	push	{r3, lr}
   d55c6:	4b02      	ldr	r3, [pc, #8]	; (d55d0 <network_ready+0xc>)
   d55c8:	681b      	ldr	r3, [r3, #0]
   d55ca:	691b      	ldr	r3, [r3, #16]
   d55cc:	9301      	str	r3, [sp, #4]
   d55ce:	bd08      	pop	{r3, pc}
   d55d0:	00030240 	.word	0x00030240

000d55d4 <network_on>:
DYNALIB_FN(5, system_net, network_on, void(network_handle_t, uint32_t, uint32_t, void*))
   d55d4:	b508      	push	{r3, lr}
   d55d6:	4b02      	ldr	r3, [pc, #8]	; (d55e0 <network_on+0xc>)
   d55d8:	681b      	ldr	r3, [r3, #0]
   d55da:	695b      	ldr	r3, [r3, #20]
   d55dc:	9301      	str	r3, [sp, #4]
   d55de:	bd08      	pop	{r3, pc}
   d55e0:	00030240 	.word	0x00030240

000d55e4 <network_off>:
DYNALIB_FN(6, system_net, network_off, void(network_handle_t, uint32_t, uint32_t, void*))
   d55e4:	b508      	push	{r3, lr}
   d55e6:	4b02      	ldr	r3, [pc, #8]	; (d55f0 <network_off+0xc>)
   d55e8:	681b      	ldr	r3, [r3, #0]
   d55ea:	699b      	ldr	r3, [r3, #24]
   d55ec:	9301      	str	r3, [sp, #4]
   d55ee:	bd08      	pop	{r3, pc}
   d55f0:	00030240 	.word	0x00030240

000d55f4 <network_listen>:
DYNALIB_FN(7, system_net, network_listen, void(network_handle_t, uint32_t, void*))
   d55f4:	b508      	push	{r3, lr}
   d55f6:	4b02      	ldr	r3, [pc, #8]	; (d5600 <network_listen+0xc>)
   d55f8:	681b      	ldr	r3, [r3, #0]
   d55fa:	69db      	ldr	r3, [r3, #28]
   d55fc:	9301      	str	r3, [sp, #4]
   d55fe:	bd08      	pop	{r3, pc}
   d5600:	00030240 	.word	0x00030240

000d5604 <network_listening>:
DYNALIB_FN(8, system_net, network_listening, bool(network_handle_t, uint32_t, void*))
   d5604:	b508      	push	{r3, lr}
   d5606:	4b02      	ldr	r3, [pc, #8]	; (d5610 <network_listening+0xc>)
   d5608:	681b      	ldr	r3, [r3, #0]
   d560a:	6a1b      	ldr	r3, [r3, #32]
   d560c:	9301      	str	r3, [sp, #4]
   d560e:	bd08      	pop	{r3, pc}
   d5610:	00030240 	.word	0x00030240

000d5614 <network_set_listen_timeout>:
DYNALIB_FN(9, system_net, network_has_credentials, bool(network_handle_t, uint32_t, void*))
DYNALIB_FN(10, system_net, network_set_credentials, int(network_handle_t, uint32_t, NetworkCredentials*, void*))
DYNALIB_FN(11, system_net, network_clear_credentials, bool(network_handle_t, uint32_t, NetworkCredentials*, void*))
DYNALIB_FN(12, system_net, network_set_listen_timeout, void(network_handle_t, uint16_t, void*))
   d5614:	b508      	push	{r3, lr}
   d5616:	4b02      	ldr	r3, [pc, #8]	; (d5620 <network_set_listen_timeout+0xc>)
   d5618:	681b      	ldr	r3, [r3, #0]
   d561a:	6b1b      	ldr	r3, [r3, #48]	; 0x30
   d561c:	9301      	str	r3, [sp, #4]
   d561e:	bd08      	pop	{r3, pc}
   d5620:	00030240 	.word	0x00030240

000d5624 <network_get_listen_timeout>:
DYNALIB_FN(13, system_net, network_get_listen_timeout, uint16_t(network_handle_t, uint32_t, void*))
   d5624:	b508      	push	{r3, lr}
   d5626:	4b02      	ldr	r3, [pc, #8]	; (d5630 <network_get_listen_timeout+0xc>)
   d5628:	681b      	ldr	r3, [r3, #0]
   d562a:	6b5b      	ldr	r3, [r3, #52]	; 0x34
   d562c:	9301      	str	r3, [sp, #4]
   d562e:	bd08      	pop	{r3, pc}
   d5630:	00030240 	.word	0x00030240

000d5634 <malloc>:
#include <assert.h>
#endif

DYNALIB_BEGIN(rt)

DYNALIB_FN(0, rt, malloc, void*(size_t))
   d5634:	b508      	push	{r3, lr}
   d5636:	4b02      	ldr	r3, [pc, #8]	; (d5640 <malloc+0xc>)
   d5638:	681b      	ldr	r3, [r3, #0]
   d563a:	681b      	ldr	r3, [r3, #0]
   d563c:	9301      	str	r3, [sp, #4]
   d563e:	bd08      	pop	{r3, pc}
   d5640:	0003021c 	.word	0x0003021c

000d5644 <free>:
DYNALIB_FN(1, rt, free, void(void*))
   d5644:	b508      	push	{r3, lr}
   d5646:	4b02      	ldr	r3, [pc, #8]	; (d5650 <free+0xc>)
   d5648:	681b      	ldr	r3, [r3, #0]
   d564a:	685b      	ldr	r3, [r3, #4]
   d564c:	9301      	str	r3, [sp, #4]
   d564e:	bd08      	pop	{r3, pc}
   d5650:	0003021c 	.word	0x0003021c

000d5654 <realloc>:
DYNALIB_FN(2, rt, realloc, void*(void*, size_t))
   d5654:	b508      	push	{r3, lr}
   d5656:	4b02      	ldr	r3, [pc, #8]	; (d5660 <realloc+0xc>)
   d5658:	681b      	ldr	r3, [r3, #0]
   d565a:	689b      	ldr	r3, [r3, #8]
   d565c:	9301      	str	r3, [sp, #4]
   d565e:	bd08      	pop	{r3, pc}
   d5660:	0003021c 	.word	0x0003021c

000d5664 <vsnprintf>:
DYNALIB_FN(4, rt, siprintf, int(char*, const char*, ...))
DYNALIB_FN(5, rt, sscanf, int(const char*, const char*, ...))
DYNALIB_FN(6, rt, siscanf, int(const char*, const char*, ...))
DYNALIB_FN(7, rt, snprintf, int(char*, size_t, const char*, ...))
DYNALIB_FN(8, rt, sniprintf, int(char*, size_t, const char*, ...))
DYNALIB_FN(9, rt, vsnprintf, int(char*, size_t, const char*, va_list))
   d5664:	b508      	push	{r3, lr}
   d5666:	4b02      	ldr	r3, [pc, #8]	; (d5670 <vsnprintf+0xc>)
   d5668:	681b      	ldr	r3, [r3, #0]
   d566a:	6a5b      	ldr	r3, [r3, #36]	; 0x24
   d566c:	9301      	str	r3, [sp, #4]
   d566e:	bd08      	pop	{r3, pc}
   d5670:	0003021c 	.word	0x0003021c

000d5674 <abort>:
DYNALIB_FN(10, rt, vsniprintf, int(char*, size_t, const char*, va_list))
DYNALIB_FN(11, rt, abort, void(void))
   d5674:	b508      	push	{r3, lr}
   d5676:	4b02      	ldr	r3, [pc, #8]	; (d5680 <abort+0xc>)
   d5678:	681b      	ldr	r3, [r3, #0]
   d567a:	6adb      	ldr	r3, [r3, #44]	; 0x2c
   d567c:	9301      	str	r3, [sp, #4]
   d567e:	bd08      	pop	{r3, pc}
   d5680:	0003021c 	.word	0x0003021c

000d5684 <_malloc_r>:
DYNALIB_FN(12, rt, _malloc_r, void*(struct _reent*, size_t))
   d5684:	b508      	push	{r3, lr}
   d5686:	4b02      	ldr	r3, [pc, #8]	; (d5690 <_malloc_r+0xc>)
   d5688:	681b      	ldr	r3, [r3, #0]
   d568a:	6b1b      	ldr	r3, [r3, #48]	; 0x30
   d568c:	9301      	str	r3, [sp, #4]
   d568e:	bd08      	pop	{r3, pc}
   d5690:	0003021c 	.word	0x0003021c

000d5694 <_Z3mapddddd>:
    }
    return (value - fromStart) * (toEnd - toStart) / (fromEnd - fromStart) + toStart;
}

double map(double value, double fromStart, double fromEnd, double toStart, double toEnd)
{
   d5694:	e92d 4ff0 	stmdb	sp!, {r4, r5, r6, r7, r8, r9, sl, fp, lr}
   d5698:	ed2d 8b02 	vpush	{d8}
   d569c:	eeb0 8a44 	vmov.f32	s16, s8
   d56a0:	eef0 8a64 	vmov.f32	s17, s9
   d56a4:	ec55 4b11 	vmov	r4, r5, d1
   d56a8:	ec57 6b12 	vmov	r6, r7, d2
   d56ac:	b083      	sub	sp, #12
    if (fromEnd == fromStart) {
   d56ae:	ee11 2a10 	vmov	r2, s2
   d56b2:	462b      	mov	r3, r5
   d56b4:	ee12 0a10 	vmov	r0, s4
   d56b8:	4639      	mov	r1, r7
    }
    return (value - fromStart) * (toEnd - toStart) / (fromEnd - fromStart) + toStart;
}

double map(double value, double fromStart, double fromEnd, double toStart, double toEnd)
{
   d56ba:	ed8d 0b00 	vstr	d0, [sp]
   d56be:	ec5b ab13 	vmov	sl, fp, d3
    if (fromEnd == fromStart) {
   d56c2:	f003 f801 	bl	d86c8 <__aeabi_dcmpeq>
   d56c6:	ed9d 0b00 	vldr	d0, [sp]
   d56ca:	bb38      	cbnz	r0, d571c <_Z3mapddddd+0x88>
        return value;
    }
    return (value - fromStart) * (toEnd - toStart) / (fromEnd - fromStart) + toStart;
   d56cc:	ec51 0b10 	vmov	r0, r1, d0
   d56d0:	4622      	mov	r2, r4
   d56d2:	462b      	mov	r3, r5
   d56d4:	f002 fbdc 	bl	d7e90 <__aeabi_dsub>
   d56d8:	4652      	mov	r2, sl
   d56da:	4680      	mov	r8, r0
   d56dc:	4689      	mov	r9, r1
   d56de:	465b      	mov	r3, fp
   d56e0:	ec51 0b18 	vmov	r0, r1, d8
   d56e4:	f002 fbd4 	bl	d7e90 <__aeabi_dsub>
   d56e8:	4602      	mov	r2, r0
   d56ea:	460b      	mov	r3, r1
   d56ec:	4640      	mov	r0, r8
   d56ee:	4649      	mov	r1, r9
   d56f0:	f002 fd82 	bl	d81f8 <__aeabi_dmul>
   d56f4:	4622      	mov	r2, r4
   d56f6:	4680      	mov	r8, r0
   d56f8:	4689      	mov	r9, r1
   d56fa:	462b      	mov	r3, r5
   d56fc:	4630      	mov	r0, r6
   d56fe:	4639      	mov	r1, r7
   d5700:	f002 fbc6 	bl	d7e90 <__aeabi_dsub>
   d5704:	4602      	mov	r2, r0
   d5706:	460b      	mov	r3, r1
   d5708:	4640      	mov	r0, r8
   d570a:	4649      	mov	r1, r9
   d570c:	f002 fe9e 	bl	d844c <__aeabi_ddiv>
   d5710:	4652      	mov	r2, sl
   d5712:	465b      	mov	r3, fp
   d5714:	f002 fbbe 	bl	d7e94 <__adddf3>
   d5718:	ec41 0b10 	vmov	d0, r0, r1
}
   d571c:	b003      	add	sp, #12
   d571e:	ecbd 8b02 	vpop	{d8}
   d5722:	e8bd 8ff0 	ldmia.w	sp!, {r4, r5, r6, r7, r8, r9, sl, fp, pc}

000d5726 <delay>:

void delay(unsigned long ms)
{
    system_delay_ms(ms, false);
   d5726:	2100      	movs	r1, #0
   d5728:	f7ff bece 	b.w	d54c8 <system_delay_ms>

000d572c <_ZN8particle6detail21futureCallbackWrapperEPv>:
 * License along with this library; if not, see <http://www.gnu.org/licenses/>.
 */

#include "spark_wiring_async.h"

void particle::detail::futureCallbackWrapper(void* data) {
   d572c:	b510      	push	{r4, lr}
  template<typename _Res, typename... _ArgTypes>
    _Res
    function<_Res(_ArgTypes...)>::
    operator()(_ArgTypes... __args) const
    {
      if (_M_empty())
   d572e:	6883      	ldr	r3, [r0, #8]
   d5730:	4604      	mov	r4, r0
   d5732:	b90b      	cbnz	r3, d5738 <_ZN8particle6detail21futureCallbackWrapperEPv+0xc>
	__throw_bad_function_call();
   d5734:	f002 fa5d 	bl	d7bf2 <_ZSt25__throw_bad_function_callv>
      return _M_invoker(_M_functor, std::forward<_ArgTypes>(__args)...);
   d5738:	68c3      	ldr	r3, [r0, #12]
   d573a:	4798      	blx	r3

    _Function_base() : _M_manager(nullptr) { }

    ~_Function_base()
    {
      if (_M_manager)
   d573c:	68a3      	ldr	r3, [r4, #8]
   d573e:	b11b      	cbz	r3, d5748 <_ZN8particle6detail21futureCallbackWrapperEPv+0x1c>
	_M_manager(_M_functor, _M_functor, __destroy_functor);
   d5740:	2203      	movs	r2, #3
   d5742:	4621      	mov	r1, r4
   d5744:	4620      	mov	r0, r4
   d5746:	4798      	blx	r3
    auto callbackPtr = static_cast<const std::function<void()>*>(data);
    (*callbackPtr)();
    delete callbackPtr;
   d5748:	4620      	mov	r0, r4
   d574a:	2110      	movs	r1, #16
}
   d574c:	e8bd 4010 	ldmia.w	sp!, {r4, lr}
#include "spark_wiring_async.h"

void particle::detail::futureCallbackWrapper(void* data) {
    auto callbackPtr = static_cast<const std::function<void()>*>(data);
    (*callbackPtr)();
    delete callbackPtr;
   d5750:	f002 ba4d 	b.w	d7bee <_ZdlPvj>

000d5754 <_ZNSt19_Sp_counted_deleterIPN8particle17BlePeerDeviceImplENSt12__shared_ptrIS1_LN9__gnu_cxx12_Lock_policyE0EE8_DeleterISaIS1_EEES8_LS5_0EED1Ev>:

      // __d(__p) must not throw.
      _Sp_counted_deleter(_Ptr __p, _Deleter __d, const _Alloc& __a) noexcept
      : _M_impl(__p, __d, __a) { }

      ~_Sp_counted_deleter() noexcept { }
   d5754:	4770      	bx	lr

000d5756 <_ZNSt19_Sp_counted_deleterIPN8particle17BlePeerDeviceImplENSt12__shared_ptrIS1_LN9__gnu_cxx12_Lock_policyE0EE8_DeleterISaIS1_EEES8_LS5_0EE14_M_get_deleterERKSt9type_info>:
	  ? std::__addressof(_M_impl._M_del())
	  : nullptr;
#else
        return nullptr;
#endif
      }
   d5756:	2000      	movs	r0, #0
   d5758:	4770      	bx	lr

000d575a <_ZNSt19_Sp_counted_deleterIPN8particle14BleServiceImplENSt12__shared_ptrIS1_LN9__gnu_cxx12_Lock_policyE0EE8_DeleterISaIS1_EEES8_LS5_0EED1Ev>:

      // __d(__p) must not throw.
      _Sp_counted_deleter(_Ptr __p, _Deleter __d, const _Alloc& __a) noexcept
      : _M_impl(__p, __d, __a) { }

      ~_Sp_counted_deleter() noexcept { }
   d575a:	4770      	bx	lr

000d575c <_ZNSt19_Sp_counted_deleterIPN8particle14BleServiceImplENSt12__shared_ptrIS1_LN9__gnu_cxx12_Lock_policyE0EE8_DeleterISaIS1_EEES8_LS5_0EE14_M_get_deleterERKSt9type_info>:
	  ? std::__addressof(_M_impl._M_del())
	  : nullptr;
#else
        return nullptr;
#endif
      }
   d575c:	2000      	movs	r0, #0
   d575e:	4770      	bx	lr

000d5760 <_ZNSt19_Sp_counted_deleterIPN8particle21BleCharacteristicImplENSt12__shared_ptrIS1_LN9__gnu_cxx12_Lock_policyE0EE8_DeleterISaIS1_EEES8_LS5_0EED1Ev>:

      // __d(__p) must not throw.
      _Sp_counted_deleter(_Ptr __p, _Deleter __d, const _Alloc& __a) noexcept
      : _M_impl(__p, __d, __a) { }

      ~_Sp_counted_deleter() noexcept { }
   d5760:	4770      	bx	lr

000d5762 <_ZNSt19_Sp_counted_deleterIPN8particle21BleCharacteristicImplENSt12__shared_ptrIS1_LN9__gnu_cxx12_Lock_policyE0EE8_DeleterISaIS1_EEES8_LS5_0EE14_M_get_deleterERKSt9type_info>:
	  ? std::__addressof(_M_impl._M_del())
	  : nullptr;
#else
        return nullptr;
#endif
      }
   d5762:	2000      	movs	r0, #0
   d5764:	4770      	bx	lr

000d5766 <_ZNSt19_Sp_counted_deleterIPN8particle21BleCharacteristicImplENSt12__shared_ptrIS1_LN9__gnu_cxx12_Lock_policyE0EE8_DeleterISaIS1_EEES8_LS5_0EED0Ev>:

      // __d(__p) must not throw.
      _Sp_counted_deleter(_Ptr __p, _Deleter __d, const _Alloc& __a) noexcept
      : _M_impl(__p, __d, __a) { }

      ~_Sp_counted_deleter() noexcept { }
   d5766:	b510      	push	{r4, lr}
   d5768:	2114      	movs	r1, #20
   d576a:	4604      	mov	r4, r0
   d576c:	f002 fa3f 	bl	d7bee <_ZdlPvj>
   d5770:	4620      	mov	r0, r4
   d5772:	bd10      	pop	{r4, pc}

000d5774 <_ZNSt19_Sp_counted_deleterIPN8particle14BleServiceImplENSt12__shared_ptrIS1_LN9__gnu_cxx12_Lock_policyE0EE8_DeleterISaIS1_EEES8_LS5_0EED0Ev>:
   d5774:	b510      	push	{r4, lr}
   d5776:	2114      	movs	r1, #20
   d5778:	4604      	mov	r4, r0
   d577a:	f002 fa38 	bl	d7bee <_ZdlPvj>
   d577e:	4620      	mov	r0, r4
   d5780:	bd10      	pop	{r4, pc}

000d5782 <_ZNSt19_Sp_counted_deleterIPN8particle17BlePeerDeviceImplENSt12__shared_ptrIS1_LN9__gnu_cxx12_Lock_policyE0EE8_DeleterISaIS1_EEES8_LS5_0EED0Ev>:
   d5782:	b510      	push	{r4, lr}
   d5784:	2114      	movs	r1, #20
   d5786:	4604      	mov	r4, r0
   d5788:	f002 fa31 	bl	d7bee <_ZdlPvj>
   d578c:	4620      	mov	r0, r4
   d578e:	bd10      	pop	{r4, pc}

000d5790 <_ZNSt19_Sp_counted_deleterIPN8particle21BleCharacteristicImplENSt12__shared_ptrIS1_LN9__gnu_cxx12_Lock_policyE0EE8_DeleterISaIS1_EEES8_LS5_0EE10_M_destroyEv>:
      }

      // __p is not permitted to be a null pointer.
      void
      deallocate(pointer __p, size_type)
      { ::operator delete(__p); }
   d5790:	f7fe bc83 	b.w	d409a <_ZdlPv>

000d5794 <_ZNSt19_Sp_counted_deleterIPN8particle14BleServiceImplENSt12__shared_ptrIS1_LN9__gnu_cxx12_Lock_policyE0EE8_DeleterISaIS1_EEES8_LS5_0EE10_M_destroyEv>:
   d5794:	f7fe bc81 	b.w	d409a <_ZdlPv>

000d5798 <_ZNSt19_Sp_counted_deleterIPN8particle17BlePeerDeviceImplENSt12__shared_ptrIS1_LN9__gnu_cxx12_Lock_policyE0EE8_DeleterISaIS1_EEES8_LS5_0EE10_M_destroyEv>:
   d5798:	f7fe bc7f 	b.w	d409a <_ZdlPv>

000d579c <_ZN8particle10BleServiceC2ERKNS_7BleUuidE.part.100>:


/*******************************************************
 * BlePeerDevice class
 */
BlePeerDevice::BlePeerDevice()
   d579c:	b508      	push	{r3, lr}
        : impl_(std::make_shared<BlePeerDeviceImpl>()) {
    if (!impl()) {
        SPARK_ASSERT(false);
   d579e:	200a      	movs	r0, #10
   d57a0:	4a02      	ldr	r2, [pc, #8]	; (d57ac <_ZN8particle10BleServiceC2ERKNS_7BleUuidE.part.100+0x10>)
   d57a2:	2100      	movs	r1, #0
   d57a4:	f7ff fe78 	bl	d5498 <panic_>
    }
}
   d57a8:	bd08      	pop	{r3, pc}
   d57aa:	bf00      	nop
   d57ac:	000d5249 	.word	0x000d5249

000d57b0 <_ZN8particle11hexToNibbleEc>:
#include <cstdint>

namespace particle {

inline int hexToNibble(char c) {
    if (c >= '0' && c <= '9') {
   d57b0:	f1a0 0330 	sub.w	r3, r0, #48	; 0x30
   d57b4:	b2da      	uxtb	r2, r3
   d57b6:	2a09      	cmp	r2, #9
   d57b8:	d801      	bhi.n	d57be <_ZN8particle11hexToNibbleEc+0xe>
        return (c - '0');
   d57ba:	4618      	mov	r0, r3
   d57bc:	4770      	bx	lr
    } else if (c >= 'a' && c <= 'f') {
   d57be:	f1a0 0361 	sub.w	r3, r0, #97	; 0x61
   d57c2:	2b05      	cmp	r3, #5
   d57c4:	d801      	bhi.n	d57ca <_ZN8particle11hexToNibbleEc+0x1a>
        return (c - 'a' + 0x0a);
   d57c6:	3857      	subs	r0, #87	; 0x57
   d57c8:	4770      	bx	lr
    } else if (c >= 'A' && c <= 'F') {
   d57ca:	f1a0 0341 	sub.w	r3, r0, #65	; 0x41
   d57ce:	2b05      	cmp	r3, #5
        return (c - 'A' + 0x0a);
   d57d0:	bf94      	ite	ls
   d57d2:	3837      	subls	r0, #55	; 0x37
    }
    return -1;
   d57d4:	f04f 30ff 	movhi.w	r0, #4294967295	; 0xffffffff
}
   d57d8:	4770      	bx	lr
	...

000d57dc <_ZN8particle3ble13WiringBleLockC1Ev>:

namespace ble {

class WiringBleLock {
public:
    WiringBleLock() :
   d57dc:	b510      	push	{r4, lr}
            locked_(false) {
   d57de:	2300      	movs	r3, #0
   d57e0:	7003      	strb	r3, [r0, #0]
            os_mutex_recursive_destroy(handle_);
            handle_ = nullptr;
        }
    }

    void lock() { os_mutex_recursive_lock(handle_); }
   d57e2:	4b04      	ldr	r3, [pc, #16]	; (d57f4 <_ZN8particle3ble13WiringBleLockC1Ev+0x18>)

namespace ble {

class WiringBleLock {
public:
    WiringBleLock() :
   d57e4:	4604      	mov	r4, r0
   d57e6:	6818      	ldr	r0, [r3, #0]
   d57e8:	f7ff fd16 	bl	d5218 <os_mutex_recursive_lock>
        lock.locked_ = false;
    }

    void lock() {
        mutex_.lock();
        locked_ = true;
   d57ec:	2301      	movs	r3, #1
   d57ee:	7023      	strb	r3, [r4, #0]
class WiringBleLock {
public:
    WiringBleLock() :
            locked_(false) {
        lock();
    }
   d57f0:	4620      	mov	r0, r4
   d57f2:	bd10      	pop	{r4, pc}
   d57f4:	2003e4c8 	.word	0x2003e4c8

000d57f8 <_ZN8particle3ble13WiringBleLockD1Ev>:

    ~WiringBleLock() {
   d57f8:	b510      	push	{r4, lr}
        if (locked_) {
   d57fa:	7803      	ldrb	r3, [r0, #0]
    WiringBleLock() :
            locked_(false) {
        lock();
    }

    ~WiringBleLock() {
   d57fc:	4604      	mov	r4, r0
        if (locked_) {
   d57fe:	b11b      	cbz	r3, d5808 <_ZN8particle3ble13WiringBleLockD1Ev+0x10>
    bool trylock() { return os_mutex_recursive_trylock(handle_)==0; }
    void unlock() { os_mutex_recursive_unlock(handle_); }
   d5800:	4b02      	ldr	r3, [pc, #8]	; (d580c <_ZN8particle3ble13WiringBleLockD1Ev+0x14>)
   d5802:	6818      	ldr	r0, [r3, #0]
   d5804:	f7ff fd10 	bl	d5228 <os_mutex_recursive_unlock>
            unlock();
        }
    }
   d5808:	4620      	mov	r0, r4
   d580a:	bd10      	pop	{r4, pc}
   d580c:	2003e4c8 	.word	0x2003e4c8

000d5810 <_ZNK8particle10BleAddresseqERKS0_>:
BleAddress& BleAddress::operator=(const uint8_t addr[BLE_SIG_ADDR_LEN]) {
    memcpy(address_.addr, addr, BLE_SIG_ADDR_LEN);
    return *this;
}

bool BleAddress::operator==(const BleAddress& addr) const {
   d5810:	b508      	push	{r3, lr}
    if (address_.addr_type == addr.address_.addr_type && !memcmp(address_.addr, addr.address_.addr, BLE_SIG_ADDR_LEN)) {
   d5812:	7982      	ldrb	r2, [r0, #6]
   d5814:	798b      	ldrb	r3, [r1, #6]
   d5816:	429a      	cmp	r2, r3
   d5818:	d106      	bne.n	d5828 <_ZNK8particle10BleAddresseqERKS0_+0x18>
   d581a:	2206      	movs	r2, #6
   d581c:	f003 f9bc 	bl	d8b98 <memcmp>
   d5820:	fab0 f080 	clz	r0, r0
   d5824:	0940      	lsrs	r0, r0, #5
   d5826:	bd08      	pop	{r3, pc}
        return true;
    }
    return false;
   d5828:	2000      	movs	r0, #0
}
   d582a:	bd08      	pop	{r3, pc}

000d582c <_ZN8particle7BleUuidC1Ev>:


/*******************************************************
 * BleUuid class
 */
BleUuid::BleUuid()
   d582c:	b510      	push	{r4, lr}
        : uuid_() {
   d582e:	2214      	movs	r2, #20


/*******************************************************
 * BleUuid class
 */
BleUuid::BleUuid()
   d5830:	4604      	mov	r4, r0
        : uuid_() {
   d5832:	2100      	movs	r1, #0
   d5834:	f003 f9e5 	bl	d8c02 <memset>
}
   d5838:	4620      	mov	r0, r4
   d583a:	bd10      	pop	{r4, pc}

000d583c <_ZN8particle7BleUuidC1ERKS0_>:

BleUuid::BleUuid(const hal_ble_uuid_t& uuid) {
    uuid_ = uuid;
}

BleUuid::BleUuid(const BleUuid& uuid)
   d583c:	b510      	push	{r4, lr}
        : uuid_(uuid.uuid_) {
   d583e:	4603      	mov	r3, r0
   d5840:	f101 0214 	add.w	r2, r1, #20
   d5844:	f851 4b04 	ldr.w	r4, [r1], #4
   d5848:	f843 4b04 	str.w	r4, [r3], #4
   d584c:	4291      	cmp	r1, r2
   d584e:	d1f9      	bne.n	d5844 <_ZN8particle7BleUuidC1ERKS0_+0x8>
}
   d5850:	bd10      	pop	{r4, pc}

000d5852 <_ZN8particle7BleUuidC1EPKhNS_12BleUuidOrderE>:

BleUuid::BleUuid(const uint8_t* uuid128, BleUuidOrder order)
   d5852:	b570      	push	{r4, r5, r6, lr}
   d5854:	460c      	mov	r4, r1
   d5856:	4605      	mov	r5, r0
   d5858:	4616      	mov	r6, r2
        : BleUuid() {
   d585a:	f7ff ffe7 	bl	d582c <_ZN8particle7BleUuidC1Ev>
    if (!uuid128) {
   d585e:	b92c      	cbnz	r4, d586c <_ZN8particle7BleUuidC1EPKhNS_12BleUuidOrderE+0x1a>
        memset(uuid_.uuid128, 0x00, BLE_SIG_UUID_128BIT_LEN);
   d5860:	2210      	movs	r2, #16
   d5862:	4621      	mov	r1, r4
   d5864:	4628      	mov	r0, r5
   d5866:	f003 f9cc 	bl	d8c02 <memset>
   d586a:	e016      	b.n	d589a <_ZN8particle7BleUuidC1EPKhNS_12BleUuidOrderE+0x48>
    } else {
        if (order == BleUuidOrder::LSB) {
   d586c:	2e01      	cmp	r6, #1
   d586e:	d109      	bne.n	d5884 <_ZN8particle7BleUuidC1EPKhNS_12BleUuidOrderE+0x32>
            memcpy(uuid_.uuid128, uuid128, BLE_SIG_UUID_128BIT_LEN);
   d5870:	462b      	mov	r3, r5
   d5872:	f104 0210 	add.w	r2, r4, #16
   d5876:	f854 1b04 	ldr.w	r1, [r4], #4
   d587a:	f843 1b04 	str.w	r1, [r3], #4
   d587e:	4294      	cmp	r4, r2
   d5880:	d1f9      	bne.n	d5876 <_ZN8particle7BleUuidC1EPKhNS_12BleUuidOrderE+0x24>
   d5882:	e008      	b.n	d5896 <_ZN8particle7BleUuidC1EPKhNS_12BleUuidOrderE+0x44>
   d5884:	1e6a      	subs	r2, r5, #1
BleUuid::BleUuid(const uint8_t* uuid128, BleUuidOrder order)
        : BleUuid() {
    if (!uuid128) {
        memset(uuid_.uuid128, 0x00, BLE_SIG_UUID_128BIT_LEN);
    } else {
        if (order == BleUuidOrder::LSB) {
   d5886:	230f      	movs	r3, #15
            memcpy(uuid_.uuid128, uuid128, BLE_SIG_UUID_128BIT_LEN);
        } else {
            for (uint8_t i = 0, j = BLE_SIG_UUID_128BIT_LEN - 1; i < BLE_SIG_UUID_128BIT_LEN; i++, j--) {
                uuid_.uuid128[i] = uuid128[j];
   d5888:	5ce1      	ldrb	r1, [r4, r3]
   d588a:	f802 1f01 	strb.w	r1, [r2, #1]!
        memset(uuid_.uuid128, 0x00, BLE_SIG_UUID_128BIT_LEN);
    } else {
        if (order == BleUuidOrder::LSB) {
            memcpy(uuid_.uuid128, uuid128, BLE_SIG_UUID_128BIT_LEN);
        } else {
            for (uint8_t i = 0, j = BLE_SIG_UUID_128BIT_LEN - 1; i < BLE_SIG_UUID_128BIT_LEN; i++, j--) {
   d588e:	3b01      	subs	r3, #1
   d5890:	b2db      	uxtb	r3, r3
   d5892:	2bff      	cmp	r3, #255	; 0xff
   d5894:	d1f8      	bne.n	d5888 <_ZN8particle7BleUuidC1EPKhNS_12BleUuidOrderE+0x36>
                uuid_.uuid128[i] = uuid128[j];
            }
        }
        uuid_.type = BLE_UUID_TYPE_128BIT;
   d5896:	2301      	movs	r3, #1
   d5898:	742b      	strb	r3, [r5, #16]
    }
}
   d589a:	4628      	mov	r0, r5
   d589c:	bd70      	pop	{r4, r5, r6, pc}

000d589e <_ZN8particle7BleUuidC1EPKhtNS_12BleUuidOrderE>:
        : BleUuid() {
    uuid_.uuid16 = uuid16;
    uuid_.type = BLE_UUID_TYPE_16BIT;
}

BleUuid::BleUuid(const uint8_t* uuid128, uint16_t uuid16, BleUuidOrder order)
   d589e:	b538      	push	{r3, r4, r5, lr}
   d58a0:	4604      	mov	r4, r0
   d58a2:	4615      	mov	r5, r2
        : BleUuid(uuid128, order) {
   d58a4:	461a      	mov	r2, r3
   d58a6:	f7ff ffd4 	bl	d5852 <_ZN8particle7BleUuidC1EPKhNS_12BleUuidOrderE>
    uuid_.uuid128[12] = (uint8_t)(uuid16 & 0x00FF);
   d58aa:	7325      	strb	r5, [r4, #12]
    uuid_.uuid128[13] = (uint8_t)((uuid16 >> 8) & 0x00FF);
    uuid_.type = BLE_UUID_TYPE_128BIT;
   d58ac:	2301      	movs	r3, #1
}

BleUuid::BleUuid(const uint8_t* uuid128, uint16_t uuid16, BleUuidOrder order)
        : BleUuid(uuid128, order) {
    uuid_.uuid128[12] = (uint8_t)(uuid16 & 0x00FF);
    uuid_.uuid128[13] = (uint8_t)((uuid16 >> 8) & 0x00FF);
   d58ae:	0a2d      	lsrs	r5, r5, #8
   d58b0:	7365      	strb	r5, [r4, #13]
    uuid_.type = BLE_UUID_TYPE_128BIT;
   d58b2:	7423      	strb	r3, [r4, #16]
}
   d58b4:	4620      	mov	r0, r4
   d58b6:	bd38      	pop	{r3, r4, r5, pc}

000d58b8 <_ZNK8particle7BleUuid4typeEv>:
        uint8_t temp[BLE_SIG_UUID_128BIT_LEN] = {};
        return memcmp(uuid_.uuid128, temp, BLE_SIG_UUID_128BIT_LEN);
    }
}

BleUuidType BleUuid::type() const {
   d58b8:	7c03      	ldrb	r3, [r0, #16]
   d58ba:	f013 0ffd 	tst.w	r3, #253	; 0xfd
    if (uuid_.type == BLE_UUID_TYPE_16BIT || uuid_.type == BLE_UUID_TYPE_128BIT_SHORTED) {
        return BleUuidType::SHORT;
    } else {
        return BleUuidType::LONG;
    }
}
   d58be:	bf14      	ite	ne
   d58c0:	2001      	movne	r0, #1
   d58c2:	2000      	moveq	r0, #0
   d58c4:	4770      	bx	lr

000d58c6 <_ZNK8particle7BleUuid7isValidEv>:

BleUuid::BleUuid(const String& uuid)
        : BleUuid(uuid.c_str()) {
}

bool BleUuid::isValid() const {
   d58c6:	b51f      	push	{r0, r1, r2, r3, r4, lr}
   d58c8:	4604      	mov	r4, r0
    if (type() == BleUuidType::SHORT) {
   d58ca:	f7ff fff5 	bl	d58b8 <_ZNK8particle7BleUuid4typeEv>
   d58ce:	b908      	cbnz	r0, d58d4 <_ZNK8particle7BleUuid7isValidEv+0xe>
        return uuid_.uuid16 != 0x0000;
   d58d0:	8820      	ldrh	r0, [r4, #0]
   d58d2:	e009      	b.n	d58e8 <_ZNK8particle7BleUuid7isValidEv+0x22>
    } else {
        uint8_t temp[BLE_SIG_UUID_128BIT_LEN] = {};
   d58d4:	2210      	movs	r2, #16
   d58d6:	2100      	movs	r1, #0
   d58d8:	4668      	mov	r0, sp
   d58da:	f003 f992 	bl	d8c02 <memset>
        return memcmp(uuid_.uuid128, temp, BLE_SIG_UUID_128BIT_LEN);
   d58de:	2210      	movs	r2, #16
   d58e0:	4669      	mov	r1, sp
   d58e2:	4620      	mov	r0, r4
   d58e4:	f003 f958 	bl	d8b98 <memcmp>
   d58e8:	3000      	adds	r0, #0
   d58ea:	bf18      	it	ne
   d58ec:	2001      	movne	r0, #1
    }
}
   d58ee:	b004      	add	sp, #16
   d58f0:	bd10      	pop	{r4, pc}

000d58f2 <_ZNK8particle7BleUuid7shortedEv>:
    return uuid_;
}

uint16_t BleUuid::shorted() const {
    return uuid_.uuid16;
}
   d58f2:	8800      	ldrh	r0, [r0, #0]
   d58f4:	4770      	bx	lr

000d58f6 <_ZNK8particle7BleUuid8rawBytesEv>:
    memcpy(uuid128, uuid_.uuid128, BLE_SIG_UUID_128BIT_LEN);
}

const uint8_t* BleUuid::rawBytes() const {
    return uuid_.uuid128;
}
   d58f6:	4770      	bx	lr

000d58f8 <_ZN8particle7BleUuidaSERKS0_>:
    memcpy(buf, cStr, len);
    buf[len++] = '\0';
    return len;
}

BleUuid& BleUuid::operator=(const BleUuid& uuid) {
   d58f8:	b510      	push	{r4, lr}
    uuid_ = uuid.uuid_;
   d58fa:	4603      	mov	r3, r0
   d58fc:	f101 0214 	add.w	r2, r1, #20
   d5900:	f851 4b04 	ldr.w	r4, [r1], #4
   d5904:	f843 4b04 	str.w	r4, [r3], #4
   d5908:	4291      	cmp	r1, r2
   d590a:	d1f9      	bne.n	d5900 <_ZN8particle7BleUuidaSERKS0_+0x8>
    return *this;
}
   d590c:	bd10      	pop	{r4, pc}

000d590e <_ZN8particle7BleUuidaSEPKh>:

BleUuid& BleUuid::operator=(const uint8_t* uuid128) {
   d590e:	b510      	push	{r4, lr}
    if (uuid128) {
   d5910:	b151      	cbz	r1, d5928 <_ZN8particle7BleUuidaSEPKh+0x1a>
        memcpy(uuid_.uuid128, uuid128, BLE_SIG_UUID_128BIT_LEN);
   d5912:	4603      	mov	r3, r0
   d5914:	f101 0210 	add.w	r2, r1, #16
   d5918:	f851 4b04 	ldr.w	r4, [r1], #4
   d591c:	f843 4b04 	str.w	r4, [r3], #4
   d5920:	4291      	cmp	r1, r2
   d5922:	d1f9      	bne.n	d5918 <_ZN8particle7BleUuidaSEPKh+0xa>
        uuid_.type = BLE_UUID_TYPE_128BIT;
   d5924:	2301      	movs	r3, #1
   d5926:	7403      	strb	r3, [r0, #16]
    }
    return *this;
}
   d5928:	bd10      	pop	{r4, pc}

000d592a <_ZNK8particle7BleUuideqERKS0_>:
BleUuid& BleUuid::operator=(const hal_ble_uuid_t& uuid) {
    uuid_ = uuid;
    return *this;
}

bool BleUuid::operator==(const BleUuid& uuid) const {
   d592a:	b510      	push	{r4, lr}
   d592c:	4604      	mov	r4, r0
    if (type() == BleUuidType::SHORT) {
   d592e:	f7ff ffc3 	bl	d58b8 <_ZNK8particle7BleUuid4typeEv>
   d5932:	b928      	cbnz	r0, d5940 <_ZNK8particle7BleUuideqERKS0_+0x16>
        return (uuid_.uuid16 == uuid.uuid_.uuid16);
   d5934:	8808      	ldrh	r0, [r1, #0]
   d5936:	8823      	ldrh	r3, [r4, #0]
   d5938:	1a1b      	subs	r3, r3, r0
   d593a:	4258      	negs	r0, r3
   d593c:	4158      	adcs	r0, r3
   d593e:	bd10      	pop	{r4, pc}
    } else {
        return !memcmp(uuid_.uuid128, uuid.uuid_.uuid128, BLE_SIG_UUID_128BIT_LEN);
   d5940:	2210      	movs	r2, #16
   d5942:	4620      	mov	r0, r4
   d5944:	f003 f928 	bl	d8b98 <memcmp>
   d5948:	fab0 f080 	clz	r0, r0
   d594c:	0940      	lsrs	r0, r0, #5
    }
}
   d594e:	bd10      	pop	{r4, pc}

000d5950 <_ZN8particle7BleUuid9constructEPKc>:

bool BleUuid::operator==(const uint8_t* uuid128) const {
    return (type() == BleUuidType::LONG && !memcmp(uuid128, uuid_.uuid128, BLE_SIG_UUID_128BIT_LEN));
}

void BleUuid::construct(const char* uuid) {
   d5950:	b5f7      	push	{r0, r1, r2, r4, r5, r6, r7, lr}
   d5952:	4605      	mov	r5, r0
    if (uuid == nullptr) {
   d5954:	460e      	mov	r6, r1
   d5956:	b919      	cbnz	r1, d5960 <_ZN8particle7BleUuid9constructEPKc+0x10>
        memset(uuid_.uuid128, 0x00, BLE_SIG_UUID_128BIT_LEN);
   d5958:	2210      	movs	r2, #16
   d595a:	f003 f952 	bl	d8c02 <memset>
   d595e:	e051      	b.n	d5a04 <_ZN8particle7BleUuid9constructEPKc+0xb4>
        uuid_.type = BLE_UUID_TYPE_128BIT;
        return;
    }
    if (strnlen(uuid, BLE_SIG_UUID_128BIT_LEN * 2 + 4) == (BLE_SIG_UUID_16BIT_LEN * 2)) {
   d5960:	2124      	movs	r1, #36	; 0x24
   d5962:	4630      	mov	r0, r6
   d5964:	f003 f9af 	bl	d8cc6 <strnlen>
   d5968:	2804      	cmp	r0, #4
   d596a:	d002      	beq.n	d5972 <_ZN8particle7BleUuid9constructEPKc+0x22>
   d596c:	2700      	movs	r7, #0
   d596e:	2410      	movs	r4, #16
   d5970:	e03b      	b.n	d59ea <_ZN8particle7BleUuid9constructEPKc+0x9a>

inline size_t hexToBytes(const char* src, char* dest, size_t size) {
    size_t n = 0;
    while (n < size) {
        const int h = hexToNibble(*src++);
   d5972:	7830      	ldrb	r0, [r6, #0]
   d5974:	f7ff ff1c 	bl	d57b0 <_ZN8particle11hexToNibbleEc>
        if (h < 0) {
   d5978:	1e04      	subs	r4, r0, #0
   d597a:	db47      	blt.n	d5a0c <_ZN8particle7BleUuid9constructEPKc+0xbc>
            break;
        }
        const int l = hexToNibble(*src++);
   d597c:	7870      	ldrb	r0, [r6, #1]
   d597e:	f7ff ff17 	bl	d57b0 <_ZN8particle11hexToNibbleEc>
        if (l < 0) {
   d5982:	2800      	cmp	r0, #0
   d5984:	db42      	blt.n	d5a0c <_ZN8particle7BleUuid9constructEPKc+0xbc>
            break;
        }
        *dest++ = ((unsigned)h << 4) | (unsigned)l;
   d5986:	ea40 1004 	orr.w	r0, r0, r4, lsl #4
   d598a:	f88d 0004 	strb.w	r0, [sp, #4]
}

inline size_t hexToBytes(const char* src, char* dest, size_t size) {
    size_t n = 0;
    while (n < size) {
        const int h = hexToNibble(*src++);
   d598e:	78b0      	ldrb	r0, [r6, #2]
   d5990:	f7ff ff0e 	bl	d57b0 <_ZN8particle11hexToNibbleEc>
        if (h < 0) {
   d5994:	1e04      	subs	r4, r0, #0
   d5996:	db39      	blt.n	d5a0c <_ZN8particle7BleUuid9constructEPKc+0xbc>
            break;
        }
        const int l = hexToNibble(*src++);
   d5998:	78f0      	ldrb	r0, [r6, #3]
   d599a:	f7ff ff09 	bl	d57b0 <_ZN8particle11hexToNibbleEc>
        if (l < 0) {
   d599e:	2800      	cmp	r0, #0
   d59a0:	db34      	blt.n	d5a0c <_ZN8particle7BleUuid9constructEPKc+0xbc>
            break;
        }
        *dest++ = ((unsigned)h << 4) | (unsigned)l;
   d59a2:	ea40 1004 	orr.w	r0, r0, r4, lsl #4
        char buf[2] = {};
        if (hexToBytes(uuid, buf, BLE_SIG_UUID_16BIT_LEN) == BLE_SIG_UUID_16BIT_LEN) {
            uuid_.uuid16 = ((uint16_t)buf[0] << 8) | (uint16_t)buf[1];
   d59a6:	f89d 3004 	ldrb.w	r3, [sp, #4]
   d59aa:	b2c0      	uxtb	r0, r0
   d59ac:	ea40 2003 	orr.w	r0, r0, r3, lsl #8
   d59b0:	8028      	strh	r0, [r5, #0]
        } else {
            uuid_.uuid16 = 0x0000;
        }
        uuid_.type = BLE_UUID_TYPE_16BIT;
   d59b2:	2300      	movs	r3, #0
   d59b4:	e027      	b.n	d5a06 <_ZN8particle7BleUuid9constructEPKc+0xb6>
        return;
    }
    size_t len = BLE_SIG_UUID_128BIT_LEN;
    for (size_t i = 0; i < strnlen(uuid, BLE_SIG_UUID_128BIT_LEN * 2 + 4) && len > 0; i++) {
   d59b6:	b32c      	cbz	r4, d5a04 <_ZN8particle7BleUuid9constructEPKc+0xb4>
        int8_t hi = hexToNibble(uuid[i]);
   d59b8:	5df0      	ldrb	r0, [r6, r7]
   d59ba:	f7ff fef9 	bl	d57b0 <_ZN8particle11hexToNibbleEc>
        if (hi >= 0) {
   d59be:	0603      	lsls	r3, r0, #24
   d59c0:	d412      	bmi.n	d59e8 <_ZN8particle7BleUuid9constructEPKc+0x98>
            uuid_.uuid128[len - 1] = hi << 4;
   d59c2:	3c01      	subs	r4, #1
   d59c4:	0100      	lsls	r0, r0, #4
   d59c6:	5528      	strb	r0, [r5, r4]
            if (++i < strnlen(uuid, BLE_SIG_UUID_128BIT_LEN * 2 + 4)) {
   d59c8:	2124      	movs	r1, #36	; 0x24
   d59ca:	4630      	mov	r0, r6
   d59cc:	f003 f97b 	bl	d8cc6 <strnlen>
   d59d0:	3701      	adds	r7, #1
   d59d2:	4287      	cmp	r7, r0
   d59d4:	d208      	bcs.n	d59e8 <_ZN8particle7BleUuid9constructEPKc+0x98>
                int8_t lo = hexToNibble(uuid[i]);
   d59d6:	5df0      	ldrb	r0, [r6, r7]
   d59d8:	f7ff feea 	bl	d57b0 <_ZN8particle11hexToNibbleEc>
   d59dc:	b240      	sxtb	r0, r0
                if (lo >= 0) {
   d59de:	2800      	cmp	r0, #0
                    uuid_.uuid128[len - 1] |= lo;
   d59e0:	bfa2      	ittt	ge
   d59e2:	5d2b      	ldrbge	r3, [r5, r4]
   d59e4:	4318      	orrge	r0, r3
   d59e6:	5528      	strbge	r0, [r5, r4]
        }
        uuid_.type = BLE_UUID_TYPE_16BIT;
        return;
    }
    size_t len = BLE_SIG_UUID_128BIT_LEN;
    for (size_t i = 0; i < strnlen(uuid, BLE_SIG_UUID_128BIT_LEN * 2 + 4) && len > 0; i++) {
   d59e8:	3701      	adds	r7, #1
   d59ea:	2124      	movs	r1, #36	; 0x24
   d59ec:	4630      	mov	r0, r6
   d59ee:	f003 f96a 	bl	d8cc6 <strnlen>
   d59f2:	4287      	cmp	r7, r0
   d59f4:	d3df      	bcc.n	d59b6 <_ZN8particle7BleUuid9constructEPKc+0x66>
   d59f6:	442c      	add	r4, r5
            }
            len--;
        }
    }
    while (len > 0) {
        uuid_.uuid128[len - 1] = 0x00;
   d59f8:	2300      	movs	r3, #0
                }
            }
            len--;
        }
    }
    while (len > 0) {
   d59fa:	42a5      	cmp	r5, r4
   d59fc:	d002      	beq.n	d5a04 <_ZN8particle7BleUuid9constructEPKc+0xb4>
        uuid_.uuid128[len - 1] = 0x00;
   d59fe:	f804 3d01 	strb.w	r3, [r4, #-1]!
                }
            }
            len--;
        }
    }
    while (len > 0) {
   d5a02:	e7fa      	b.n	d59fa <_ZN8particle7BleUuid9constructEPKc+0xaa>
        uuid_.uuid128[len - 1] = 0x00;
        len--;
    }
    uuid_.type = BLE_UUID_TYPE_128BIT;
   d5a04:	2301      	movs	r3, #1
   d5a06:	742b      	strb	r3, [r5, #16]
}
   d5a08:	b003      	add	sp, #12
   d5a0a:	bdf0      	pop	{r4, r5, r6, r7, pc}
    if (strnlen(uuid, BLE_SIG_UUID_128BIT_LEN * 2 + 4) == (BLE_SIG_UUID_16BIT_LEN * 2)) {
        char buf[2] = {};
        if (hexToBytes(uuid, buf, BLE_SIG_UUID_16BIT_LEN) == BLE_SIG_UUID_16BIT_LEN) {
            uuid_.uuid16 = ((uint16_t)buf[0] << 8) | (uint16_t)buf[1];
        } else {
            uuid_.uuid16 = 0x0000;
   d5a0c:	2300      	movs	r3, #0
   d5a0e:	802b      	strh	r3, [r5, #0]
   d5a10:	e7cf      	b.n	d59b2 <_ZN8particle7BleUuid9constructEPKc+0x62>

000d5a12 <_ZN8particle7BleUuidC1EPKc>:
    uuid_.uuid128[12] = (uint8_t)(uuid16 & 0x00FF);
    uuid_.uuid128[13] = (uint8_t)((uuid16 >> 8) & 0x00FF);
    uuid_.type = BLE_UUID_TYPE_128BIT;
}

BleUuid::BleUuid(const char* uuid)
   d5a12:	b538      	push	{r3, r4, r5, lr}
   d5a14:	4604      	mov	r4, r0
   d5a16:	460d      	mov	r5, r1
        : BleUuid() {
   d5a18:	f7ff ff08 	bl	d582c <_ZN8particle7BleUuidC1Ev>
    construct(uuid);
   d5a1c:	4620      	mov	r0, r4
   d5a1e:	4629      	mov	r1, r5
   d5a20:	f7ff ff96 	bl	d5950 <_ZN8particle7BleUuid9constructEPKc>
}
   d5a24:	4620      	mov	r0, r4
   d5a26:	bd38      	pop	{r3, r4, r5, pc}

000d5a28 <_ZN8particle18BleAdvertisingData6locateEPKhjNS_22BleAdvertisingDataTypeEPj>:
        break;
    }
    return found;
}

size_t BleAdvertisingData::locate(const uint8_t* buf, size_t len, BleAdvertisingDataType type, size_t* offset) {
   d5a28:	b5f0      	push	{r4, r5, r6, r7, lr}
    if (offset == nullptr) {
   d5a2a:	b18b      	cbz	r3, d5a50 <_ZN8particle18BleAdvertisingData6locateEPKhjNS_22BleAdvertisingDataTypeEPj+0x28>
   d5a2c:	2400      	movs	r4, #0
        return 0;
    }
    uint8_t adsType = static_cast<uint8_t>(type);
    size_t adsLen;
    for (size_t i = 0; (i + 3) <= len; i = i) {
   d5a2e:	1ce5      	adds	r5, r4, #3
   d5a30:	428d      	cmp	r5, r1
   d5a32:	d80f      	bhi.n	d5a54 <_ZN8particle18BleAdvertisingData6locateEPKhjNS_22BleAdvertisingDataTypeEPj+0x2c>
        adsLen = buf[i];
        if (buf[i + 1] == adsType) {
   d5a34:	1c66      	adds	r6, r4, #1
        return 0;
    }
    uint8_t adsType = static_cast<uint8_t>(type);
    size_t adsLen;
    for (size_t i = 0; (i + 3) <= len; i = i) {
        adsLen = buf[i];
   d5a36:	5d05      	ldrb	r5, [r0, r4]
        if (buf[i + 1] == adsType) {
   d5a38:	5d87      	ldrb	r7, [r0, r6]
   d5a3a:	4297      	cmp	r7, r2
   d5a3c:	d105      	bne.n	d5a4a <_ZN8particle18BleAdvertisingData6locateEPKhjNS_22BleAdvertisingDataTypeEPj+0x22>
            // The value of adsLen doesn't include the length field of an AD structure.
            if ((i + adsLen + 1) <= len) {
   d5a3e:	442e      	add	r6, r5
   d5a40:	42b1      	cmp	r1, r6
   d5a42:	d307      	bcc.n	d5a54 <_ZN8particle18BleAdvertisingData6locateEPKhjNS_22BleAdvertisingDataTypeEPj+0x2c>
                *offset = i;
   d5a44:	601c      	str	r4, [r3, #0]
                adsLen += 1;
   d5a46:	1c68      	adds	r0, r5, #1
                return adsLen;
   d5a48:	bdf0      	pop	{r4, r5, r6, r7, pc}
            } else {
                return 0;
            }
        } else {
            // Navigate to the next AD structure.
            i += (adsLen + 1);
   d5a4a:	3501      	adds	r5, #1
   d5a4c:	442c      	add	r4, r5
    if (offset == nullptr) {
        return 0;
    }
    uint8_t adsType = static_cast<uint8_t>(type);
    size_t adsLen;
    for (size_t i = 0; (i + 3) <= len; i = i) {
   d5a4e:	e7ee      	b.n	d5a2e <_ZN8particle18BleAdvertisingData6locateEPKhjNS_22BleAdvertisingDataTypeEPj+0x6>
    return found;
}

size_t BleAdvertisingData::locate(const uint8_t* buf, size_t len, BleAdvertisingDataType type, size_t* offset) {
    if (offset == nullptr) {
        return 0;
   d5a50:	4618      	mov	r0, r3
   d5a52:	bdf0      	pop	{r4, r5, r6, r7, pc}
   d5a54:	2000      	movs	r0, #0
            // Navigate to the next AD structure.
            i += (adsLen + 1);
        }
    }
    return 0;
}
   d5a56:	bdf0      	pop	{r4, r5, r6, r7, pc}

000d5a58 <_ZN8particle18BleAdvertisingData6appendENS_22BleAdvertisingDataTypeEPKhjb>:
    selfData_[selfLen_++] = beacon.measurePower;

    return selfLen_;
}

size_t BleAdvertisingData::append(BleAdvertisingDataType type, const uint8_t* buf, size_t len, bool force) {
   d5a58:	e92d 43f7 	stmdb	sp!, {r0, r1, r2, r4, r5, r6, r7, r8, r9, lr}
   d5a5c:	4604      	mov	r4, r0
   d5a5e:	460e      	mov	r6, r1
   d5a60:	461d      	mov	r5, r3
    if (buf == nullptr) {
   d5a62:	4617      	mov	r7, r2
   d5a64:	2a00      	cmp	r2, #0
   d5a66:	d03a      	beq.n	d5ade <_ZN8particle18BleAdvertisingData6appendENS_22BleAdvertisingDataTypeEPKhjb+0x86>
        return selfLen_;
    }
    size_t offset;
    size_t adsLen = locate(selfData_, selfLen_, type, &offset);
   d5a68:	460a      	mov	r2, r1
   d5a6a:	ab01      	add	r3, sp, #4
   d5a6c:	6a01      	ldr	r1, [r0, #32]
   d5a6e:	f7ff ffdb 	bl	d5a28 <_ZN8particle18BleAdvertisingData6locateEPKhjNS_22BleAdvertisingDataTypeEPj>
    if (!force && adsLen > 0) {
   d5a72:	f89d 3028 	ldrb.w	r3, [sp, #40]	; 0x28
   d5a76:	6a22      	ldr	r2, [r4, #32]
   d5a78:	bb03      	cbnz	r3, d5abc <_ZN8particle18BleAdvertisingData6appendENS_22BleAdvertisingDataTypeEPKhjb+0x64>
   d5a7a:	b1f8      	cbz	r0, d5abc <_ZN8particle18BleAdvertisingData6appendENS_22BleAdvertisingDataTypeEPKhjb+0x64>
        // Update the existing AD structure.
        size_t staLen = selfLen_ - adsLen;
        if ((staLen + len + 2) <= BLE_MAX_ADV_DATA_LEN) {
   d5a7c:	1c96      	adds	r6, r2, #2
   d5a7e:	442e      	add	r6, r5
   d5a80:	1a36      	subs	r6, r6, r0
   d5a82:	2e1f      	cmp	r6, #31
   d5a84:	d82b      	bhi.n	d5ade <_ZN8particle18BleAdvertisingData6appendENS_22BleAdvertisingDataTypeEPKhjb+0x86>
            // Firstly, move the last consistent block.
            uint16_t moveLen = selfLen_ - offset - adsLen;
   d5a86:	f8dd 8004 	ldr.w	r8, [sp, #4]
   d5a8a:	f108 0902 	add.w	r9, r8, #2
            memmove(&selfData_[offset + len + 2], &selfData_[offset + adsLen], moveLen);
   d5a8e:	ebc8 0202 	rsb	r2, r8, r2
   d5a92:	1a12      	subs	r2, r2, r0
   d5a94:	eb00 0108 	add.w	r1, r0, r8
   d5a98:	eb05 0009 	add.w	r0, r5, r9
   d5a9c:	b292      	uxth	r2, r2
   d5a9e:	4421      	add	r1, r4
   d5aa0:	4420      	add	r0, r4
   d5aa2:	f003 f893 	bl	d8bcc <memmove>
            // Secondly, Update the AD structure.
            // The Length field is the total length of Type field and Data field.
            selfData_[offset] = len + 1;
   d5aa6:	1c6b      	adds	r3, r5, #1
   d5aa8:	f804 3008 	strb.w	r3, [r4, r8]
            memcpy(&selfData_[offset + 2], buf, len);
   d5aac:	462a      	mov	r2, r5
   d5aae:	4639      	mov	r1, r7
   d5ab0:	eb04 0009 	add.w	r0, r4, r9
   d5ab4:	f003 f87f 	bl	d8bb6 <memcpy>
            // An AD structure is composed of one byte length field, one byte Type field and Data field.
            selfLen_ = staLen + len + 2;
   d5ab8:	6226      	str	r6, [r4, #32]
   d5aba:	e010      	b.n	d5ade <_ZN8particle18BleAdvertisingData6appendENS_22BleAdvertisingDataTypeEPKhjb+0x86>
   d5abc:	1c90      	adds	r0, r2, #2
        }
    }
    else if ((selfLen_ + len + 2) <= BLE_MAX_ADV_DATA_LEN) {
   d5abe:	182b      	adds	r3, r5, r0
   d5ac0:	2b1f      	cmp	r3, #31
   d5ac2:	d80c      	bhi.n	d5ade <_ZN8particle18BleAdvertisingData6appendENS_22BleAdvertisingDataTypeEPKhjb+0x86>
        // Append the AD structure at the and of advertising data.
        selfData_[selfLen_++] = len + 1;
   d5ac4:	1c6b      	adds	r3, r5, #1
   d5ac6:	54a3      	strb	r3, [r4, r2]
        selfData_[selfLen_++] = static_cast<uint8_t>(type);
   d5ac8:	4422      	add	r2, r4
   d5aca:	6220      	str	r0, [r4, #32]
        memcpy(&selfData_[selfLen_], buf, len);
   d5acc:	4639      	mov	r1, r7
        }
    }
    else if ((selfLen_ + len + 2) <= BLE_MAX_ADV_DATA_LEN) {
        // Append the AD structure at the and of advertising data.
        selfData_[selfLen_++] = len + 1;
        selfData_[selfLen_++] = static_cast<uint8_t>(type);
   d5ace:	7056      	strb	r6, [r2, #1]
        memcpy(&selfData_[selfLen_], buf, len);
   d5ad0:	4420      	add	r0, r4
   d5ad2:	462a      	mov	r2, r5
   d5ad4:	f003 f86f 	bl	d8bb6 <memcpy>
        selfLen_ += len;
   d5ad8:	6a22      	ldr	r2, [r4, #32]
   d5ada:	442a      	add	r2, r5
   d5adc:	6222      	str	r2, [r4, #32]
    }
    return selfLen_;
   d5ade:	6a20      	ldr	r0, [r4, #32]
}
   d5ae0:	b003      	add	sp, #12
   d5ae2:	e8bd 83f0 	ldmia.w	sp!, {r4, r5, r6, r7, r8, r9, pc}

000d5ae6 <_ZN8particle18BleAdvertisingDataC1Ev>:


/*******************************************************
 * BleAdvertisingData class
 */
BleAdvertisingData::BleAdvertisingData()
   d5ae6:	b51f      	push	{r0, r1, r2, r3, r4, lr}
   d5ae8:	4604      	mov	r4, r0
        : selfData_(),
          selfLen_(0) {
   d5aea:	4603      	mov	r3, r0
   d5aec:	f100 021f 	add.w	r2, r0, #31
   d5af0:	2000      	movs	r0, #0
   d5af2:	f803 0b01 	strb.w	r0, [r3], #1
   d5af6:	4293      	cmp	r3, r2
   d5af8:	f04f 0100 	mov.w	r1, #0
   d5afc:	d1f9      	bne.n	d5af2 <_ZN8particle18BleAdvertisingDataC1Ev+0xc>
    uint8_t flag = BLE_SIG_ADV_FLAGS_LE_ONLY_GENERAL_DISC_MODE;
   d5afe:	aa04      	add	r2, sp, #16
   d5b00:	2306      	movs	r3, #6
   d5b02:	f802 3d01 	strb.w	r3, [r2, #-1]!
    append(BleAdvertisingDataType::FLAGS, &flag, sizeof(uint8_t));
   d5b06:	2301      	movs	r3, #1
/*******************************************************
 * BleAdvertisingData class
 */
BleAdvertisingData::BleAdvertisingData()
        : selfData_(),
          selfLen_(0) {
   d5b08:	6221      	str	r1, [r4, #32]
    uint8_t flag = BLE_SIG_ADV_FLAGS_LE_ONLY_GENERAL_DISC_MODE;
    append(BleAdvertisingDataType::FLAGS, &flag, sizeof(uint8_t));
   d5b0a:	9100      	str	r1, [sp, #0]
   d5b0c:	4620      	mov	r0, r4
   d5b0e:	4619      	mov	r1, r3
   d5b10:	f7ff ffa2 	bl	d5a58 <_ZN8particle18BleAdvertisingData6appendENS_22BleAdvertisingDataTypeEPKhjb>
}
   d5b14:	4620      	mov	r0, r4
   d5b16:	b004      	add	sp, #16
   d5b18:	bd10      	pop	{r4, pc}

000d5b1a <_ZN8particle18BleAdvertisingData6removeENS_22BleAdvertisingDataTypeE>:
void BleAdvertisingData::clear() {
    selfLen_ = 0;
    memset(selfData_, 0x00, sizeof(selfData_));
}

void BleAdvertisingData::remove(BleAdvertisingDataType type) {
   d5b1a:	b573      	push	{r0, r1, r4, r5, r6, lr}
    size_t offset, len;
    len = locate(selfData_, selfLen_, type, &offset);
   d5b1c:	460a      	mov	r2, r1
void BleAdvertisingData::clear() {
    selfLen_ = 0;
    memset(selfData_, 0x00, sizeof(selfData_));
}

void BleAdvertisingData::remove(BleAdvertisingDataType type) {
   d5b1e:	460e      	mov	r6, r1
    size_t offset, len;
    len = locate(selfData_, selfLen_, type, &offset);
   d5b20:	ab01      	add	r3, sp, #4
   d5b22:	6a01      	ldr	r1, [r0, #32]
void BleAdvertisingData::clear() {
    selfLen_ = 0;
    memset(selfData_, 0x00, sizeof(selfData_));
}

void BleAdvertisingData::remove(BleAdvertisingDataType type) {
   d5b24:	4604      	mov	r4, r0
    size_t offset, len;
    len = locate(selfData_, selfLen_, type, &offset);
   d5b26:	f7ff ff7f 	bl	d5a28 <_ZN8particle18BleAdvertisingData6locateEPKhjNS_22BleAdvertisingDataTypeEPj>
    if (len > 0) {
   d5b2a:	4605      	mov	r5, r0
   d5b2c:	b178      	cbz	r0, d5b4e <_ZN8particle18BleAdvertisingData6removeENS_22BleAdvertisingDataTypeE+0x34>
        size_t moveLen = selfLen_ - offset - len;
   d5b2e:	9801      	ldr	r0, [sp, #4]
        memcpy(&selfData_[offset], &selfData_[offset + len], moveLen);
   d5b30:	6a22      	ldr	r2, [r4, #32]
   d5b32:	1829      	adds	r1, r5, r0
   d5b34:	1a12      	subs	r2, r2, r0
   d5b36:	1b52      	subs	r2, r2, r5
   d5b38:	4421      	add	r1, r4
   d5b3a:	4420      	add	r0, r4
   d5b3c:	f003 f83b 	bl	d8bb6 <memcpy>
        selfLen_ -= len;
   d5b40:	6a23      	ldr	r3, [r4, #32]
   d5b42:	1b5d      	subs	r5, r3, r5
   d5b44:	6225      	str	r5, [r4, #32]
        // Recursively remove duplicated type.
        remove(type);
   d5b46:	4631      	mov	r1, r6
   d5b48:	4620      	mov	r0, r4
   d5b4a:	f7ff ffe6 	bl	d5b1a <_ZN8particle18BleAdvertisingData6removeENS_22BleAdvertisingDataTypeE>
    }
}
   d5b4e:	b002      	add	sp, #8
   d5b50:	bd70      	pop	{r4, r5, r6, pc}
	...

000d5b54 <_ZN8particle21BleCharacteristicImplC1Ev>:
/*******************************************************
 * BleCharacteristicImpl definition
 */
class BleCharacteristicImpl {
public:
    BleCharacteristicImpl()
   d5b54:	b538      	push	{r3, r4, r5, lr}
              attrHandles_(),
              charUuid_(),
              svcUuid_(),
              description_(),
              callback_(nullptr),
              context_(nullptr) {
   d5b56:	2500      	movs	r5, #0
   d5b58:	f64f 73ff 	movw	r3, #65535	; 0xffff
/*******************************************************
 * BleCharacteristicImpl definition
 */
class BleCharacteristicImpl {
public:
    BleCharacteristicImpl()
   d5b5c:	4604      	mov	r4, r0
              attrHandles_(),
              charUuid_(),
              svcUuid_(),
              description_(),
              callback_(nullptr),
              context_(nullptr) {
   d5b5e:	8043      	strh	r3, [r0, #2]
   d5b60:	220e      	movs	r2, #14
   d5b62:	4629      	mov	r1, r5
   d5b64:	7005      	strb	r5, [r0, #0]
   d5b66:	7105      	strb	r5, [r0, #4]
   d5b68:	3006      	adds	r0, #6
   d5b6a:	f003 f84a 	bl	d8c02 <memset>
   d5b6e:	f104 0014 	add.w	r0, r4, #20
   d5b72:	f7ff fe5b 	bl	d582c <_ZN8particle7BleUuidC1Ev>
   d5b76:	f104 0028 	add.w	r0, r4, #40	; 0x28
   d5b7a:	f7ff fe57 	bl	d582c <_ZN8particle7BleUuidC1Ev>
   d5b7e:	4904      	ldr	r1, [pc, #16]	; (d5b90 <_ZN8particle21BleCharacteristicImplC1Ev+0x3c>)
   d5b80:	f104 003c 	add.w	r0, r4, #60	; 0x3c
   d5b84:	f001 fd19 	bl	d75ba <_ZN6StringC1EPK19__FlashStringHelper>
   d5b88:	64e5      	str	r5, [r4, #76]	; 0x4c
   d5b8a:	6525      	str	r5, [r4, #80]	; 0x50
    }
   d5b8c:	4620      	mov	r0, r4
   d5b8e:	bd38      	pop	{r3, r4, r5, pc}
   d5b90:	000d9130 	.word	0x000d9130

000d5b94 <_ZN8particle18BleLocalDeviceImpl14findPeerDeviceEt>:
    void onDisconnectedCallback(BleOnDisconnectedCallback callback, void* context) {
        disconnectedCb_ = callback;
        disconnectedContext_ = context;
    }

    BlePeerDevice* findPeerDevice(BleConnectionHandle connHandle) {
   d5b94:	b510      	push	{r4, lr}
   d5b96:	6983      	ldr	r3, [r0, #24]
    return data_;
}

template<typename T, typename AllocatorT>
T* spark::Vector<T, AllocatorT>::end() {
    return data_ + size_;
   d5b98:	69c2      	ldr	r2, [r0, #28]
   d5b9a:	eb03 02c2 	add.w	r2, r3, r2, lsl #3
        for (auto& peer : peers_) {
   d5b9e:	4293      	cmp	r3, r2
   d5ba0:	4618      	mov	r0, r3
   d5ba2:	d006      	beq.n	d5bb2 <_ZN8particle18BleLocalDeviceImpl14findPeerDeviceEt+0x1e>
            if (peer.impl()->connHandle() == connHandle) {
   d5ba4:	6804      	ldr	r4, [r0, #0]
   d5ba6:	8824      	ldrh	r4, [r4, #0]
   d5ba8:	428c      	cmp	r4, r1
   d5baa:	f103 0308 	add.w	r3, r3, #8
   d5bae:	d1f6      	bne.n	d5b9e <_ZN8particle18BleLocalDeviceImpl14findPeerDeviceEt+0xa>
   d5bb0:	bd10      	pop	{r4, pc}
                return &peer;
            }
        }
        return nullptr;
   d5bb2:	2000      	movs	r0, #0
    }
   d5bb4:	bd10      	pop	{r4, pc}
	...

000d5bb8 <_ZN8particle17BleCharacteristic8setValueEPKhj>:
    len = std::min(len, desc.length());
    memcpy(buf, desc.c_str(), len);
    return len;
}

ssize_t BleCharacteristic::setValue(const uint8_t* buf, size_t len) {
   d5bb8:	b573      	push	{r0, r1, r4, r5, r6, lr}
   d5bba:	4614      	mov	r4, r2
    if (buf == nullptr || len == 0) {
   d5bbc:	460a      	mov	r2, r1
   d5bbe:	b341      	cbz	r1, d5c12 <_ZN8particle17BleCharacteristic8setValueEPKhj+0x5a>
   d5bc0:	b33c      	cbz	r4, d5c12 <_ZN8particle17BleCharacteristic8setValueEPKhj+0x5a>
   d5bc2:	6805      	ldr	r5, [r0, #0]
        return SYSTEM_ERROR_INVALID_ARGUMENT;
    }
    len = std::min(len, (size_t)BLE_MAX_ATTR_VALUE_PACKET_SIZE);
    if (impl()->local()) {
   d5bc4:	782e      	ldrb	r6, [r5, #0]
   d5bc6:	2cf4      	cmp	r4, #244	; 0xf4
   d5bc8:	bf28      	it	cs
   d5bca:	24f4      	movcs	r4, #244	; 0xf4
   d5bcc:	b13e      	cbz	r6, d5bde <_ZN8particle17BleCharacteristic8setValueEPKhj+0x26>
        return hal_ble_gatt_server_set_characteristic_value(impl()->attrHandles().value_handle, buf, len, nullptr);
   d5bce:	89a8      	ldrh	r0, [r5, #12]
   d5bd0:	2300      	movs	r3, #0
   d5bd2:	4622      	mov	r2, r4
        if ((impl()->properties() & BleCharacteristicProperty::WRITE_WO_RSP) == BleCharacteristicProperty::WRITE_WO_RSP) {
            return hal_ble_gatt_client_write_without_response(impl()->connHandle(), impl()->attrHandles().value_handle, buf, len, nullptr);
        }
    }
    return SYSTEM_ERROR_INVALID_STATE;
}
   d5bd4:	b002      	add	sp, #8
   d5bd6:	e8bd 4070 	ldmia.w	sp!, {r4, r5, r6, lr}
    if (buf == nullptr || len == 0) {
        return SYSTEM_ERROR_INVALID_ARGUMENT;
    }
    len = std::min(len, (size_t)BLE_MAX_ATTR_VALUE_PACKET_SIZE);
    if (impl()->local()) {
        return hal_ble_gatt_server_set_characteristic_value(impl()->attrHandles().value_handle, buf, len, nullptr);
   d5bda:	f7ff bac3 	b.w	d5164 <hal_ble_gatt_server_set_characteristic_value>
    }
    if (impl()->connHandle() != BLE_INVALID_CONN_HANDLE) {
   d5bde:	8868      	ldrh	r0, [r5, #2]
   d5be0:	f64f 73ff 	movw	r3, #65535	; 0xffff
   d5be4:	4298      	cmp	r0, r3
   d5be6:	d016      	beq.n	d5c16 <_ZN8particle17BleCharacteristic8setValueEPKhj+0x5e>
        if ((impl()->properties() & BleCharacteristicProperty::WRITE) == BleCharacteristicProperty::WRITE) {
   d5be8:	792b      	ldrb	r3, [r5, #4]
   d5bea:	f043 0108 	orr.w	r1, r3, #8
   d5bee:	2908      	cmp	r1, #8
   d5bf0:	d105      	bne.n	d5bfe <_ZN8particle17BleCharacteristic8setValueEPKhj+0x46>
            return hal_ble_gatt_client_write_with_response(impl()->connHandle(), impl()->attrHandles().value_handle, buf, len, nullptr);
   d5bf2:	89a9      	ldrh	r1, [r5, #12]
   d5bf4:	9600      	str	r6, [sp, #0]
   d5bf6:	4623      	mov	r3, r4
   d5bf8:	f7ff fabe 	bl	d5178 <hal_ble_gatt_client_write_with_response>
   d5bfc:	e00d      	b.n	d5c1a <_ZN8particle17BleCharacteristic8setValueEPKhj+0x62>
        }
        if ((impl()->properties() & BleCharacteristicProperty::WRITE_WO_RSP) == BleCharacteristicProperty::WRITE_WO_RSP) {
   d5bfe:	f043 0304 	orr.w	r3, r3, #4
   d5c02:	2b04      	cmp	r3, #4
   d5c04:	d107      	bne.n	d5c16 <_ZN8particle17BleCharacteristic8setValueEPKhj+0x5e>
            return hal_ble_gatt_client_write_without_response(impl()->connHandle(), impl()->attrHandles().value_handle, buf, len, nullptr);
   d5c06:	89a9      	ldrh	r1, [r5, #12]
   d5c08:	9600      	str	r6, [sp, #0]
   d5c0a:	4623      	mov	r3, r4
   d5c0c:	f7ff fabe 	bl	d518c <hal_ble_gatt_client_write_without_response>
   d5c10:	e003      	b.n	d5c1a <_ZN8particle17BleCharacteristic8setValueEPKhj+0x62>
    return len;
}

ssize_t BleCharacteristic::setValue(const uint8_t* buf, size_t len) {
    if (buf == nullptr || len == 0) {
        return SYSTEM_ERROR_INVALID_ARGUMENT;
   d5c12:	4803      	ldr	r0, [pc, #12]	; (d5c20 <_ZN8particle17BleCharacteristic8setValueEPKhj+0x68>)
   d5c14:	e001      	b.n	d5c1a <_ZN8particle17BleCharacteristic8setValueEPKhj+0x62>
        }
        if ((impl()->properties() & BleCharacteristicProperty::WRITE_WO_RSP) == BleCharacteristicProperty::WRITE_WO_RSP) {
            return hal_ble_gatt_client_write_without_response(impl()->connHandle(), impl()->attrHandles().value_handle, buf, len, nullptr);
        }
    }
    return SYSTEM_ERROR_INVALID_STATE;
   d5c16:	f06f 00d1 	mvn.w	r0, #209	; 0xd1
}
   d5c1a:	b002      	add	sp, #8
   d5c1c:	bd70      	pop	{r4, r5, r6, pc}
   d5c1e:	bf00      	nop
   d5c20:	fffffef2 	.word	0xfffffef2

000d5c24 <_ZNK8particle13BlePeerDevice7addressEv>:

void BlePeerDevice::bind(const BleAddress& address) const {
    impl()->address() = address;
}

BleAddress BlePeerDevice::address() const {
   d5c24:	b510      	push	{r4, lr}
    return impl()->address();
   d5c26:	680a      	ldr	r2, [r1, #0]
   d5c28:	f852 3f02 	ldr.w	r3, [r2, #2]!
   d5c2c:	6003      	str	r3, [r0, #0]
   d5c2e:	6853      	ldr	r3, [r2, #4]
   d5c30:	6043      	str	r3, [r0, #4]
}
   d5c32:	bd10      	pop	{r4, pc}

000d5c34 <_ZNK8particle13BlePeerDeviceeqERKS0_>:

bool BlePeerDevice::operator==(const BlePeerDevice& device) const {
   d5c34:	b51f      	push	{r0, r1, r2, r3, r4, lr}
    if (impl()->connHandle() == device.impl()->connHandle() && address() == device.address()) {
   d5c36:	6802      	ldr	r2, [r0, #0]
   d5c38:	680b      	ldr	r3, [r1, #0]
   d5c3a:	8812      	ldrh	r2, [r2, #0]
   d5c3c:	881b      	ldrh	r3, [r3, #0]
   d5c3e:	429a      	cmp	r2, r3

BleAddress BlePeerDevice::address() const {
    return impl()->address();
}

bool BlePeerDevice::operator==(const BlePeerDevice& device) const {
   d5c40:	460c      	mov	r4, r1
    if (impl()->connHandle() == device.impl()->connHandle() && address() == device.address()) {
   d5c42:	d10c      	bne.n	d5c5e <_ZNK8particle13BlePeerDeviceeqERKS0_+0x2a>
   d5c44:	4601      	mov	r1, r0
   d5c46:	4668      	mov	r0, sp
   d5c48:	f7ff ffec 	bl	d5c24 <_ZNK8particle13BlePeerDevice7addressEv>
   d5c4c:	4621      	mov	r1, r4
   d5c4e:	a802      	add	r0, sp, #8
   d5c50:	f7ff ffe8 	bl	d5c24 <_ZNK8particle13BlePeerDevice7addressEv>
   d5c54:	a902      	add	r1, sp, #8
   d5c56:	4668      	mov	r0, sp
   d5c58:	f7ff fdda 	bl	d5810 <_ZNK8particle10BleAddresseqERKS0_>
   d5c5c:	b900      	cbnz	r0, d5c60 <_ZNK8particle13BlePeerDeviceeqERKS0_+0x2c>
        return true;
    }
    return false;
   d5c5e:	2000      	movs	r0, #0
}
   d5c60:	b004      	add	sp, #16
   d5c62:	bd10      	pop	{r4, pc}

000d5c64 <_ZN8particle14BleLocalDeviceC1Ev>:


/*******************************************************
 * BleLocalDevice class
 */
BleLocalDevice::BleLocalDevice()
   d5c64:	b510      	push	{r4, lr}
   d5c66:	4604      	mov	r4, r0

  /// std::make_unique for single objects
  template<typename _Tp, typename... _Args>
    inline typename _MakeUniq<_Tp>::__single_object
    make_unique(_Args&&... __args)
    { return unique_ptr<_Tp>(new _Tp(std::forward<_Args>(__args)...)); }
   d5c68:	2034      	movs	r0, #52	; 0x34
   d5c6a:	f7fe fa14 	bl	d4096 <_Znwj>
   d5c6e:	4601      	mov	r1, r0
   d5c70:	b168      	cbz	r0, d5c8e <_ZN8particle14BleLocalDeviceC1Ev+0x2a>
// spark::Vector
template<typename T, typename AllocatorT>
inline spark::Vector<T, AllocatorT>::Vector() :
        data_(nullptr),
        size_(0),
        capacity_(0) {
   d5c72:	2300      	movs	r3, #0
   d5c74:	6003      	str	r3, [r0, #0]
   d5c76:	6043      	str	r3, [r0, #4]
   d5c78:	6083      	str	r3, [r0, #8]
   d5c7a:	60c3      	str	r3, [r0, #12]
   d5c7c:	6103      	str	r3, [r0, #16]
   d5c7e:	6143      	str	r3, [r0, #20]
   d5c80:	6183      	str	r3, [r0, #24]
   d5c82:	61c3      	str	r3, [r0, #28]
   d5c84:	6203      	str	r3, [r0, #32]
public:
    BleLocalDeviceImpl()
            : connectedCb_(nullptr),
              disconnectedCb_(nullptr),
              connectedContext_(nullptr),
              disconnectedContext_(nullptr) {
   d5c86:	6243      	str	r3, [r0, #36]	; 0x24
   d5c88:	6283      	str	r3, [r0, #40]	; 0x28
   d5c8a:	62c3      	str	r3, [r0, #44]	; 0x2c
   d5c8c:	6303      	str	r3, [r0, #48]	; 0x30
      constexpr _Head_base(const _Head_base&) = default;
      constexpr _Head_base(_Head_base&&) = default;

      template<typename _UHead>
        constexpr _Head_base(_UHead&& __h)
	: _M_head_impl(std::forward<_UHead>(__h)) { }
   d5c8e:	6021      	str	r1, [r4, #0]
/*******************************************************
 * BleLocalDevice class
 */
BleLocalDevice::BleLocalDevice()
        : impl_(std::make_unique<BleLocalDeviceImpl>()) {
    if (!impl()) {
   d5c90:	b919      	cbnz	r1, d5c9a <_ZN8particle14BleLocalDeviceC1Ev+0x36>
        SPARK_ASSERT(false);
   d5c92:	4a0a      	ldr	r2, [pc, #40]	; (d5cbc <_ZN8particle14BleLocalDeviceC1Ev+0x58>)
   d5c94:	200a      	movs	r0, #10
   d5c96:	f7ff fbff 	bl	d5498 <panic_>
    }
    SPARK_ASSERT(hal_ble_stack_init(nullptr) == SYSTEM_ERROR_NONE);
   d5c9a:	2000      	movs	r0, #0
   d5c9c:	f7ff fa2e 	bl	d50fc <hal_ble_stack_init>
   d5ca0:	b120      	cbz	r0, d5cac <_ZN8particle14BleLocalDeviceC1Ev+0x48>
   d5ca2:	4a06      	ldr	r2, [pc, #24]	; (d5cbc <_ZN8particle14BleLocalDeviceC1Ev+0x58>)
   d5ca4:	2100      	movs	r1, #0
   d5ca6:	200a      	movs	r0, #10
   d5ca8:	f7ff fbf6 	bl	d5498 <panic_>
    hal_ble_set_callback_on_periph_link_events(impl()->onBleLinkEvents, impl(), nullptr);
   d5cac:	2200      	movs	r2, #0
   d5cae:	6821      	ldr	r1, [r4, #0]
   d5cb0:	4803      	ldr	r0, [pc, #12]	; (d5cc0 <_ZN8particle14BleLocalDeviceC1Ev+0x5c>)
   d5cb2:	f7ff fa7f 	bl	d51b4 <hal_ble_set_callback_on_periph_link_events>
}
   d5cb6:	4620      	mov	r0, r4
   d5cb8:	bd10      	pop	{r4, pc}
   d5cba:	bf00      	nop
   d5cbc:	000d5249 	.word	0x000d5249
   d5cc0:	000d6091 	.word	0x000d6091

000d5cc4 <_ZN8particle14BleLocalDevice11getInstanceEv>:

BleLocalDevice& BleLocalDevice::getInstance() {
   d5cc4:	b510      	push	{r4, lr}
    static BleLocalDevice instance;
   d5cc6:	4c0a      	ldr	r4, [pc, #40]	; (d5cf0 <_ZN8particle14BleLocalDevice11getInstanceEv+0x2c>)
   d5cc8:	6823      	ldr	r3, [r4, #0]
   d5cca:	07db      	lsls	r3, r3, #31
   d5ccc:	d40e      	bmi.n	d5cec <_ZN8particle14BleLocalDevice11getInstanceEv+0x28>
   d5cce:	4620      	mov	r0, r4
   d5cd0:	f7fe f9e7 	bl	d40a2 <__cxa_guard_acquire>
   d5cd4:	b150      	cbz	r0, d5cec <_ZN8particle14BleLocalDevice11getInstanceEv+0x28>
   d5cd6:	4807      	ldr	r0, [pc, #28]	; (d5cf4 <_ZN8particle14BleLocalDevice11getInstanceEv+0x30>)
   d5cd8:	f7ff ffc4 	bl	d5c64 <_ZN8particle14BleLocalDeviceC1Ev>
   d5cdc:	4620      	mov	r0, r4
   d5cde:	f7fe f9e5 	bl	d40ac <__cxa_guard_release>
   d5ce2:	4a05      	ldr	r2, [pc, #20]	; (d5cf8 <_ZN8particle14BleLocalDevice11getInstanceEv+0x34>)
   d5ce4:	4905      	ldr	r1, [pc, #20]	; (d5cfc <_ZN8particle14BleLocalDevice11getInstanceEv+0x38>)
   d5ce6:	4803      	ldr	r0, [pc, #12]	; (d5cf4 <_ZN8particle14BleLocalDevice11getInstanceEv+0x30>)
   d5ce8:	f001 ff7c 	bl	d7be4 <__aeabi_atexit>
    return instance;
}
   d5cec:	4801      	ldr	r0, [pc, #4]	; (d5cf4 <_ZN8particle14BleLocalDevice11getInstanceEv+0x30>)
   d5cee:	bd10      	pop	{r4, pc}
   d5cf0:	2003e4c0 	.word	0x2003e4c0
   d5cf4:	2003e4bc 	.word	0x2003e4bc
   d5cf8:	2003e450 	.word	0x2003e450
   d5cfc:	000d5ea5 	.word	0x000d5ea5

000d5d00 <_ZN8particle21BleCharacteristicImpl15onBleCharEventsEPK18hal_ble_char_evt_tPv>:
/*
 * WARN: This is executed from HAL ble thread. If the BLE wiring lock is acquired by a thread,
 * calling wiring APIs those acquiring the BLE wiring lock from the callback will suspend the
 * the execution of the callback, until the BLE wiring lock is released.
 */
void BleCharacteristicImpl::onBleCharEvents(const hal_ble_char_evt_t *event, void* context) {
   d5d00:	b570      	push	{r4, r5, r6, lr}
   d5d02:	4604      	mov	r4, r0
   d5d04:	b08c      	sub	sp, #48	; 0x30
    auto impl = static_cast<BleCharacteristicImpl*>(context);
    WiringBleLock lk;
   d5d06:	a803      	add	r0, sp, #12
/*
 * WARN: This is executed from HAL ble thread. If the BLE wiring lock is acquired by a thread,
 * calling wiring APIs those acquiring the BLE wiring lock from the callback will suspend the
 * the execution of the callback, until the BLE wiring lock is released.
 */
void BleCharacteristicImpl::onBleCharEvents(const hal_ble_char_evt_t *event, void* context) {
   d5d08:	460e      	mov	r6, r1
    auto impl = static_cast<BleCharacteristicImpl*>(context);
    WiringBleLock lk;
   d5d0a:	f7ff fd67 	bl	d57dc <_ZN8particle3ble13WiringBleLockC1Ev>
    switch (event->type) {
   d5d0e:	6823      	ldr	r3, [r4, #0]
   d5d10:	3b09      	subs	r3, #9
   d5d12:	2b01      	cmp	r3, #1
   d5d14:	d819      	bhi.n	d5d4a <_ZN8particle21BleCharacteristicImpl15onBleCharEventsEPK18hal_ble_char_evt_tPv+0x4a>
        case BLE_EVT_DATA_NOTIFIED:
        case BLE_EVT_DATA_WRITTEN: {
            auto peer = BleLocalDevice::getInstance().impl()->findPeerDevice(event->conn_handle);
   d5d16:	f7ff ffd5 	bl	d5cc4 <_ZN8particle14BleLocalDevice11getInstanceEv>
   d5d1a:	88a1      	ldrh	r1, [r4, #4]
   d5d1c:	6800      	ldr	r0, [r0, #0]
   d5d1e:	f7ff ff39 	bl	d5b94 <_ZN8particle18BleLocalDeviceImpl14findPeerDeviceEt>
            if (!peer) {
   d5d22:	4602      	mov	r2, r0
   d5d24:	b958      	cbnz	r0, d5d3e <_ZN8particle21BleCharacteristicImpl15onBleCharEventsEPK18hal_ble_char_evt_tPv+0x3e>
                LOG(ERROR, "Peer device is missing!");
   d5d26:	2320      	movs	r3, #32
   d5d28:	9304      	str	r3, [sp, #16]
   d5d2a:	4b0a      	ldr	r3, [pc, #40]	; (d5d54 <_ZN8particle21BleCharacteristicImpl15onBleCharEventsEPK18hal_ble_char_evt_tPv+0x54>)
   d5d2c:	9005      	str	r0, [sp, #20]
   d5d2e:	9300      	str	r3, [sp, #0]
   d5d30:	aa04      	add	r2, sp, #16
   d5d32:	4603      	mov	r3, r0
   d5d34:	4908      	ldr	r1, [pc, #32]	; (d5d58 <_ZN8particle21BleCharacteristicImpl15onBleCharEventsEPK18hal_ble_char_evt_tPv+0x58>)
   d5d36:	2032      	movs	r0, #50	; 0x32
   d5d38:	f7ff fbb6 	bl	d54a8 <log_message>
                break;
   d5d3c:	e005      	b.n	d5d4a <_ZN8particle21BleCharacteristicImpl15onBleCharEventsEPK18hal_ble_char_evt_tPv+0x4a>
            }
            if (impl->callback_) {
   d5d3e:	6cf5      	ldr	r5, [r6, #76]	; 0x4c
   d5d40:	b11d      	cbz	r5, d5d4a <_ZN8particle21BleCharacteristicImpl15onBleCharEventsEPK18hal_ble_char_evt_tPv+0x4a>
                impl->callback_(event->params.data_written.data, event->params.data_written.len, *peer, impl->context_);
   d5d42:	6d33      	ldr	r3, [r6, #80]	; 0x50
   d5d44:	68e1      	ldr	r1, [r4, #12]
   d5d46:	6920      	ldr	r0, [r4, #16]
   d5d48:	47a8      	blx	r5
 * calling wiring APIs those acquiring the BLE wiring lock from the callback will suspend the
 * the execution of the callback, until the BLE wiring lock is released.
 */
void BleCharacteristicImpl::onBleCharEvents(const hal_ble_char_evt_t *event, void* context) {
    auto impl = static_cast<BleCharacteristicImpl*>(context);
    WiringBleLock lk;
   d5d4a:	a803      	add	r0, sp, #12
   d5d4c:	f7ff fd54 	bl	d57f8 <_ZN8particle3ble13WiringBleLockD1Ev>
        }
        default: {
            break;
        }
    }
}
   d5d50:	b00c      	add	sp, #48	; 0x30
   d5d52:	bd70      	pop	{r4, r5, r6, pc}
   d5d54:	000d8f3a 	.word	0x000d8f3a
   d5d58:	000d8ef0 	.word	0x000d8ef0

000d5d5c <_ZNK8particle14BleLocalDevice18setAdvertisingDataEPNS_18BleAdvertisingDataE>:
int BleLocalDevice::getAdvertisingParameters(BleAdvertisingParams* params) const {
    return hal_ble_gap_get_advertising_parameters(params, nullptr);
}

int BleLocalDevice::setAdvertisingData(BleAdvertisingData* advertisingData) const {
    if (advertisingData == nullptr) {
   d5d5c:	4608      	mov	r0, r1
   d5d5e:	b909      	cbnz	r1, d5d64 <_ZNK8particle14BleLocalDevice18setAdvertisingDataEPNS_18BleAdvertisingDataE+0x8>
        return hal_ble_gap_set_advertising_data(nullptr, 0, nullptr);
   d5d60:	460a      	mov	r2, r1
   d5d62:	e001      	b.n	d5d68 <_ZNK8particle14BleLocalDevice18setAdvertisingDataEPNS_18BleAdvertisingDataE+0xc>
    } else {
        return hal_ble_gap_set_advertising_data(advertisingData->data(), advertisingData->length(), nullptr);
   d5d64:	6a09      	ldr	r1, [r1, #32]
   d5d66:	2200      	movs	r2, #0
   d5d68:	f7ff b9d0 	b.w	d510c <hal_ble_gap_set_advertising_data>

000d5d6c <_ZNK8particle14BleLocalDevice19setScanResponseDataEPNS_18BleAdvertisingDataE>:
    }
}

int BleLocalDevice::setScanResponseData(BleAdvertisingData* scanResponse) const {
   d5d6c:	b510      	push	{r4, lr}
    if (scanResponse == nullptr) {
   d5d6e:	460c      	mov	r4, r1
   d5d70:	b911      	cbnz	r1, d5d78 <_ZNK8particle14BleLocalDevice19setScanResponseDataEPNS_18BleAdvertisingDataE+0xc>
        return hal_ble_gap_set_scan_response_data(nullptr, 0, nullptr);
   d5d72:	460a      	mov	r2, r1
   d5d74:	4608      	mov	r0, r1
   d5d76:	e006      	b.n	d5d86 <_ZNK8particle14BleLocalDevice19setScanResponseDataEPNS_18BleAdvertisingDataE+0x1a>
    } else {
        scanResponse->remove(BleAdvertisingDataType::FLAGS);
   d5d78:	2101      	movs	r1, #1
   d5d7a:	4620      	mov	r0, r4
   d5d7c:	f7ff fecd 	bl	d5b1a <_ZN8particle18BleAdvertisingData6removeENS_22BleAdvertisingDataTypeE>
        return hal_ble_gap_set_scan_response_data(scanResponse->data(), scanResponse->length(), nullptr);
   d5d80:	6a21      	ldr	r1, [r4, #32]
   d5d82:	2200      	movs	r2, #0
   d5d84:	4620      	mov	r0, r4
    }
}
   d5d86:	e8bd 4010 	ldmia.w	sp!, {r4, lr}
int BleLocalDevice::setScanResponseData(BleAdvertisingData* scanResponse) const {
    if (scanResponse == nullptr) {
        return hal_ble_gap_set_scan_response_data(nullptr, 0, nullptr);
    } else {
        scanResponse->remove(BleAdvertisingDataType::FLAGS);
        return hal_ble_gap_set_scan_response_data(scanResponse->data(), scanResponse->length(), nullptr);
   d5d8a:	f7ff b9c7 	b.w	d511c <hal_ble_gap_set_scan_response_data>

000d5d8e <_ZNK8particle14BleLocalDevice9advertiseEv>:
        return SYSTEM_ERROR_INVALID_ARGUMENT;
    }
    return hal_ble_gap_get_scan_response_data(scanResponse->data(), BLE_MAX_ADV_DATA_LEN, nullptr);
}

int BleLocalDevice::advertise() const {
   d5d8e:	b513      	push	{r0, r1, r4, lr}
    WiringBleLock lk;
   d5d90:	a801      	add	r0, sp, #4
   d5d92:	f7ff fd23 	bl	d57dc <_ZN8particle3ble13WiringBleLockC1Ev>
    return hal_ble_gap_start_advertising(nullptr);
   d5d96:	2000      	movs	r0, #0
   d5d98:	f7ff f9c8 	bl	d512c <hal_ble_gap_start_advertising>
   d5d9c:	4604      	mov	r4, r0
    }
    return hal_ble_gap_get_scan_response_data(scanResponse->data(), BLE_MAX_ADV_DATA_LEN, nullptr);
}

int BleLocalDevice::advertise() const {
    WiringBleLock lk;
   d5d9e:	a801      	add	r0, sp, #4
   d5da0:	f7ff fd2a 	bl	d57f8 <_ZN8particle3ble13WiringBleLockD1Ev>
    return hal_ble_gap_start_advertising(nullptr);
}
   d5da4:	4620      	mov	r0, r4
   d5da6:	b002      	add	sp, #8
   d5da8:	bd10      	pop	{r4, pc}

000d5daa <_ZNK8particle14BleLocalDevice9advertiseEPNS_18BleAdvertisingDataES2_>:

int BleLocalDevice::advertise(BleAdvertisingData* advertisingData, BleAdvertisingData* scanResponse) const {
   d5daa:	b573      	push	{r0, r1, r4, r5, r6, lr}
   d5dac:	4605      	mov	r5, r0
   d5dae:	460c      	mov	r4, r1
    WiringBleLock lk;
   d5db0:	a801      	add	r0, sp, #4
int BleLocalDevice::advertise() const {
    WiringBleLock lk;
    return hal_ble_gap_start_advertising(nullptr);
}

int BleLocalDevice::advertise(BleAdvertisingData* advertisingData, BleAdvertisingData* scanResponse) const {
   d5db2:	4616      	mov	r6, r2
    WiringBleLock lk;
   d5db4:	f7ff fd12 	bl	d57dc <_ZN8particle3ble13WiringBleLockC1Ev>
    CHECK(setAdvertisingData(advertisingData));
   d5db8:	4621      	mov	r1, r4
   d5dba:	4628      	mov	r0, r5
   d5dbc:	f7ff ffce 	bl	d5d5c <_ZNK8particle14BleLocalDevice18setAdvertisingDataEPNS_18BleAdvertisingDataE>
   d5dc0:	2800      	cmp	r0, #0
   d5dc2:	db08      	blt.n	d5dd6 <_ZNK8particle14BleLocalDevice9advertiseEPNS_18BleAdvertisingDataES2_+0x2c>
    CHECK(setScanResponseData(scanResponse));
   d5dc4:	4631      	mov	r1, r6
   d5dc6:	4628      	mov	r0, r5
   d5dc8:	f7ff ffd0 	bl	d5d6c <_ZNK8particle14BleLocalDevice19setScanResponseDataEPNS_18BleAdvertisingDataE>
   d5dcc:	2800      	cmp	r0, #0
   d5dce:	db02      	blt.n	d5dd6 <_ZNK8particle14BleLocalDevice9advertiseEPNS_18BleAdvertisingDataES2_+0x2c>
    return advertise();
   d5dd0:	4628      	mov	r0, r5
   d5dd2:	f7ff ffdc 	bl	d5d8e <_ZNK8particle14BleLocalDevice9advertiseEv>
   d5dd6:	4604      	mov	r4, r0
    WiringBleLock lk;
    return hal_ble_gap_start_advertising(nullptr);
}

int BleLocalDevice::advertise(BleAdvertisingData* advertisingData, BleAdvertisingData* scanResponse) const {
    WiringBleLock lk;
   d5dd8:	a801      	add	r0, sp, #4
   d5dda:	f7ff fd0d 	bl	d57f8 <_ZN8particle3ble13WiringBleLockD1Ev>
    CHECK(setAdvertisingData(advertisingData));
    CHECK(setScanResponseData(scanResponse));
    return advertise();
}
   d5dde:	4620      	mov	r0, r4
   d5de0:	b002      	add	sp, #8
   d5de2:	bd70      	pop	{r4, r5, r6, pc}

000d5de4 <_ZNK8particle14BleLocalDevice9connectedEv>:
    ppcp.slave_latency = latency;
    ppcp.conn_sup_timeout = timeout;
    return hal_ble_gap_set_ppcp(&ppcp, nullptr);
}

bool BleLocalDevice::connected() const {
   d5de4:	6803      	ldr	r3, [r0, #0]
    return (impl()->peers().size() > 0);
   d5de6:	69d8      	ldr	r0, [r3, #28]
}
   d5de8:	2800      	cmp	r0, #0
   d5dea:	bfd4      	ite	le
   d5dec:	2000      	movle	r0, #0
   d5dee:	2001      	movgt	r0, #1
   d5df0:	4770      	bx	lr

000d5df2 <_ZNSt14__shared_countILN9__gnu_cxx12_Lock_policyE0EEC1ERKS2_>:
	if (_M_pi != nullptr)
	  _M_pi->_M_release();
      }

      __shared_count(const __shared_count& __r) noexcept
      : _M_pi(__r._M_pi)
   d5df2:	680b      	ldr	r3, [r1, #0]
   d5df4:	6003      	str	r3, [r0, #0]
      {
	if (_M_pi != 0)
   d5df6:	b113      	cbz	r3, d5dfe <_ZNSt14__shared_countILN9__gnu_cxx12_Lock_policyE0EEC1ERKS2_+0xc>
    }

  template<>
    inline void
    _Sp_counted_base<_S_single>::_M_add_ref_copy()
    { ++_M_use_count; }
   d5df8:	685a      	ldr	r2, [r3, #4]
   d5dfa:	3201      	adds	r2, #1
   d5dfc:	605a      	str	r2, [r3, #4]
      __shared_count(const __shared_count& __r) noexcept
      : _M_pi(__r._M_pi)
      {
	if (_M_pi != 0)
	  _M_pi->_M_add_ref_copy();
      }
   d5dfe:	4770      	bx	lr

000d5e00 <_ZN8particle17BleCharacteristicC1ERKS0_>:
        SPARK_ASSERT(false);
    }
    DEBUG("BleCharacteristic(), 0x%08X -> 0x%08X, count: %d", this, impl(), impl_.use_count());
}

BleCharacteristic::BleCharacteristic(const BleCharacteristic& characteristic)
   d5e00:	b510      	push	{r4, lr}
      template<typename _Tp1>
	__shared_ptr(const __shared_ptr<_Tp1, _Lp>& __r, _Tp* __p) noexcept
	: _M_ptr(__p), _M_refcount(__r._M_refcount) // never throws
	{ }

      __shared_ptr(const __shared_ptr&) noexcept = default;
   d5e02:	f851 3b04 	ldr.w	r3, [r1], #4
   d5e06:	4604      	mov	r4, r0
   d5e08:	f840 3b04 	str.w	r3, [r0], #4
   d5e0c:	f7ff fff1 	bl	d5df2 <_ZNSt14__shared_countILN9__gnu_cxx12_Lock_policyE0EEC1ERKS2_>
        : impl_(characteristic.impl_) {
    if (!impl()) {
   d5e10:	6823      	ldr	r3, [r4, #0]
   d5e12:	b90b      	cbnz	r3, d5e18 <_ZN8particle17BleCharacteristicC1ERKS0_+0x18>
   d5e14:	f7ff fcc2 	bl	d579c <_ZN8particle10BleServiceC2ERKNS_7BleUuidE.part.100>
        SPARK_ASSERT(false);
    }
    DEBUG("BleCharacteristic(copy), 0x%08X => 0x%08X -> 0x%08X, count: %d", &characteristic, this, impl(), impl_.use_count());
}
   d5e18:	4620      	mov	r0, r4
   d5e1a:	bd10      	pop	{r4, pc}

000d5e1c <_ZNSt12__shared_ptrIN8particle14BleServiceImplELN9__gnu_cxx12_Lock_policyE0EEC1ERKS4_>:
   d5e1c:	b510      	push	{r4, lr}
   d5e1e:	f851 3b04 	ldr.w	r3, [r1], #4
   d5e22:	4604      	mov	r4, r0
   d5e24:	f840 3b04 	str.w	r3, [r0], #4
   d5e28:	f7ff ffe3 	bl	d5df2 <_ZNSt14__shared_countILN9__gnu_cxx12_Lock_policyE0EEC1ERKS2_>
   d5e2c:	4620      	mov	r0, r4
   d5e2e:	bd10      	pop	{r4, pc}

000d5e30 <_ZN8particle17BleCharacteristicD1Ev>:
    impl_ = characteristic.impl_;
    DEBUG("now:0x%08X -> 0x%08X, count: %d", this, impl(), impl_.use_count());
    return *this;
}

BleCharacteristic::~BleCharacteristic() {
   d5e30:	b510      	push	{r4, lr}
   d5e32:	4604      	mov	r4, r0
      __shared_ptr& operator=(const __shared_ptr&) noexcept = default;
      ~__shared_ptr() = default;
   d5e34:	3004      	adds	r0, #4
   d5e36:	f7fe fa13 	bl	d4260 <_ZNSt14__shared_countILN9__gnu_cxx12_Lock_policyE0EED1Ev>
    DEBUG("~BleCharacteristic(), 0x%08X -> 0x%08X, count: %d", this, impl(), impl_.use_count() - 1);
}
   d5e3a:	4620      	mov	r0, r4
   d5e3c:	bd10      	pop	{r4, pc}

000d5e3e <_ZN5spark6VectorIN8particle10BleServiceENS_16DefaultAllocatorEED1Ev>:
inline spark::Vector<T, AllocatorT>::Vector(Vector<T, AllocatorT>&& vector) : Vector() {
    swap(*this, vector);
}

template<typename T, typename AllocatorT>
inline spark::Vector<T, AllocatorT>::~Vector() {
   d5e3e:	b570      	push	{r4, r5, r6, lr}
    destruct(data_, data_ + size_);
   d5e40:	6804      	ldr	r4, [r0, #0]
   d5e42:	6843      	ldr	r3, [r0, #4]
inline spark::Vector<T, AllocatorT>::Vector(Vector<T, AllocatorT>&& vector) : Vector() {
    swap(*this, vector);
}

template<typename T, typename AllocatorT>
inline spark::Vector<T, AllocatorT>::~Vector() {
   d5e44:	4605      	mov	r5, r0
    destruct(data_, data_ + size_);
   d5e46:	eb04 06c3 	add.w	r6, r4, r3, lsl #3
            new(p) T(std::forward<ArgsT>(args)...);
        }
    }

    static void destruct(T* p, const T* end) {
        for (; p != end; ++p) {
   d5e4a:	42a6      	cmp	r6, r4
   d5e4c:	d004      	beq.n	d5e58 <_ZN5spark6VectorIN8particle10BleServiceENS_16DefaultAllocatorEED1Ev+0x1a>
   d5e4e:	1d20      	adds	r0, r4, #4
   d5e50:	f7fe fa06 	bl	d4260 <_ZNSt14__shared_countILN9__gnu_cxx12_Lock_policyE0EED1Ev>
   d5e54:	3408      	adds	r4, #8
   d5e56:	e7f8      	b.n	d5e4a <_ZN5spark6VectorIN8particle10BleServiceENS_16DefaultAllocatorEED1Ev+0xc>
inline void* spark::DefaultAllocator::realloc(void* ptr, size_t size) {
    return ::realloc(ptr, size);
}

inline void spark::DefaultAllocator::free(void* ptr) {
    ::free(ptr);
   d5e58:	6828      	ldr	r0, [r5, #0]
   d5e5a:	f7ff fbf3 	bl	d5644 <free>

template<typename T, typename AllocatorT>
inline spark::Vector<T, AllocatorT>::~Vector() {
    destruct(data_, data_ + size_);
    AllocatorT::free(data_);
}
   d5e5e:	4628      	mov	r0, r5
   d5e60:	bd70      	pop	{r4, r5, r6, pc}

000d5e62 <_ZN5spark6VectorIN8particle17BleCharacteristicENS_16DefaultAllocatorEED1Ev>:
inline spark::Vector<T, AllocatorT>::Vector(Vector<T, AllocatorT>&& vector) : Vector() {
    swap(*this, vector);
}

template<typename T, typename AllocatorT>
inline spark::Vector<T, AllocatorT>::~Vector() {
   d5e62:	b570      	push	{r4, r5, r6, lr}
    destruct(data_, data_ + size_);
   d5e64:	6804      	ldr	r4, [r0, #0]
   d5e66:	6843      	ldr	r3, [r0, #4]
inline spark::Vector<T, AllocatorT>::Vector(Vector<T, AllocatorT>&& vector) : Vector() {
    swap(*this, vector);
}

template<typename T, typename AllocatorT>
inline spark::Vector<T, AllocatorT>::~Vector() {
   d5e68:	4605      	mov	r5, r0
    destruct(data_, data_ + size_);
   d5e6a:	eb04 06c3 	add.w	r6, r4, r3, lsl #3
            new(p) T(std::forward<ArgsT>(args)...);
        }
    }

    static void destruct(T* p, const T* end) {
        for (; p != end; ++p) {
   d5e6e:	42a6      	cmp	r6, r4
   d5e70:	d004      	beq.n	d5e7c <_ZN5spark6VectorIN8particle17BleCharacteristicENS_16DefaultAllocatorEED1Ev+0x1a>
   d5e72:	1d20      	adds	r0, r4, #4
   d5e74:	f7fe f9f4 	bl	d4260 <_ZNSt14__shared_countILN9__gnu_cxx12_Lock_policyE0EED1Ev>
   d5e78:	3408      	adds	r4, #8
   d5e7a:	e7f8      	b.n	d5e6e <_ZN5spark6VectorIN8particle17BleCharacteristicENS_16DefaultAllocatorEED1Ev+0xc>
inline void* spark::DefaultAllocator::realloc(void* ptr, size_t size) {
    return ::realloc(ptr, size);
}

inline void spark::DefaultAllocator::free(void* ptr) {
    ::free(ptr);
   d5e7c:	6828      	ldr	r0, [r5, #0]
   d5e7e:	f7ff fbe1 	bl	d5644 <free>

template<typename T, typename AllocatorT>
inline spark::Vector<T, AllocatorT>::~Vector() {
    destruct(data_, data_ + size_);
    AllocatorT::free(data_);
}
   d5e82:	4628      	mov	r0, r5
   d5e84:	bd70      	pop	{r4, r5, r6, pc}

000d5e86 <_ZNSt19_Sp_counted_deleterIPN8particle17BlePeerDeviceImplENSt12__shared_ptrIS1_LN9__gnu_cxx12_Lock_policyE0EE8_DeleterISaIS1_EEES8_LS5_0EE10_M_disposeEv>:
      : _M_impl(__p, __d, __a) { }

      ~_Sp_counted_deleter() noexcept { }

      virtual void
      _M_dispose() noexcept
   d5e86:	b510      	push	{r4, lr}
      { _M_impl._M_del()(_M_impl._M_ptr); }
   d5e88:	6904      	ldr	r4, [r0, #16]
              address_(),
              servicesDiscovered_(false),
              characteristicsDiscovered_(false) {
    }

    ~BlePeerDeviceImpl() = default;
   d5e8a:	f104 0018 	add.w	r0, r4, #24
   d5e8e:	f7ff ffe8 	bl	d5e62 <_ZN5spark6VectorIN8particle17BleCharacteristicENS_16DefaultAllocatorEED1Ev>
   d5e92:	f104 000c 	add.w	r0, r4, #12
   d5e96:	f7ff ffd2 	bl	d5e3e <_ZN5spark6VectorIN8particle10BleServiceENS_16DefaultAllocatorEED1Ev>
   d5e9a:	4620      	mov	r0, r4
   d5e9c:	e8bd 4010 	ldmia.w	sp!, {r4, lr}
   d5ea0:	f7fe b8fb 	b.w	d409a <_ZdlPv>

000d5ea4 <_ZN8particle14BleLocalDeviceD1Ev>:
        return impl_.get();
    }

private:
    BleLocalDevice();
    ~BleLocalDevice() = default;
   d5ea4:	b5f8      	push	{r3, r4, r5, r6, r7, lr}

      /// Destructor, invokes the deleter if the stored pointer is not null.
      ~unique_ptr() noexcept
      {
	auto& __ptr = std::get<0>(_M_t);
	if (__ptr != nullptr)
   d5ea6:	6804      	ldr	r4, [r0, #0]
   d5ea8:	4607      	mov	r7, r0
   d5eaa:	b1c4      	cbz	r4, d5ede <_ZN8particle14BleLocalDeviceD1Ev+0x3a>
    swap(*this, vector);
}

template<typename T, typename AllocatorT>
inline spark::Vector<T, AllocatorT>::~Vector() {
    destruct(data_, data_ + size_);
   d5eac:	69a5      	ldr	r5, [r4, #24]
   d5eae:	69e3      	ldr	r3, [r4, #28]
   d5eb0:	eb05 06c3 	add.w	r6, r5, r3, lsl #3
            new(p) T(std::forward<ArgsT>(args)...);
        }
    }

    static void destruct(T* p, const T* end) {
        for (; p != end; ++p) {
   d5eb4:	42ae      	cmp	r6, r5
   d5eb6:	d004      	beq.n	d5ec2 <_ZN8particle14BleLocalDeviceD1Ev+0x1e>
	: _M_ptr(__p), _M_refcount(__r._M_refcount) // never throws
	{ }

      __shared_ptr(const __shared_ptr&) noexcept = default;
      __shared_ptr& operator=(const __shared_ptr&) noexcept = default;
      ~__shared_ptr() = default;
   d5eb8:	1d28      	adds	r0, r5, #4
   d5eba:	f7fe f9d1 	bl	d4260 <_ZNSt14__shared_countILN9__gnu_cxx12_Lock_policyE0EED1Ev>
   d5ebe:	3508      	adds	r5, #8
   d5ec0:	e7f8      	b.n	d5eb4 <_ZN8particle14BleLocalDeviceD1Ev+0x10>
inline void* spark::DefaultAllocator::realloc(void* ptr, size_t size) {
    return ::realloc(ptr, size);
}

inline void spark::DefaultAllocator::free(void* ptr) {
    ::free(ptr);
   d5ec2:	69a0      	ldr	r0, [r4, #24]
   d5ec4:	f7ff fbbe 	bl	d5644 <free>
              disconnectedCb_(nullptr),
              connectedContext_(nullptr),
              disconnectedContext_(nullptr) {
    }

    ~BleLocalDeviceImpl() = default;
   d5ec8:	f104 000c 	add.w	r0, r4, #12
   d5ecc:	f7ff ffc9 	bl	d5e62 <_ZN5spark6VectorIN8particle17BleCharacteristicENS_16DefaultAllocatorEED1Ev>
   d5ed0:	4620      	mov	r0, r4
   d5ed2:	f7ff ffb4 	bl	d5e3e <_ZN5spark6VectorIN8particle10BleServiceENS_16DefaultAllocatorEED1Ev>
      {
	static_assert(!is_void<_Tp>::value,
		      "can't delete pointer to incomplete type");
	static_assert(sizeof(_Tp)>0,
		      "can't delete pointer to incomplete type");
	delete __ptr;
   d5ed6:	2134      	movs	r1, #52	; 0x34
   d5ed8:	4620      	mov	r0, r4
   d5eda:	f001 fe88 	bl	d7bee <_ZdlPvj>
   d5ede:	4638      	mov	r0, r7
   d5ee0:	bdf8      	pop	{r3, r4, r5, r6, r7, pc}
	...

000d5ee4 <_ZN8particle13BlePeerDeviceC1Ev>:


/*******************************************************
 * BlePeerDevice class
 */
BlePeerDevice::BlePeerDevice()
   d5ee4:	b573      	push	{r0, r1, r4, r5, r6, lr}
        };

      template<typename _Alloc, typename... _Args>
	__shared_ptr(_Sp_make_shared_tag __tag, const _Alloc& __a,
		     _Args&&... __args)
	: _M_ptr(), _M_refcount()
   d5ee6:	2500      	movs	r5, #0
   d5ee8:	6005      	str	r5, [r0, #0]

  template<_Lock_policy _Lp>
    class __shared_count
    {
    public:
      constexpr __shared_count() noexcept : _M_pi(0)
   d5eea:	6045      	str	r5, [r0, #4]
   d5eec:	4606      	mov	r6, r0
      allocate(size_type __n, const void* = 0)
      { 
	if (__n > this->max_size())
	  std::__throw_bad_alloc();

	return static_cast<_Tp*>(::operator new(__n * sizeof(_Tp)));
   d5eee:	2024      	movs	r0, #36	; 0x24
   d5ef0:	f7fe f8d1 	bl	d4096 <_Znwj>

#if __cplusplus >= 201103L
      template<typename _Up, typename... _Args>
        void
        construct(_Up* __p, _Args&&... __args)
	{ ::new((void *)__p) _Up(std::forward<_Args>(__args)...); }
   d5ef4:	4604      	mov	r4, r0
   d5ef6:	b178      	cbz	r0, d5f18 <_ZN8particle13BlePeerDeviceC1Ev+0x34>
public:
    BlePeerDeviceImpl()
            : connHandle_(BLE_INVALID_CONN_HANDLE),
              address_(),
              servicesDiscovered_(false),
              characteristicsDiscovered_(false) {
   d5ef8:	4603      	mov	r3, r0
   d5efa:	f64f 72ff 	movw	r2, #65535	; 0xffff
   d5efe:	f823 2b02 	strh.w	r2, [r3], #2

/*******************************************************
 * BleAddress class
 */
BleAddress::BleAddress()
        : address_{} {
   d5f02:	f8c0 5002 	str.w	r5, [r0, #2]
   d5f06:	605d      	str	r5, [r3, #4]
public:
    BlePeerDeviceImpl()
            : connHandle_(BLE_INVALID_CONN_HANDLE),
              address_(),
              servicesDiscovered_(false),
              characteristicsDiscovered_(false) {
   d5f08:	7285      	strb	r5, [r0, #10]
   d5f0a:	72c5      	strb	r5, [r0, #11]
// spark::Vector
template<typename T, typename AllocatorT>
inline spark::Vector<T, AllocatorT>::Vector() :
        data_(nullptr),
        size_(0),
        capacity_(0) {
   d5f0c:	60c5      	str	r5, [r0, #12]
   d5f0e:	6105      	str	r5, [r0, #16]
   d5f10:	6145      	str	r5, [r0, #20]
   d5f12:	6185      	str	r5, [r0, #24]
   d5f14:	61c5      	str	r5, [r0, #28]
   d5f16:	6205      	str	r5, [r0, #32]
	__shared_count(_Ptr __p, _Deleter __d)
	: __shared_count(__p, std::move(__d), allocator<void>())
	{ }

      template<typename _Ptr, typename _Deleter, typename _Alloc>
	__shared_count(_Ptr __p, _Deleter __d, _Alloc __a) : _M_pi(0)
   d5f18:	2300      	movs	r3, #0
      allocate(size_type __n, const void* = 0)
      { 
	if (__n > this->max_size())
	  std::__throw_bad_alloc();

	return static_cast<_Tp*>(::operator new(__n * sizeof(_Tp)));
   d5f1a:	2014      	movs	r0, #20
   d5f1c:	9301      	str	r3, [sp, #4]
   d5f1e:	f7fe f8ba 	bl	d4096 <_Znwj>
	  __try
	    {
	      typename _Sp_cd_type::__allocator_type __a2(__a);
	      auto __guard = std::__allocate_guarded(__a2);
	      _Sp_cd_type* __mem = __guard.get();
	      ::new (__mem) _Sp_cd_type(__p, std::move(__d), std::move(__a));
   d5f22:	4603      	mov	r3, r0
   d5f24:	b128      	cbz	r0, d5f32 <_ZN8particle13BlePeerDeviceC1Ev+0x4e>
    class _Sp_counted_base
    : public _Mutex_base<_Lp>
    {
    public:  
      _Sp_counted_base() noexcept
      : _M_use_count(1), _M_weak_count(1) { }
   d5f26:	2201      	movs	r2, #1
   d5f28:	6042      	str	r2, [r0, #4]
   d5f2a:	6082      	str	r2, [r0, #8]
      _Sp_counted_deleter(_Ptr __p, _Deleter __d) noexcept
      : _M_impl(__p, __d, _Alloc()) { }

      // __d(__p) must not throw.
      _Sp_counted_deleter(_Ptr __p, _Deleter __d, const _Alloc& __a) noexcept
      : _M_impl(__p, __d, __a) { }
   d5f2c:	4a08      	ldr	r2, [pc, #32]	; (d5f50 <_ZN8particle13BlePeerDeviceC1Ev+0x6c>)
   d5f2e:	6002      	str	r2, [r0, #0]
	typedef _Sp_ebo_helper<0, _Deleter>	_Del_base;
	typedef _Sp_ebo_helper<1, _Alloc>	_Alloc_base;

      public:
	_Impl(_Ptr __p, _Deleter __d, const _Alloc& __a) noexcept
	: _M_ptr(__p), _Del_base(__d), _Alloc_base(__a)
   d5f30:	6104      	str	r4, [r0, #16]

      void
      _M_swap(__shared_count& __r) noexcept
      {
	_Sp_counted_base<_Lp>* __tmp = __r._M_pi;
	__r._M_pi = _M_pi;
   d5f32:	a802      	add	r0, sp, #8
   d5f34:	6872      	ldr	r2, [r6, #4]
   d5f36:	f840 2d04 	str.w	r2, [r0, #-4]!
	_M_pi = __tmp;
   d5f3a:	6073      	str	r3, [r6, #4]
	  __traits::construct(__del._M_alloc, __ptr,
			      std::forward<_Args>(__args)...);
	  __guard = nullptr;
	  __shared_count<_Lp> __count(__ptr, __del, __del._M_alloc);
	  _M_refcount._M_swap(__count);
	  _M_ptr = __ptr;
   d5f3c:	6034      	str	r4, [r6, #0]
	  // _GLIBCXX_RESOLVE_LIB_DEFECTS
	  // 2070. allocate_shared should use allocator_traits<A>::construct
	  __traits::construct(__del._M_alloc, __ptr,
			      std::forward<_Args>(__args)...);
	  __guard = nullptr;
	  __shared_count<_Lp> __count(__ptr, __del, __del._M_alloc);
   d5f3e:	f7fe f98f 	bl	d4260 <_ZNSt14__shared_countILN9__gnu_cxx12_Lock_policyE0EED1Ev>
/*******************************************************
 * BlePeerDevice class
 */
BlePeerDevice::BlePeerDevice()
        : impl_(std::make_shared<BlePeerDeviceImpl>()) {
    if (!impl()) {
   d5f42:	6833      	ldr	r3, [r6, #0]
   d5f44:	b90b      	cbnz	r3, d5f4a <_ZN8particle13BlePeerDeviceC1Ev+0x66>
   d5f46:	f7ff fc29 	bl	d579c <_ZN8particle10BleServiceC2ERKNS_7BleUuidE.part.100>
        SPARK_ASSERT(false);
    }
}
   d5f4a:	4630      	mov	r0, r6
   d5f4c:	b002      	add	sp, #8
   d5f4e:	bd70      	pop	{r4, r5, r6, pc}
   d5f50:	000d8ecc 	.word	0x000d8ecc

000d5f54 <_ZN5spark6VectorIN8particle13BlePeerDeviceENS_16DefaultAllocatorEE4moveIS2_Li0EEEvPS2_S6_S6_>:
        ::memmove(dest, p, (end - p) * sizeof(T));
    }

    template<PARTICLE_VECTOR_ENABLE_IF_NOT_TRIVIALLY_COPYABLE(T)>
    static void move(T* dest, T* p, T* end) {
        if (dest > p && dest < end) {
   d5f54:	4288      	cmp	r0, r1
    static void move(T* dest, const T* p, const T* end) {
        ::memmove(dest, p, (end - p) * sizeof(T));
    }

    template<PARTICLE_VECTOR_ENABLE_IF_NOT_TRIVIALLY_COPYABLE(T)>
    static void move(T* dest, T* p, T* end) {
   d5f56:	b570      	push	{r4, r5, r6, lr}
   d5f58:	4615      	mov	r5, r2
        if (dest > p && dest < end) {
   d5f5a:	d91a      	bls.n	d5f92 <_ZN5spark6VectorIN8particle13BlePeerDeviceENS_16DefaultAllocatorEE4moveIS2_Li0EEEvPS2_S6_S6_+0x3e>
   d5f5c:	4290      	cmp	r0, r2
   d5f5e:	d219      	bcs.n	d5f94 <_ZN5spark6VectorIN8particle13BlePeerDeviceENS_16DefaultAllocatorEE4moveIS2_Li0EEEvPS2_S6_S6_+0x40>
            // Move elements in reverse order
            --p;
            --end;
            dest += end - p - 1;
   d5f60:	f1a1 0608 	sub.w	r6, r1, #8
   d5f64:	1a51      	subs	r1, r2, r1
   d5f66:	3904      	subs	r1, #4
   d5f68:	1f15      	subs	r5, r2, #4
   d5f6a:	1844      	adds	r4, r0, r1
            for (; end != p; --end, --dest) {
   d5f6c:	1f2b      	subs	r3, r5, #4
   d5f6e:	429e      	cmp	r6, r3
   d5f70:	d025      	beq.n	d5fbe <_ZN5spark6VectorIN8particle13BlePeerDeviceENS_16DefaultAllocatorEE4moveIS2_Li0EEEvPS2_S6_S6_+0x6a>
                new(dest) T(std::move(*end));
   d5f72:	2c04      	cmp	r4, #4
   d5f74:	d007      	beq.n	d5f86 <_ZN5spark6VectorIN8particle13BlePeerDeviceENS_16DefaultAllocatorEE4moveIS2_Li0EEEvPS2_S6_S6_+0x32>
      template<typename _Tp1>
	__shared_ptr(const __shared_ptr<_Tp1, _Lp>& __r, _Tp* __p) noexcept
	: _M_ptr(__p), _M_refcount(__r._M_refcount) // never throws
	{ }

      __shared_ptr(const __shared_ptr&) noexcept = default;
   d5f76:	f855 3c04 	ldr.w	r3, [r5, #-4]
   d5f7a:	f844 3c04 	str.w	r3, [r4, #-4]
   d5f7e:	4629      	mov	r1, r5
   d5f80:	4620      	mov	r0, r4
   d5f82:	f7ff ff36 	bl	d5df2 <_ZNSt14__shared_countILN9__gnu_cxx12_Lock_policyE0EEC1ERKS2_>
      __shared_ptr& operator=(const __shared_ptr&) noexcept = default;
      ~__shared_ptr() = default;
   d5f86:	4628      	mov	r0, r5
   d5f88:	f7fe f96a 	bl	d4260 <_ZNSt14__shared_countILN9__gnu_cxx12_Lock_policyE0EED1Ev>
   d5f8c:	3d08      	subs	r5, #8
   d5f8e:	3c08      	subs	r4, #8
   d5f90:	e7ec      	b.n	d5f6c <_ZN5spark6VectorIN8particle13BlePeerDeviceENS_16DefaultAllocatorEE4moveIS2_Li0EEEvPS2_S6_S6_+0x18>
                end->~T();
            }
        } else if (dest != p) {
   d5f92:	d014      	beq.n	d5fbe <_ZN5spark6VectorIN8particle13BlePeerDeviceENS_16DefaultAllocatorEE4moveIS2_Li0EEEvPS2_S6_S6_+0x6a>
   d5f94:	1d0c      	adds	r4, r1, #4
   d5f96:	1d06      	adds	r6, r0, #4
            for (; p != end; ++p, ++dest) {
   d5f98:	1f23      	subs	r3, r4, #4
   d5f9a:	429d      	cmp	r5, r3
   d5f9c:	d00f      	beq.n	d5fbe <_ZN5spark6VectorIN8particle13BlePeerDeviceENS_16DefaultAllocatorEE4moveIS2_Li0EEEvPS2_S6_S6_+0x6a>
                new(dest) T(std::move(*p));
   d5f9e:	2e04      	cmp	r6, #4
   d5fa0:	d007      	beq.n	d5fb2 <_ZN5spark6VectorIN8particle13BlePeerDeviceENS_16DefaultAllocatorEE4moveIS2_Li0EEEvPS2_S6_S6_+0x5e>
      template<typename _Tp1>
	__shared_ptr(const __shared_ptr<_Tp1, _Lp>& __r, _Tp* __p) noexcept
	: _M_ptr(__p), _M_refcount(__r._M_refcount) // never throws
	{ }

      __shared_ptr(const __shared_ptr&) noexcept = default;
   d5fa2:	f854 3c04 	ldr.w	r3, [r4, #-4]
   d5fa6:	f846 3c04 	str.w	r3, [r6, #-4]
   d5faa:	4621      	mov	r1, r4
   d5fac:	4630      	mov	r0, r6
   d5fae:	f7ff ff20 	bl	d5df2 <_ZNSt14__shared_countILN9__gnu_cxx12_Lock_policyE0EEC1ERKS2_>
      __shared_ptr& operator=(const __shared_ptr&) noexcept = default;
      ~__shared_ptr() = default;
   d5fb2:	4620      	mov	r0, r4
   d5fb4:	f7fe f954 	bl	d4260 <_ZNSt14__shared_countILN9__gnu_cxx12_Lock_policyE0EED1Ev>
   d5fb8:	3408      	adds	r4, #8
   d5fba:	3608      	adds	r6, #8
            for (; end != p; --end, --dest) {
                new(dest) T(std::move(*end));
                end->~T();
            }
        } else if (dest != p) {
            for (; p != end; ++p, ++dest) {
   d5fbc:	e7ec      	b.n	d5f98 <_ZN5spark6VectorIN8particle13BlePeerDeviceENS_16DefaultAllocatorEE4moveIS2_Li0EEEvPS2_S6_S6_+0x44>
   d5fbe:	bd70      	pop	{r4, r5, r6, pc}

000d5fc0 <_ZN5spark6VectorIN8particle13BlePeerDeviceENS_16DefaultAllocatorEE9removeOneERKS2_>:
    move(p, p + n, data_ + size_);
    size_ -= n;
}

template<typename T, typename AllocatorT>
inline bool spark::Vector<T, AllocatorT>::removeOne(const T &value) {
   d5fc0:	e92d 41f0 	stmdb	sp!, {r4, r5, r6, r7, r8, lr}
    T* const p = find(data_, data_ + size_, value);
   d5fc4:	6804      	ldr	r4, [r0, #0]
   d5fc6:	6843      	ldr	r3, [r0, #4]
    move(p, p + n, data_ + size_);
    size_ -= n;
}

template<typename T, typename AllocatorT>
inline bool spark::Vector<T, AllocatorT>::removeOne(const T &value) {
   d5fc8:	4605      	mov	r5, r0
   d5fca:	4688      	mov	r8, r1
    T* const p = find(data_, data_ + size_, value);
   d5fcc:	eb04 07c3 	add.w	r7, r4, r3, lsl #3
            }
        }
    }

    static T* find(T* p, const T* end, const T& value) {
        for (; p != end; ++p) {
   d5fd0:	42a7      	cmp	r7, r4
   d5fd2:	d018      	beq.n	d6006 <_ZN5spark6VectorIN8particle13BlePeerDeviceENS_16DefaultAllocatorEE9removeOneERKS2_+0x46>
            if (*p == value) {
   d5fd4:	4641      	mov	r1, r8
   d5fd6:	4620      	mov	r0, r4
   d5fd8:	f7ff fe2c 	bl	d5c34 <_ZNK8particle13BlePeerDeviceeqERKS0_>
   d5fdc:	4606      	mov	r6, r0
   d5fde:	b908      	cbnz	r0, d5fe4 <_ZN5spark6VectorIN8particle13BlePeerDeviceENS_16DefaultAllocatorEE9removeOneERKS2_+0x24>
            }
        }
    }

    static T* find(T* p, const T* end, const T& value) {
        for (; p != end; ++p) {
   d5fe0:	3408      	adds	r4, #8
   d5fe2:	e7f5      	b.n	d5fd0 <_ZN5spark6VectorIN8particle13BlePeerDeviceENS_16DefaultAllocatorEE9removeOneERKS2_+0x10>
}

template<typename T, typename AllocatorT>
inline bool spark::Vector<T, AllocatorT>::removeOne(const T &value) {
    T* const p = find(data_, data_ + size_, value);
    if (!p) {
   d5fe4:	b18c      	cbz	r4, d600a <_ZN5spark6VectorIN8particle13BlePeerDeviceENS_16DefaultAllocatorEE9removeOneERKS2_+0x4a>
   d5fe6:	1d20      	adds	r0, r4, #4
   d5fe8:	f7fe f93a 	bl	d4260 <_ZNSt14__shared_countILN9__gnu_cxx12_Lock_policyE0EED1Ev>
        return false;
    }
    p->~T();
    move(p, p + 1, data_ + size_);
   d5fec:	682b      	ldr	r3, [r5, #0]
   d5fee:	686a      	ldr	r2, [r5, #4]
   d5ff0:	f104 0108 	add.w	r1, r4, #8
   d5ff4:	eb03 02c2 	add.w	r2, r3, r2, lsl #3
   d5ff8:	4620      	mov	r0, r4
   d5ffa:	f7ff ffab 	bl	d5f54 <_ZN5spark6VectorIN8particle13BlePeerDeviceENS_16DefaultAllocatorEE4moveIS2_Li0EEEvPS2_S6_S6_>
    --size_;
   d5ffe:	686b      	ldr	r3, [r5, #4]
   d6000:	3b01      	subs	r3, #1
   d6002:	606b      	str	r3, [r5, #4]
    return true;
   d6004:	e002      	b.n	d600c <_ZN5spark6VectorIN8particle13BlePeerDeviceENS_16DefaultAllocatorEE9removeOneERKS2_+0x4c>

template<typename T, typename AllocatorT>
inline bool spark::Vector<T, AllocatorT>::removeOne(const T &value) {
    T* const p = find(data_, data_ + size_, value);
    if (!p) {
        return false;
   d6006:	2600      	movs	r6, #0
   d6008:	e000      	b.n	d600c <_ZN5spark6VectorIN8particle13BlePeerDeviceENS_16DefaultAllocatorEE9removeOneERKS2_+0x4c>
   d600a:	4626      	mov	r6, r4
    }
    p->~T();
    move(p, p + 1, data_ + size_);
    --size_;
    return true;
}
   d600c:	4630      	mov	r0, r6
   d600e:	e8bd 81f0 	ldmia.w	sp!, {r4, r5, r6, r7, r8, pc}

000d6012 <_ZN5spark6VectorIN8particle13BlePeerDeviceENS_16DefaultAllocatorEE6appendES2_>:
    destruct(data_, data_ + size_);
    AllocatorT::free(data_);
}

template<typename T, typename AllocatorT>
inline bool spark::Vector<T, AllocatorT>::append(T value) {
   d6012:	b5f7      	push	{r0, r1, r2, r4, r5, r6, r7, lr}
   d6014:	4604      	mov	r4, r0
      template<typename _Tp1>
	__shared_ptr(const __shared_ptr<_Tp1, _Lp>& __r, _Tp* __p) noexcept
	: _M_ptr(__p), _M_refcount(__r._M_refcount) // never throws
	{ }

      __shared_ptr(const __shared_ptr&) noexcept = default;
   d6016:	f851 3b04 	ldr.w	r3, [r1], #4
    return insert(size_, std::move(value));
   d601a:	6847      	ldr	r7, [r0, #4]
   d601c:	9300      	str	r3, [sp, #0]
   d601e:	a801      	add	r0, sp, #4
   d6020:	f7ff fee7 	bl	d5df2 <_ZNSt14__shared_countILN9__gnu_cxx12_Lock_policyE0EEC1ERKS2_>
    return insert(0, vector);
}

template<typename T, typename AllocatorT>
inline bool spark::Vector<T, AllocatorT>::insert(int i, T value) {
    if (size_ + 1 > capacity_ && !realloc(size_ + 1)) {
   d6024:	6866      	ldr	r6, [r4, #4]
   d6026:	68a3      	ldr	r3, [r4, #8]
   d6028:	429e      	cmp	r6, r3
   d602a:	db14      	blt.n	d6056 <_ZN5spark6VectorIN8particle13BlePeerDeviceENS_16DefaultAllocatorEE6appendES2_+0x44>
   d602c:	3601      	adds	r6, #1
    }

    template<PARTICLE_VECTOR_ENABLE_IF_NOT_TRIVIALLY_COPYABLE(T)>
    bool realloc(int n) {
        T* d = nullptr;
        if (n > 0) {
   d602e:	2e00      	cmp	r6, #0
   d6030:	dd0b      	ble.n	d604a <_ZN5spark6VectorIN8particle13BlePeerDeviceENS_16DefaultAllocatorEE6appendES2_+0x38>

} // particle

// spark::DefaultAllocator
inline void* spark::DefaultAllocator::malloc(size_t size) {
    return ::malloc(size);
   d6032:	00f0      	lsls	r0, r6, #3
   d6034:	f7ff fafe 	bl	d5634 <malloc>
    template<PARTICLE_VECTOR_ENABLE_IF_NOT_TRIVIALLY_COPYABLE(T)>
    bool realloc(int n) {
        T* d = nullptr;
        if (n > 0) {
            d = (T*)AllocatorT::malloc(n * sizeof(T));
            if (!d) {
   d6038:	4605      	mov	r5, r0
   d603a:	b318      	cbz	r0, d6084 <_ZN5spark6VectorIN8particle13BlePeerDeviceENS_16DefaultAllocatorEE6appendES2_+0x72>
                return false;
            }
            move(d, data_, data_ + size_);
   d603c:	e894 0006 	ldmia.w	r4, {r1, r2}
   d6040:	eb01 02c2 	add.w	r2, r1, r2, lsl #3
   d6044:	f7ff ff86 	bl	d5f54 <_ZN5spark6VectorIN8particle13BlePeerDeviceENS_16DefaultAllocatorEE4moveIS2_Li0EEEvPS2_S6_S6_>
   d6048:	e000      	b.n	d604c <_ZN5spark6VectorIN8particle13BlePeerDeviceENS_16DefaultAllocatorEE6appendES2_+0x3a>
        return true;
    }

    template<PARTICLE_VECTOR_ENABLE_IF_NOT_TRIVIALLY_COPYABLE(T)>
    bool realloc(int n) {
        T* d = nullptr;
   d604a:	2500      	movs	r5, #0
inline void* spark::DefaultAllocator::realloc(void* ptr, size_t size) {
    return ::realloc(ptr, size);
}

inline void spark::DefaultAllocator::free(void* ptr) {
    ::free(ptr);
   d604c:	6820      	ldr	r0, [r4, #0]
   d604e:	f7ff faf9 	bl	d5644 <free>
                return false;
            }
            move(d, data_, data_ + size_);
        }
        AllocatorT::free(data_);
        data_ = d;
   d6052:	6025      	str	r5, [r4, #0]
        capacity_ = n;
   d6054:	60a6      	str	r6, [r4, #8]
template<typename T, typename AllocatorT>
inline bool spark::Vector<T, AllocatorT>::insert(int i, T value) {
    if (size_ + 1 > capacity_ && !realloc(size_ + 1)) {
        return false;
    }
    T* const p = data_ + i;
   d6056:	6826      	ldr	r6, [r4, #0]
    move(p + 1, p, data_ + size_);
   d6058:	6862      	ldr	r2, [r4, #4]
template<typename T, typename AllocatorT>
inline bool spark::Vector<T, AllocatorT>::insert(int i, T value) {
    if (size_ + 1 > capacity_ && !realloc(size_ + 1)) {
        return false;
    }
    T* const p = data_ + i;
   d605a:	eb06 05c7 	add.w	r5, r6, r7, lsl #3
    move(p + 1, p, data_ + size_);
   d605e:	eb06 02c2 	add.w	r2, r6, r2, lsl #3
   d6062:	4629      	mov	r1, r5
   d6064:	f105 0008 	add.w	r0, r5, #8
   d6068:	f7ff ff74 	bl	d5f54 <_ZN5spark6VectorIN8particle13BlePeerDeviceENS_16DefaultAllocatorEE4moveIS2_Li0EEEvPS2_S6_S6_>
    new(p) T(std::move(value));
   d606c:	b135      	cbz	r5, d607c <_ZN5spark6VectorIN8particle13BlePeerDeviceENS_16DefaultAllocatorEE6appendES2_+0x6a>
   d606e:	9b00      	ldr	r3, [sp, #0]
   d6070:	f846 3037 	str.w	r3, [r6, r7, lsl #3]
   d6074:	a901      	add	r1, sp, #4
   d6076:	1d28      	adds	r0, r5, #4
   d6078:	f7ff febb 	bl	d5df2 <_ZNSt14__shared_countILN9__gnu_cxx12_Lock_policyE0EEC1ERKS2_>
    ++size_;
   d607c:	6863      	ldr	r3, [r4, #4]
   d607e:	3301      	adds	r3, #1
   d6080:	6063      	str	r3, [r4, #4]
   d6082:	2501      	movs	r5, #1
      __shared_ptr& operator=(const __shared_ptr&) noexcept = default;
      ~__shared_ptr() = default;
   d6084:	a801      	add	r0, sp, #4
   d6086:	f7fe f8eb 	bl	d4260 <_ZNSt14__shared_countILN9__gnu_cxx12_Lock_policyE0EED1Ev>
}

template<typename T, typename AllocatorT>
inline bool spark::Vector<T, AllocatorT>::append(T value) {
    return insert(size_, std::move(value));
}
   d608a:	4628      	mov	r0, r5
   d608c:	b003      	add	sp, #12
   d608e:	bdf0      	pop	{r4, r5, r6, r7, pc}

000d6090 <_ZN8particle18BleLocalDeviceImpl15onBleLinkEventsEPK18hal_ble_link_evt_tPv>:
            }
        }
        return nullptr;
    }

    static void onBleLinkEvents(const hal_ble_link_evt_t* event, void* context) {
   d6090:	e92d 41f0 	stmdb	sp!, {r4, r5, r6, r7, r8, lr}
   d6094:	4604      	mov	r4, r0
   d6096:	b08e      	sub	sp, #56	; 0x38
        auto impl = static_cast<BleLocalDeviceImpl*>(context);
        WiringBleLock lk;
   d6098:	a803      	add	r0, sp, #12
            }
        }
        return nullptr;
    }

    static void onBleLinkEvents(const hal_ble_link_evt_t* event, void* context) {
   d609a:	460d      	mov	r5, r1
        auto impl = static_cast<BleLocalDeviceImpl*>(context);
        WiringBleLock lk;
   d609c:	f7ff fb9e 	bl	d57dc <_ZN8particle3ble13WiringBleLockC1Ev>
        switch (event->type) {
   d60a0:	6823      	ldr	r3, [r4, #0]
   d60a2:	2b03      	cmp	r3, #3
   d60a4:	d002      	beq.n	d60ac <_ZN8particle18BleLocalDeviceImpl15onBleLinkEventsEPK18hal_ble_link_evt_tPv+0x1c>
   d60a6:	2b04      	cmp	r3, #4
   d60a8:	d042      	beq.n	d6130 <_ZN8particle18BleLocalDeviceImpl15onBleLinkEventsEPK18hal_ble_link_evt_tPv+0xa0>
   d60aa:	e087      	b.n	d61bc <_ZN8particle18BleLocalDeviceImpl15onBleLinkEventsEPK18hal_ble_link_evt_tPv+0x12c>
            case BLE_EVT_CONNECTED: {
                BlePeerDevice peer;
   d60ac:	a804      	add	r0, sp, #16
   d60ae:	f7ff ff19 	bl	d5ee4 <_ZN8particle13BlePeerDeviceC1Ev>
                peer.impl()->connHandle() = event->conn_handle;
   d60b2:	9b04      	ldr	r3, [sp, #16]
   d60b4:	8922      	ldrh	r2, [r4, #8]
   d60b6:	801a      	strh	r2, [r3, #0]
    }
    return address_.addr[i];
}

BleAddress& BleAddress::operator=(const hal_ble_addr_t& addr) {
    address_ = addr;
   d60b8:	6862      	ldr	r2, [r4, #4]
   d60ba:	9904      	ldr	r1, [sp, #16]
   d60bc:	f852 3f08 	ldr.w	r3, [r2, #8]!
   d60c0:	f8c1 3002 	str.w	r3, [r1, #2]
   d60c4:	6853      	ldr	r3, [r2, #4]
   d60c6:	f8c1 3006 	str.w	r3, [r1, #6]
      template<typename _Tp1>
	__shared_ptr(const __shared_ptr<_Tp1, _Lp>& __r, _Tp* __p) noexcept
	: _M_ptr(__p), _M_refcount(__r._M_refcount) // never throws
	{ }

      __shared_ptr(const __shared_ptr&) noexcept = default;
   d60ca:	a807      	add	r0, sp, #28
   d60cc:	9b04      	ldr	r3, [sp, #16]
   d60ce:	9306      	str	r3, [sp, #24]
   d60d0:	a905      	add	r1, sp, #20
   d60d2:	f7ff fe8e 	bl	d5df2 <_ZNSt14__shared_countILN9__gnu_cxx12_Lock_policyE0EEC1ERKS2_>
        switch (event->type) {
            case BLE_EVT_CONNECTED: {
                BlePeerDevice peer;
                peer.impl()->connHandle() = event->conn_handle;
                peer.impl()->address() = event->params.connected.info->address;
                if (!impl->peers_.append(peer)) {
   d60d6:	a906      	add	r1, sp, #24
   d60d8:	f105 0018 	add.w	r0, r5, #24
   d60dc:	f7ff ff99 	bl	d6012 <_ZN5spark6VectorIN8particle13BlePeerDeviceENS_16DefaultAllocatorEE6appendES2_>
   d60e0:	4604      	mov	r4, r0
      __shared_ptr& operator=(const __shared_ptr&) noexcept = default;
      ~__shared_ptr() = default;
   d60e2:	a807      	add	r0, sp, #28
   d60e4:	f7fe f8bc 	bl	d4260 <_ZNSt14__shared_countILN9__gnu_cxx12_Lock_policyE0EED1Ev>
   d60e8:	2320      	movs	r3, #32
                    LOG(ERROR, "Failed to append peer Central device.");
   d60ea:	9306      	str	r3, [sp, #24]
        switch (event->type) {
            case BLE_EVT_CONNECTED: {
                BlePeerDevice peer;
                peer.impl()->connHandle() = event->conn_handle;
                peer.impl()->address() = event->params.connected.info->address;
                if (!impl->peers_.append(peer)) {
   d60ec:	b974      	cbnz	r4, d610c <_ZN8particle18BleLocalDeviceImpl15onBleLinkEventsEPK18hal_ble_link_evt_tPv+0x7c>
                    LOG(ERROR, "Failed to append peer Central device.");
   d60ee:	4b36      	ldr	r3, [pc, #216]	; (d61c8 <_ZN8particle18BleLocalDeviceImpl15onBleLinkEventsEPK18hal_ble_link_evt_tPv+0x138>)
   d60f0:	9300      	str	r3, [sp, #0]
   d60f2:	aa06      	add	r2, sp, #24
   d60f4:	4623      	mov	r3, r4
   d60f6:	4935      	ldr	r1, [pc, #212]	; (d61cc <_ZN8particle18BleLocalDeviceImpl15onBleLinkEventsEPK18hal_ble_link_evt_tPv+0x13c>)
   d60f8:	9407      	str	r4, [sp, #28]
   d60fa:	2032      	movs	r0, #50	; 0x32
   d60fc:	f7ff f9d4 	bl	d54a8 <log_message>
                    hal_ble_gap_disconnect(peer.impl()->connHandle(), nullptr);
   d6100:	9b04      	ldr	r3, [sp, #16]
   d6102:	4621      	mov	r1, r4
   d6104:	8818      	ldrh	r0, [r3, #0]
   d6106:	f7ff f819 	bl	d513c <hal_ble_gap_disconnect>
   d610a:	e00d      	b.n	d6128 <_ZN8particle18BleLocalDeviceImpl15onBleLinkEventsEPK18hal_ble_link_evt_tPv+0x98>
                    return;
                }
                LOG(TRACE, "Connected by Central device.");
   d610c:	4a30      	ldr	r2, [pc, #192]	; (d61d0 <_ZN8particle18BleLocalDeviceImpl15onBleLinkEventsEPK18hal_ble_link_evt_tPv+0x140>)
   d610e:	9200      	str	r2, [sp, #0]
   d6110:	2300      	movs	r3, #0
   d6112:	aa06      	add	r2, sp, #24
   d6114:	492d      	ldr	r1, [pc, #180]	; (d61cc <_ZN8particle18BleLocalDeviceImpl15onBleLinkEventsEPK18hal_ble_link_evt_tPv+0x13c>)
   d6116:	9307      	str	r3, [sp, #28]
   d6118:	2001      	movs	r0, #1
   d611a:	f7ff f9c5 	bl	d54a8 <log_message>
                if (impl->connectedCb_) {
   d611e:	6a6b      	ldr	r3, [r5, #36]	; 0x24
   d6120:	b113      	cbz	r3, d6128 <_ZN8particle18BleLocalDeviceImpl15onBleLinkEventsEPK18hal_ble_link_evt_tPv+0x98>
                    impl->connectedCb_(peer, impl->connectedContext_);
   d6122:	6ae9      	ldr	r1, [r5, #44]	; 0x2c
   d6124:	a804      	add	r0, sp, #16
   d6126:	4798      	blx	r3
   d6128:	a805      	add	r0, sp, #20
   d612a:	f7fe f899 	bl	d4260 <_ZNSt14__shared_countILN9__gnu_cxx12_Lock_policyE0EED1Ev>
   d612e:	e045      	b.n	d61bc <_ZN8particle18BleLocalDeviceImpl15onBleLinkEventsEPK18hal_ble_link_evt_tPv+0x12c>
                }
                break;
            }
            case BLE_EVT_DISCONNECTED: {
                BlePeerDevice* peer = impl->findPeerDevice(event->conn_handle);
   d6130:	8921      	ldrh	r1, [r4, #8]
   d6132:	4628      	mov	r0, r5
   d6134:	f7ff fd2e 	bl	d5b94 <_ZN8particle18BleLocalDeviceImpl14findPeerDeviceEt>
                if (peer) {
   d6138:	4607      	mov	r7, r0
   d613a:	2800      	cmp	r0, #0
   d613c:	d03e      	beq.n	d61bc <_ZN8particle18BleLocalDeviceImpl15onBleLinkEventsEPK18hal_ble_link_evt_tPv+0x12c>
   d613e:	6804      	ldr	r4, [r0, #0]
   d6140:	69a3      	ldr	r3, [r4, #24]
    return data_;
}

template<typename T, typename AllocatorT>
T* spark::Vector<T, AllocatorT>::end() {
    return data_ + size_;
   d6142:	69e1      	ldr	r1, [r4, #28]
    Vector<BleCharacteristic>& characteristics() {
        return characteristics_;
    }

    void onDisconnected() {
        connHandle_ = BLE_INVALID_CONN_HANDLE;
   d6144:	f64f 72ff 	movw	r2, #65535	; 0xffff
   d6148:	8022      	strh	r2, [r4, #0]
   d614a:	eb03 01c1 	add.w	r1, r3, r1, lsl #3
        for (auto& characteristic : characteristics_) {
   d614e:	4299      	cmp	r1, r3
   d6150:	d003      	beq.n	d615a <_ZN8particle18BleLocalDeviceImpl15onBleLinkEventsEPK18hal_ble_link_evt_tPv+0xca>
   d6152:	f853 0b08 	ldr.w	r0, [r3], #8
            characteristic.impl()->connHandle() = BLE_INVALID_CONN_HANDLE;
   d6156:	8042      	strh	r2, [r0, #2]
   d6158:	e7f9      	b.n	d614e <_ZN8particle18BleLocalDeviceImpl15onBleLinkEventsEPK18hal_ble_link_evt_tPv+0xbe>
    return true;
}

template<typename T, typename AllocatorT>
inline void spark::Vector<T, AllocatorT>::clear() {
    destruct(data_, data_ + size_);
   d615a:	68e6      	ldr	r6, [r4, #12]
   d615c:	6923      	ldr	r3, [r4, #16]
   d615e:	eb06 08c3 	add.w	r8, r6, r3, lsl #3
            new(p) T(std::forward<ArgsT>(args)...);
        }
    }

    static void destruct(T* p, const T* end) {
        for (; p != end; ++p) {
   d6162:	45b0      	cmp	r8, r6
   d6164:	d004      	beq.n	d6170 <_ZN8particle18BleLocalDeviceImpl15onBleLinkEventsEPK18hal_ble_link_evt_tPv+0xe0>
   d6166:	1d30      	adds	r0, r6, #4
   d6168:	f7fe f87a 	bl	d4260 <_ZNSt14__shared_countILN9__gnu_cxx12_Lock_policyE0EED1Ev>
   d616c:	3608      	adds	r6, #8
   d616e:	e7f8      	b.n	d6162 <_ZN8particle18BleLocalDeviceImpl15onBleLinkEventsEPK18hal_ble_link_evt_tPv+0xd2>
}

template<typename T, typename AllocatorT>
inline void spark::Vector<T, AllocatorT>::clear() {
    destruct(data_, data_ + size_);
    size_ = 0;
   d6170:	2300      	movs	r3, #0
   d6172:	6123      	str	r3, [r4, #16]
    return true;
}

template<typename T, typename AllocatorT>
inline void spark::Vector<T, AllocatorT>::clear() {
    destruct(data_, data_ + size_);
   d6174:	69a6      	ldr	r6, [r4, #24]
   d6176:	69e3      	ldr	r3, [r4, #28]
   d6178:	eb06 08c3 	add.w	r8, r6, r3, lsl #3
            new(p) T(std::forward<ArgsT>(args)...);
        }
    }

    static void destruct(T* p, const T* end) {
        for (; p != end; ++p) {
   d617c:	45b0      	cmp	r8, r6
   d617e:	d004      	beq.n	d618a <_ZN8particle18BleLocalDeviceImpl15onBleLinkEventsEPK18hal_ble_link_evt_tPv+0xfa>
   d6180:	1d30      	adds	r0, r6, #4
   d6182:	f7fe f86d 	bl	d4260 <_ZNSt14__shared_countILN9__gnu_cxx12_Lock_policyE0EED1Ev>
   d6186:	3608      	adds	r6, #8
   d6188:	e7f8      	b.n	d617c <_ZN8particle18BleLocalDeviceImpl15onBleLinkEventsEPK18hal_ble_link_evt_tPv+0xec>
}

template<typename T, typename AllocatorT>
inline void spark::Vector<T, AllocatorT>::clear() {
    destruct(data_, data_ + size_);
    size_ = 0;
   d618a:	2300      	movs	r3, #0
   d618c:	61e3      	str	r3, [r4, #28]
        }
        services_.clear();
        characteristics_.clear();
        servicesDiscovered_ = false;
   d618e:	72a3      	strb	r3, [r4, #10]
        characteristicsDiscovered_ = false;
   d6190:	72e3      	strb	r3, [r4, #11]
            }
            case BLE_EVT_DISCONNECTED: {
                BlePeerDevice* peer = impl->findPeerDevice(event->conn_handle);
                if (peer) {
                    peer->impl()->onDisconnected();
                    if (impl->disconnectedCb_) {
   d6192:	6aab      	ldr	r3, [r5, #40]	; 0x28
   d6194:	b113      	cbz	r3, d619c <_ZN8particle18BleLocalDeviceImpl15onBleLinkEventsEPK18hal_ble_link_evt_tPv+0x10c>
                        impl->disconnectedCb_(*peer, impl->disconnectedContext_);
   d6196:	6b29      	ldr	r1, [r5, #48]	; 0x30
   d6198:	4638      	mov	r0, r7
   d619a:	4798      	blx	r3
                    }
                    LOG(TRACE, "Disconnected by remote device.");
   d619c:	2320      	movs	r3, #32
   d619e:	4a0d      	ldr	r2, [pc, #52]	; (d61d4 <_ZN8particle18BleLocalDeviceImpl15onBleLinkEventsEPK18hal_ble_link_evt_tPv+0x144>)
   d61a0:	9306      	str	r3, [sp, #24]
   d61a2:	9200      	str	r2, [sp, #0]
   d61a4:	2300      	movs	r3, #0
   d61a6:	4909      	ldr	r1, [pc, #36]	; (d61cc <_ZN8particle18BleLocalDeviceImpl15onBleLinkEventsEPK18hal_ble_link_evt_tPv+0x13c>)
   d61a8:	9307      	str	r3, [sp, #28]
   d61aa:	2001      	movs	r0, #1
   d61ac:	aa06      	add	r2, sp, #24
   d61ae:	f7ff f97b 	bl	d54a8 <log_message>
                    impl->peers_.removeOne(*peer);
   d61b2:	4639      	mov	r1, r7
   d61b4:	f105 0018 	add.w	r0, r5, #24
   d61b8:	f7ff ff02 	bl	d5fc0 <_ZN5spark6VectorIN8particle13BlePeerDeviceENS_16DefaultAllocatorEE9removeOneERKS2_>
        return nullptr;
    }

    static void onBleLinkEvents(const hal_ble_link_evt_t* event, void* context) {
        auto impl = static_cast<BleLocalDeviceImpl*>(context);
        WiringBleLock lk;
   d61bc:	a803      	add	r0, sp, #12
   d61be:	f7ff fb1b 	bl	d57f8 <_ZN8particle3ble13WiringBleLockD1Ev>
            }
            default: {
                break;
            }
        }
    }
   d61c2:	b00e      	add	sp, #56	; 0x38
   d61c4:	e8bd 81f0 	ldmia.w	sp!, {r4, r5, r6, r7, r8, pc}
   d61c8:	000d8f52 	.word	0x000d8f52
   d61cc:	000d8ef0 	.word	0x000d8ef0
   d61d0:	000d8f78 	.word	0x000d8f78
   d61d4:	000d8f95 	.word	0x000d8f95

000d61d8 <_ZN5spark6VectorIN8particle10BleServiceENS_16DefaultAllocatorEE4moveIS2_Li0EEEvPS2_S6_S6_>:
        ::memmove(dest, p, (end - p) * sizeof(T));
    }

    template<PARTICLE_VECTOR_ENABLE_IF_NOT_TRIVIALLY_COPYABLE(T)>
    static void move(T* dest, T* p, T* end) {
        if (dest > p && dest < end) {
   d61d8:	4288      	cmp	r0, r1
    static void move(T* dest, const T* p, const T* end) {
        ::memmove(dest, p, (end - p) * sizeof(T));
    }

    template<PARTICLE_VECTOR_ENABLE_IF_NOT_TRIVIALLY_COPYABLE(T)>
    static void move(T* dest, T* p, T* end) {
   d61da:	b5f8      	push	{r3, r4, r5, r6, r7, lr}
   d61dc:	4606      	mov	r6, r0
   d61de:	460c      	mov	r4, r1
   d61e0:	4615      	mov	r5, r2
        if (dest > p && dest < end) {
   d61e2:	d914      	bls.n	d620e <_ZN5spark6VectorIN8particle10BleServiceENS_16DefaultAllocatorEE4moveIS2_Li0EEEvPS2_S6_S6_+0x36>
   d61e4:	4290      	cmp	r0, r2
   d61e6:	d213      	bcs.n	d6210 <_ZN5spark6VectorIN8particle10BleServiceENS_16DefaultAllocatorEE4moveIS2_Li0EEEvPS2_S6_S6_+0x38>
            // Move elements in reverse order
            --p;
            --end;
   d61e8:	f1a2 0508 	sub.w	r5, r2, #8
            dest += end - p - 1;
   d61ec:	1a6c      	subs	r4, r5, r1
   d61ee:	f1a1 0708 	sub.w	r7, r1, #8
   d61f2:	4404      	add	r4, r0
            for (; end != p; --end, --dest) {
   d61f4:	42af      	cmp	r7, r5
   d61f6:	d018      	beq.n	d622a <_ZN5spark6VectorIN8particle10BleServiceENS_16DefaultAllocatorEE4moveIS2_Li0EEEvPS2_S6_S6_+0x52>
                new(dest) T(std::move(*end));
   d61f8:	b11c      	cbz	r4, d6202 <_ZN5spark6VectorIN8particle10BleServiceENS_16DefaultAllocatorEE4moveIS2_Li0EEEvPS2_S6_S6_+0x2a>
       *  @post   use_count()==0 && get()==0
       */
      constexpr shared_ptr() noexcept
      : __shared_ptr<_Tp>() { }

      shared_ptr(const shared_ptr&) noexcept = default;
   d61fa:	4629      	mov	r1, r5
   d61fc:	4620      	mov	r0, r4
   d61fe:	f7ff fe0d 	bl	d5e1c <_ZNSt12__shared_ptrIN8particle14BleServiceImplELN9__gnu_cxx12_Lock_policyE0EEC1ERKS4_>
   d6202:	1d28      	adds	r0, r5, #4
   d6204:	f7fe f82c 	bl	d4260 <_ZNSt14__shared_countILN9__gnu_cxx12_Lock_policyE0EED1Ev>
        if (dest > p && dest < end) {
            // Move elements in reverse order
            --p;
            --end;
            dest += end - p - 1;
            for (; end != p; --end, --dest) {
   d6208:	3d08      	subs	r5, #8
   d620a:	3c08      	subs	r4, #8
   d620c:	e7f2      	b.n	d61f4 <_ZN5spark6VectorIN8particle10BleServiceENS_16DefaultAllocatorEE4moveIS2_Li0EEEvPS2_S6_S6_+0x1c>
                new(dest) T(std::move(*end));
                end->~T();
            }
        } else if (dest != p) {
   d620e:	d00c      	beq.n	d622a <_ZN5spark6VectorIN8particle10BleServiceENS_16DefaultAllocatorEE4moveIS2_Li0EEEvPS2_S6_S6_+0x52>
            for (; p != end; ++p, ++dest) {
   d6210:	42ac      	cmp	r4, r5
   d6212:	d00a      	beq.n	d622a <_ZN5spark6VectorIN8particle10BleServiceENS_16DefaultAllocatorEE4moveIS2_Li0EEEvPS2_S6_S6_+0x52>
                new(dest) T(std::move(*p));
   d6214:	b11e      	cbz	r6, d621e <_ZN5spark6VectorIN8particle10BleServiceENS_16DefaultAllocatorEE4moveIS2_Li0EEEvPS2_S6_S6_+0x46>
   d6216:	4621      	mov	r1, r4
   d6218:	4630      	mov	r0, r6
   d621a:	f7ff fdff 	bl	d5e1c <_ZNSt12__shared_ptrIN8particle14BleServiceImplELN9__gnu_cxx12_Lock_policyE0EEC1ERKS4_>
   d621e:	1d20      	adds	r0, r4, #4
   d6220:	f7fe f81e 	bl	d4260 <_ZNSt14__shared_countILN9__gnu_cxx12_Lock_policyE0EED1Ev>
            for (; end != p; --end, --dest) {
                new(dest) T(std::move(*end));
                end->~T();
            }
        } else if (dest != p) {
            for (; p != end; ++p, ++dest) {
   d6224:	3408      	adds	r4, #8
   d6226:	3608      	adds	r6, #8
   d6228:	e7f2      	b.n	d6210 <_ZN5spark6VectorIN8particle10BleServiceENS_16DefaultAllocatorEE4moveIS2_Li0EEEvPS2_S6_S6_+0x38>
   d622a:	bdf8      	pop	{r3, r4, r5, r6, r7, pc}

000d622c <_ZN5spark6VectorIN8particle10BleServiceENS_16DefaultAllocatorEE7reallocIS2_Li0EEEbi>:
        capacity_ = n;
        return true;
    }

    template<PARTICLE_VECTOR_ENABLE_IF_NOT_TRIVIALLY_COPYABLE(T)>
    bool realloc(int n) {
   d622c:	b570      	push	{r4, r5, r6, lr}
        T* d = nullptr;
        if (n > 0) {
   d622e:	1e0e      	subs	r6, r1, #0
        capacity_ = n;
        return true;
    }

    template<PARTICLE_VECTOR_ENABLE_IF_NOT_TRIVIALLY_COPYABLE(T)>
    bool realloc(int n) {
   d6230:	4605      	mov	r5, r0
        T* d = nullptr;
        if (n > 0) {
   d6232:	dd0b      	ble.n	d624c <_ZN5spark6VectorIN8particle10BleServiceENS_16DefaultAllocatorEE7reallocIS2_Li0EEEbi+0x20>

} // particle

// spark::DefaultAllocator
inline void* spark::DefaultAllocator::malloc(size_t size) {
    return ::malloc(size);
   d6234:	00f0      	lsls	r0, r6, #3
   d6236:	f7ff f9fd 	bl	d5634 <malloc>
    template<PARTICLE_VECTOR_ENABLE_IF_NOT_TRIVIALLY_COPYABLE(T)>
    bool realloc(int n) {
        T* d = nullptr;
        if (n > 0) {
            d = (T*)AllocatorT::malloc(n * sizeof(T));
            if (!d) {
   d623a:	4604      	mov	r4, r0
   d623c:	b170      	cbz	r0, d625c <_ZN5spark6VectorIN8particle10BleServiceENS_16DefaultAllocatorEE7reallocIS2_Li0EEEbi+0x30>
                return false;
            }
            move(d, data_, data_ + size_);
   d623e:	e895 0006 	ldmia.w	r5, {r1, r2}
   d6242:	eb01 02c2 	add.w	r2, r1, r2, lsl #3
   d6246:	f7ff ffc7 	bl	d61d8 <_ZN5spark6VectorIN8particle10BleServiceENS_16DefaultAllocatorEE4moveIS2_Li0EEEvPS2_S6_S6_>
   d624a:	e000      	b.n	d624e <_ZN5spark6VectorIN8particle10BleServiceENS_16DefaultAllocatorEE7reallocIS2_Li0EEEbi+0x22>
        return true;
    }

    template<PARTICLE_VECTOR_ENABLE_IF_NOT_TRIVIALLY_COPYABLE(T)>
    bool realloc(int n) {
        T* d = nullptr;
   d624c:	2400      	movs	r4, #0
inline void* spark::DefaultAllocator::realloc(void* ptr, size_t size) {
    return ::realloc(ptr, size);
}

inline void spark::DefaultAllocator::free(void* ptr) {
    ::free(ptr);
   d624e:	6828      	ldr	r0, [r5, #0]
   d6250:	f7ff f9f8 	bl	d5644 <free>
                return false;
            }
            move(d, data_, data_ + size_);
        }
        AllocatorT::free(data_);
        data_ = d;
   d6254:	602c      	str	r4, [r5, #0]
        capacity_ = n;
   d6256:	60ae      	str	r6, [r5, #8]
        return true;
   d6258:	2001      	movs	r0, #1
   d625a:	bd70      	pop	{r4, r5, r6, pc}
    }
   d625c:	bd70      	pop	{r4, r5, r6, pc}

000d625e <_ZN5spark6VectorIN8particle10BleServiceENS_16DefaultAllocatorEE6appendES2_>:
    destruct(data_, data_ + size_);
    AllocatorT::free(data_);
}

template<typename T, typename AllocatorT>
inline bool spark::Vector<T, AllocatorT>::append(T value) {
   d625e:	b573      	push	{r0, r1, r4, r5, r6, lr}
   d6260:	4604      	mov	r4, r0
    return insert(size_, std::move(value));
   d6262:	6845      	ldr	r5, [r0, #4]
   d6264:	4668      	mov	r0, sp
   d6266:	f7ff fdd9 	bl	d5e1c <_ZNSt12__shared_ptrIN8particle14BleServiceImplELN9__gnu_cxx12_Lock_policyE0EEC1ERKS4_>
    return insert(0, vector);
}

template<typename T, typename AllocatorT>
inline bool spark::Vector<T, AllocatorT>::insert(int i, T value) {
    if (size_ + 1 > capacity_ && !realloc(size_ + 1)) {
   d626a:	6861      	ldr	r1, [r4, #4]
   d626c:	68a3      	ldr	r3, [r4, #8]
   d626e:	4299      	cmp	r1, r3
   d6270:	db05      	blt.n	d627e <_ZN5spark6VectorIN8particle10BleServiceENS_16DefaultAllocatorEE6appendES2_+0x20>
   d6272:	3101      	adds	r1, #1
   d6274:	4620      	mov	r0, r4
   d6276:	f7ff ffd9 	bl	d622c <_ZN5spark6VectorIN8particle10BleServiceENS_16DefaultAllocatorEE7reallocIS2_Li0EEEbi>
   d627a:	4606      	mov	r6, r0
   d627c:	b198      	cbz	r0, d62a6 <_ZN5spark6VectorIN8particle10BleServiceENS_16DefaultAllocatorEE6appendES2_+0x48>
        return false;
    }
    T* const p = data_ + i;
   d627e:	6823      	ldr	r3, [r4, #0]
    move(p + 1, p, data_ + size_);
   d6280:	6862      	ldr	r2, [r4, #4]
template<typename T, typename AllocatorT>
inline bool spark::Vector<T, AllocatorT>::insert(int i, T value) {
    if (size_ + 1 > capacity_ && !realloc(size_ + 1)) {
        return false;
    }
    T* const p = data_ + i;
   d6282:	eb03 05c5 	add.w	r5, r3, r5, lsl #3
    move(p + 1, p, data_ + size_);
   d6286:	eb03 02c2 	add.w	r2, r3, r2, lsl #3
   d628a:	4629      	mov	r1, r5
   d628c:	f105 0008 	add.w	r0, r5, #8
   d6290:	f7ff ffa2 	bl	d61d8 <_ZN5spark6VectorIN8particle10BleServiceENS_16DefaultAllocatorEE4moveIS2_Li0EEEvPS2_S6_S6_>
    new(p) T(std::move(value));
   d6294:	b11d      	cbz	r5, d629e <_ZN5spark6VectorIN8particle10BleServiceENS_16DefaultAllocatorEE6appendES2_+0x40>
   d6296:	4669      	mov	r1, sp
   d6298:	4628      	mov	r0, r5
   d629a:	f7ff fdbf 	bl	d5e1c <_ZNSt12__shared_ptrIN8particle14BleServiceImplELN9__gnu_cxx12_Lock_policyE0EEC1ERKS4_>
    ++size_;
   d629e:	6863      	ldr	r3, [r4, #4]
   d62a0:	3301      	adds	r3, #1
   d62a2:	6063      	str	r3, [r4, #4]
   d62a4:	2601      	movs	r6, #1
   d62a6:	a801      	add	r0, sp, #4
   d62a8:	f7fd ffda 	bl	d4260 <_ZNSt14__shared_countILN9__gnu_cxx12_Lock_policyE0EED1Ev>
}

template<typename T, typename AllocatorT>
inline bool spark::Vector<T, AllocatorT>::append(T value) {
    return insert(size_, std::move(value));
}
   d62ac:	4630      	mov	r0, r6
   d62ae:	b002      	add	sp, #8
   d62b0:	bd70      	pop	{r4, r5, r6, pc}

000d62b2 <_ZN5spark6VectorIN8particle17BleCharacteristicENS_16DefaultAllocatorEE4moveIS2_Li0EEEvPS2_S6_S6_>:
        ::memmove(dest, p, (end - p) * sizeof(T));
    }

    template<PARTICLE_VECTOR_ENABLE_IF_NOT_TRIVIALLY_COPYABLE(T)>
    static void move(T* dest, T* p, T* end) {
        if (dest > p && dest < end) {
   d62b2:	4288      	cmp	r0, r1
    static void move(T* dest, const T* p, const T* end) {
        ::memmove(dest, p, (end - p) * sizeof(T));
    }

    template<PARTICLE_VECTOR_ENABLE_IF_NOT_TRIVIALLY_COPYABLE(T)>
    static void move(T* dest, T* p, T* end) {
   d62b4:	b5f8      	push	{r3, r4, r5, r6, r7, lr}
   d62b6:	4606      	mov	r6, r0
   d62b8:	460c      	mov	r4, r1
   d62ba:	4615      	mov	r5, r2
        if (dest > p && dest < end) {
   d62bc:	d914      	bls.n	d62e8 <_ZN5spark6VectorIN8particle17BleCharacteristicENS_16DefaultAllocatorEE4moveIS2_Li0EEEvPS2_S6_S6_+0x36>
   d62be:	4290      	cmp	r0, r2
   d62c0:	d213      	bcs.n	d62ea <_ZN5spark6VectorIN8particle17BleCharacteristicENS_16DefaultAllocatorEE4moveIS2_Li0EEEvPS2_S6_S6_+0x38>
            // Move elements in reverse order
            --p;
            --end;
   d62c2:	f1a2 0508 	sub.w	r5, r2, #8
            dest += end - p - 1;
   d62c6:	1a6c      	subs	r4, r5, r1
   d62c8:	f1a1 0708 	sub.w	r7, r1, #8
   d62cc:	4404      	add	r4, r0
            for (; end != p; --end, --dest) {
   d62ce:	42af      	cmp	r7, r5
   d62d0:	d018      	beq.n	d6304 <_ZN5spark6VectorIN8particle17BleCharacteristicENS_16DefaultAllocatorEE4moveIS2_Li0EEEvPS2_S6_S6_+0x52>
                new(dest) T(std::move(*end));
   d62d2:	b11c      	cbz	r4, d62dc <_ZN5spark6VectorIN8particle17BleCharacteristicENS_16DefaultAllocatorEE4moveIS2_Li0EEEvPS2_S6_S6_+0x2a>
   d62d4:	4629      	mov	r1, r5
   d62d6:	4620      	mov	r0, r4
   d62d8:	f7ff fd92 	bl	d5e00 <_ZN8particle17BleCharacteristicC1ERKS0_>
   d62dc:	1d28      	adds	r0, r5, #4
   d62de:	f7fd ffbf 	bl	d4260 <_ZNSt14__shared_countILN9__gnu_cxx12_Lock_policyE0EED1Ev>
        if (dest > p && dest < end) {
            // Move elements in reverse order
            --p;
            --end;
            dest += end - p - 1;
            for (; end != p; --end, --dest) {
   d62e2:	3d08      	subs	r5, #8
   d62e4:	3c08      	subs	r4, #8
   d62e6:	e7f2      	b.n	d62ce <_ZN5spark6VectorIN8particle17BleCharacteristicENS_16DefaultAllocatorEE4moveIS2_Li0EEEvPS2_S6_S6_+0x1c>
                new(dest) T(std::move(*end));
                end->~T();
            }
        } else if (dest != p) {
   d62e8:	d00c      	beq.n	d6304 <_ZN5spark6VectorIN8particle17BleCharacteristicENS_16DefaultAllocatorEE4moveIS2_Li0EEEvPS2_S6_S6_+0x52>
            for (; p != end; ++p, ++dest) {
   d62ea:	42ac      	cmp	r4, r5
   d62ec:	d00a      	beq.n	d6304 <_ZN5spark6VectorIN8particle17BleCharacteristicENS_16DefaultAllocatorEE4moveIS2_Li0EEEvPS2_S6_S6_+0x52>
                new(dest) T(std::move(*p));
   d62ee:	b11e      	cbz	r6, d62f8 <_ZN5spark6VectorIN8particle17BleCharacteristicENS_16DefaultAllocatorEE4moveIS2_Li0EEEvPS2_S6_S6_+0x46>
   d62f0:	4621      	mov	r1, r4
   d62f2:	4630      	mov	r0, r6
   d62f4:	f7ff fd84 	bl	d5e00 <_ZN8particle17BleCharacteristicC1ERKS0_>
   d62f8:	1d20      	adds	r0, r4, #4
   d62fa:	f7fd ffb1 	bl	d4260 <_ZNSt14__shared_countILN9__gnu_cxx12_Lock_policyE0EED1Ev>
            for (; end != p; --end, --dest) {
                new(dest) T(std::move(*end));
                end->~T();
            }
        } else if (dest != p) {
            for (; p != end; ++p, ++dest) {
   d62fe:	3408      	adds	r4, #8
   d6300:	3608      	adds	r6, #8
   d6302:	e7f2      	b.n	d62ea <_ZN5spark6VectorIN8particle17BleCharacteristicENS_16DefaultAllocatorEE4moveIS2_Li0EEEvPS2_S6_S6_+0x38>
   d6304:	bdf8      	pop	{r3, r4, r5, r6, r7, pc}

000d6306 <_ZN5spark6VectorIN8particle17BleCharacteristicENS_16DefaultAllocatorEE7reallocIS2_Li0EEEbi>:
        capacity_ = n;
        return true;
    }

    template<PARTICLE_VECTOR_ENABLE_IF_NOT_TRIVIALLY_COPYABLE(T)>
    bool realloc(int n) {
   d6306:	b570      	push	{r4, r5, r6, lr}
        T* d = nullptr;
        if (n > 0) {
   d6308:	1e0e      	subs	r6, r1, #0
        capacity_ = n;
        return true;
    }

    template<PARTICLE_VECTOR_ENABLE_IF_NOT_TRIVIALLY_COPYABLE(T)>
    bool realloc(int n) {
   d630a:	4605      	mov	r5, r0
        T* d = nullptr;
        if (n > 0) {
   d630c:	dd0b      	ble.n	d6326 <_ZN5spark6VectorIN8particle17BleCharacteristicENS_16DefaultAllocatorEE7reallocIS2_Li0EEEbi+0x20>

} // particle

// spark::DefaultAllocator
inline void* spark::DefaultAllocator::malloc(size_t size) {
    return ::malloc(size);
   d630e:	00f0      	lsls	r0, r6, #3
   d6310:	f7ff f990 	bl	d5634 <malloc>
    template<PARTICLE_VECTOR_ENABLE_IF_NOT_TRIVIALLY_COPYABLE(T)>
    bool realloc(int n) {
        T* d = nullptr;
        if (n > 0) {
            d = (T*)AllocatorT::malloc(n * sizeof(T));
            if (!d) {
   d6314:	4604      	mov	r4, r0
   d6316:	b170      	cbz	r0, d6336 <_ZN5spark6VectorIN8particle17BleCharacteristicENS_16DefaultAllocatorEE7reallocIS2_Li0EEEbi+0x30>
                return false;
            }
            move(d, data_, data_ + size_);
   d6318:	e895 0006 	ldmia.w	r5, {r1, r2}
   d631c:	eb01 02c2 	add.w	r2, r1, r2, lsl #3
   d6320:	f7ff ffc7 	bl	d62b2 <_ZN5spark6VectorIN8particle17BleCharacteristicENS_16DefaultAllocatorEE4moveIS2_Li0EEEvPS2_S6_S6_>
   d6324:	e000      	b.n	d6328 <_ZN5spark6VectorIN8particle17BleCharacteristicENS_16DefaultAllocatorEE7reallocIS2_Li0EEEbi+0x22>
        return true;
    }

    template<PARTICLE_VECTOR_ENABLE_IF_NOT_TRIVIALLY_COPYABLE(T)>
    bool realloc(int n) {
        T* d = nullptr;
   d6326:	2400      	movs	r4, #0
inline void* spark::DefaultAllocator::realloc(void* ptr, size_t size) {
    return ::realloc(ptr, size);
}

inline void spark::DefaultAllocator::free(void* ptr) {
    ::free(ptr);
   d6328:	6828      	ldr	r0, [r5, #0]
   d632a:	f7ff f98b 	bl	d5644 <free>
                return false;
            }
            move(d, data_, data_ + size_);
        }
        AllocatorT::free(data_);
        data_ = d;
   d632e:	602c      	str	r4, [r5, #0]
        capacity_ = n;
   d6330:	60ae      	str	r6, [r5, #8]
        return true;
   d6332:	2001      	movs	r0, #1
   d6334:	bd70      	pop	{r4, r5, r6, pc}
    }
   d6336:	bd70      	pop	{r4, r5, r6, pc}

000d6338 <_ZN5spark6VectorIN8particle17BleCharacteristicENS_16DefaultAllocatorEE6appendES2_>:
    destruct(data_, data_ + size_);
    AllocatorT::free(data_);
}

template<typename T, typename AllocatorT>
inline bool spark::Vector<T, AllocatorT>::append(T value) {
   d6338:	b573      	push	{r0, r1, r4, r5, r6, lr}
   d633a:	4604      	mov	r4, r0
    return insert(size_, std::move(value));
   d633c:	6845      	ldr	r5, [r0, #4]
   d633e:	4668      	mov	r0, sp
   d6340:	f7ff fd5e 	bl	d5e00 <_ZN8particle17BleCharacteristicC1ERKS0_>
    return insert(0, vector);
}

template<typename T, typename AllocatorT>
inline bool spark::Vector<T, AllocatorT>::insert(int i, T value) {
    if (size_ + 1 > capacity_ && !realloc(size_ + 1)) {
   d6344:	6861      	ldr	r1, [r4, #4]
   d6346:	68a3      	ldr	r3, [r4, #8]
   d6348:	4299      	cmp	r1, r3
   d634a:	db05      	blt.n	d6358 <_ZN5spark6VectorIN8particle17BleCharacteristicENS_16DefaultAllocatorEE6appendES2_+0x20>
   d634c:	3101      	adds	r1, #1
   d634e:	4620      	mov	r0, r4
   d6350:	f7ff ffd9 	bl	d6306 <_ZN5spark6VectorIN8particle17BleCharacteristicENS_16DefaultAllocatorEE7reallocIS2_Li0EEEbi>
   d6354:	4606      	mov	r6, r0
   d6356:	b198      	cbz	r0, d6380 <_ZN5spark6VectorIN8particle17BleCharacteristicENS_16DefaultAllocatorEE6appendES2_+0x48>
        return false;
    }
    T* const p = data_ + i;
   d6358:	6823      	ldr	r3, [r4, #0]
    move(p + 1, p, data_ + size_);
   d635a:	6862      	ldr	r2, [r4, #4]
template<typename T, typename AllocatorT>
inline bool spark::Vector<T, AllocatorT>::insert(int i, T value) {
    if (size_ + 1 > capacity_ && !realloc(size_ + 1)) {
        return false;
    }
    T* const p = data_ + i;
   d635c:	eb03 05c5 	add.w	r5, r3, r5, lsl #3
    move(p + 1, p, data_ + size_);
   d6360:	eb03 02c2 	add.w	r2, r3, r2, lsl #3
   d6364:	4629      	mov	r1, r5
   d6366:	f105 0008 	add.w	r0, r5, #8
   d636a:	f7ff ffa2 	bl	d62b2 <_ZN5spark6VectorIN8particle17BleCharacteristicENS_16DefaultAllocatorEE4moveIS2_Li0EEEvPS2_S6_S6_>
    new(p) T(std::move(value));
   d636e:	b11d      	cbz	r5, d6378 <_ZN5spark6VectorIN8particle17BleCharacteristicENS_16DefaultAllocatorEE6appendES2_+0x40>
   d6370:	4669      	mov	r1, sp
   d6372:	4628      	mov	r0, r5
   d6374:	f7ff fd44 	bl	d5e00 <_ZN8particle17BleCharacteristicC1ERKS0_>
    ++size_;
   d6378:	6863      	ldr	r3, [r4, #4]
   d637a:	3301      	adds	r3, #1
   d637c:	6063      	str	r3, [r4, #4]
   d637e:	2601      	movs	r6, #1
   d6380:	a801      	add	r0, sp, #4
   d6382:	f7fd ff6d 	bl	d4260 <_ZNSt14__shared_countILN9__gnu_cxx12_Lock_policyE0EED1Ev>
}

template<typename T, typename AllocatorT>
inline bool spark::Vector<T, AllocatorT>::append(T value) {
    return insert(size_, std::move(value));
}
   d6386:	4630      	mov	r0, r6
   d6388:	b002      	add	sp, #8
   d638a:	bd70      	pop	{r4, r5, r6, pc}

000d638c <_ZNSt15__allocated_ptrISaIN8particle21BleCharacteristicImplEEED1Ev>:
      __allocated_ptr(__allocated_ptr&& __gd) noexcept
      : _M_alloc(__gd._M_alloc), _M_ptr(__gd._M_ptr)
      { __gd._M_ptr = nullptr; }

      /// Deallocate the owned pointer
      ~__allocated_ptr()
   d638c:	b510      	push	{r4, lr}
   d638e:	4604      	mov	r4, r0
      {
	if (_M_ptr != nullptr)
   d6390:	6840      	ldr	r0, [r0, #4]
   d6392:	b108      	cbz	r0, d6398 <_ZNSt15__allocated_ptrISaIN8particle21BleCharacteristicImplEEED1Ev+0xc>
      }

      // __p is not permitted to be a null pointer.
      void
      deallocate(pointer __p, size_type)
      { ::operator delete(__p); }
   d6394:	f7fd fe81 	bl	d409a <_ZdlPv>
	  std::allocator_traits<_Alloc>::deallocate(*_M_alloc, _M_ptr, 1);
      }
   d6398:	4620      	mov	r0, r4
   d639a:	bd10      	pop	{r4, pc}

000d639c <_ZNSt19_Sp_counted_deleterIPN8particle21BleCharacteristicImplENSt12__shared_ptrIS1_LN9__gnu_cxx12_Lock_policyE0EE8_DeleterISaIS1_EEES8_LS5_0EE10_M_disposeEv>:
      : _M_impl(__p, __d, __a) { }

      ~_Sp_counted_deleter() noexcept { }

      virtual void
      _M_dispose() noexcept
   d639c:	b507      	push	{r0, r1, r2, lr}
      { _M_impl._M_del()(_M_impl._M_ptr); }
   d639e:	6903      	ldr	r3, [r0, #16]
      template<typename _Alloc>
        struct _Deleter
        {
          void operator()(typename _Alloc::value_type* __ptr)
          {
	    __allocated_ptr<_Alloc> __guard{ _M_alloc, __ptr };
   d63a0:	300c      	adds	r0, #12
      using pointer = typename allocator_traits<_Alloc>::pointer;
      using value_type = typename allocator_traits<_Alloc>::value_type;

      /// Take ownership of __ptr
      __allocated_ptr(_Alloc& __a, pointer __ptr) noexcept
      : _M_alloc(&__a), _M_ptr(__ptr)
   d63a2:	e88d 0009 	stmia.w	sp, {r0, r3}
            : BleCharacteristicImpl(desc, properties, callback, context) {
        charUuid_ = charUuid;
        svcUuid_ = svcUuid;
    }

    ~BleCharacteristicImpl() = default;
   d63a6:	f103 003c 	add.w	r0, r3, #60	; 0x3c
   d63aa:	f001 f8bf 	bl	d752c <_ZN6StringD1Ev>
   d63ae:	4668      	mov	r0, sp
   d63b0:	f7ff ffec 	bl	d638c <_ZNSt15__allocated_ptrISaIN8particle21BleCharacteristicImplEEED1Ev>

      ~_Sp_counted_deleter() noexcept { }

      virtual void
      _M_dispose() noexcept
      { _M_impl._M_del()(_M_impl._M_ptr); }
   d63b4:	b003      	add	sp, #12
   d63b6:	f85d fb04 	ldr.w	pc, [sp], #4
	...

000d63bc <_ZNSt14__shared_countILN9__gnu_cxx12_Lock_policyE0EEC1IPN8particle21BleCharacteristicImplENSt12__shared_ptrIS5_LS1_0EE8_DeleterISaIS5_EEESA_EET_T0_T1_>:
	__shared_count(_Ptr __p, _Deleter __d)
	: __shared_count(__p, std::move(__d), allocator<void>())
	{ }

      template<typename _Ptr, typename _Deleter, typename _Alloc>
	__shared_count(_Ptr __p, _Deleter __d, _Alloc __a) : _M_pi(0)
   d63bc:	b538      	push	{r3, r4, r5, lr}
   d63be:	2300      	movs	r3, #0
   d63c0:	4604      	mov	r4, r0
   d63c2:	6003      	str	r3, [r0, #0]
      allocate(size_type __n, const void* = 0)
      { 
	if (__n > this->max_size())
	  std::__throw_bad_alloc();

	return static_cast<_Tp*>(::operator new(__n * sizeof(_Tp)));
   d63c4:	2014      	movs	r0, #20
   d63c6:	460d      	mov	r5, r1
   d63c8:	f7fd fe65 	bl	d4096 <_Znwj>
	  __try
	    {
	      typename _Sp_cd_type::__allocator_type __a2(__a);
	      auto __guard = std::__allocate_guarded(__a2);
	      _Sp_cd_type* __mem = __guard.get();
	      ::new (__mem) _Sp_cd_type(__p, std::move(__d), std::move(__a));
   d63cc:	b128      	cbz	r0, d63da <_ZNSt14__shared_countILN9__gnu_cxx12_Lock_policyE0EEC1IPN8particle21BleCharacteristicImplENSt12__shared_ptrIS5_LS1_0EE8_DeleterISaIS5_EEESA_EET_T0_T1_+0x1e>
    class _Sp_counted_base
    : public _Mutex_base<_Lp>
    {
    public:  
      _Sp_counted_base() noexcept
      : _M_use_count(1), _M_weak_count(1) { }
   d63ce:	2301      	movs	r3, #1
   d63d0:	6043      	str	r3, [r0, #4]
   d63d2:	6083      	str	r3, [r0, #8]
      _Sp_counted_deleter(_Ptr __p, _Deleter __d) noexcept
      : _M_impl(__p, __d, _Alloc()) { }

      // __d(__p) must not throw.
      _Sp_counted_deleter(_Ptr __p, _Deleter __d, const _Alloc& __a) noexcept
      : _M_impl(__p, __d, __a) { }
   d63d4:	4b02      	ldr	r3, [pc, #8]	; (d63e0 <_ZNSt14__shared_countILN9__gnu_cxx12_Lock_policyE0EEC1IPN8particle21BleCharacteristicImplENSt12__shared_ptrIS5_LS1_0EE8_DeleterISaIS5_EEESA_EET_T0_T1_+0x24>)
   d63d6:	6003      	str	r3, [r0, #0]
	typedef _Sp_ebo_helper<0, _Deleter>	_Del_base;
	typedef _Sp_ebo_helper<1, _Alloc>	_Alloc_base;

      public:
	_Impl(_Ptr __p, _Deleter __d, const _Alloc& __a) noexcept
	: _M_ptr(__p), _Del_base(__d), _Alloc_base(__a)
   d63d8:	6105      	str	r5, [r0, #16]
	    {
	      typename _Sp_cd_type::__allocator_type __a2(__a);
	      auto __guard = std::__allocate_guarded(__a2);
	      _Sp_cd_type* __mem = __guard.get();
	      ::new (__mem) _Sp_cd_type(__p, std::move(__d), std::move(__a));
	      _M_pi = __mem;
   d63da:	6020      	str	r0, [r4, #0]
	  __catch(...)
	    {
	      __d(__p); // Call _Deleter on __p.
	      __throw_exception_again;
	    }
	}
   d63dc:	4620      	mov	r0, r4
   d63de:	bd38      	pop	{r3, r4, r5, pc}
   d63e0:	000d8e94 	.word	0x000d8e94

000d63e4 <_ZN8particle17BleCharacteristic9constructEPKcNS_25BleCharacteristicPropertyERNS_7BleUuidES5_PFvPKhjRKNS_13BlePeerDeviceEPvESB_>:
        SPARK_ASSERT(false);
    }
    DEBUG("BleCharacteristic(...), 0x%08X -> 0x%08X, count: %d", this, impl(), impl_.use_count());
}

void BleCharacteristic::construct(const char* desc, BleCharacteristicProperty properties, BleUuid& charUuid, BleUuid& svcUuid, BleOnDataReceivedCallback callback, void* context) {
   d63e4:	e92d 41f0 	stmdb	sp!, {r4, r5, r6, r7, r8, lr}
   d63e8:	b088      	sub	sp, #32
   d63ea:	4605      	mov	r5, r0
   d63ec:	461e      	mov	r6, r3
   d63ee:	2054      	movs	r0, #84	; 0x54
        };

      template<typename _Alloc, typename... _Args>
	__shared_ptr(_Sp_make_shared_tag __tag, const _Alloc& __a,
		     _Args&&... __args)
	: _M_ptr(), _M_refcount()
   d63f0:	2300      	movs	r3, #0
   d63f2:	460f      	mov	r7, r1
   d63f4:	4690      	mov	r8, r2
   d63f6:	9304      	str	r3, [sp, #16]

  template<_Lock_policy _Lp>
    class __shared_count
    {
    public:
      constexpr __shared_count() noexcept : _M_pi(0)
   d63f8:	9305      	str	r3, [sp, #20]
   d63fa:	f7fd fe4c 	bl	d4096 <_Znwj>
   d63fe:	f8cd d018 	str.w	sp, [sp, #24]
   d6402:	4604      	mov	r4, r0
   d6404:	9007      	str	r0, [sp, #28]

#if __cplusplus >= 201103L
      template<typename _Up, typename... _Args>
        void
        construct(_Up* __p, _Args&&... __args)
	{ ::new((void *)__p) _Up(std::forward<_Args>(__args)...); }
   d6406:	b1b0      	cbz	r0, d6436 <_ZN8particle17BleCharacteristic9constructEPKcNS_25BleCharacteristicPropertyERNS_7BleUuidES5_PFvPKhjRKNS_13BlePeerDeviceEPvESB_+0x52>
              callback_(nullptr),
              context_(nullptr) {
    }

    BleCharacteristicImpl(const char* desc, BleCharacteristicProperty properties, BleOnDataReceivedCallback callback, void* context)
            : BleCharacteristicImpl() {
   d6408:	f7ff fba4 	bl	d5b54 <_ZN8particle21BleCharacteristicImplC1Ev>
        properties_ = properties;
        description_ = desc;
   d640c:	4639      	mov	r1, r7
   d640e:	f104 003c 	add.w	r0, r4, #60	; 0x3c
              context_(nullptr) {
    }

    BleCharacteristicImpl(const char* desc, BleCharacteristicProperty properties, BleOnDataReceivedCallback callback, void* context)
            : BleCharacteristicImpl() {
        properties_ = properties;
   d6412:	f884 8004 	strb.w	r8, [r4, #4]
        description_ = desc;
   d6416:	f001 f8fd 	bl	d7614 <_ZN6StringaSEPKc>
        callback_ = callback;
   d641a:	9b0f      	ldr	r3, [sp, #60]	; 0x3c
   d641c:	64e3      	str	r3, [r4, #76]	; 0x4c
        context_ = context;
    }

    BleCharacteristicImpl(const char* desc, BleCharacteristicProperty properties, BleUuid& charUuid, BleUuid& svcUuid, BleOnDataReceivedCallback callback, void* context)
            : BleCharacteristicImpl(desc, properties, callback, context) {
        charUuid_ = charUuid;
   d641e:	4631      	mov	r1, r6
    BleCharacteristicImpl(const char* desc, BleCharacteristicProperty properties, BleOnDataReceivedCallback callback, void* context)
            : BleCharacteristicImpl() {
        properties_ = properties;
        description_ = desc;
        callback_ = callback;
        context_ = context;
   d6420:	9b10      	ldr	r3, [sp, #64]	; 0x40
   d6422:	6523      	str	r3, [r4, #80]	; 0x50
    }

    BleCharacteristicImpl(const char* desc, BleCharacteristicProperty properties, BleUuid& charUuid, BleUuid& svcUuid, BleOnDataReceivedCallback callback, void* context)
            : BleCharacteristicImpl(desc, properties, callback, context) {
        charUuid_ = charUuid;
   d6424:	f104 0014 	add.w	r0, r4, #20
   d6428:	f7ff fa66 	bl	d58f8 <_ZN8particle7BleUuidaSERKS0_>
        svcUuid_ = svcUuid;
   d642c:	990e      	ldr	r1, [sp, #56]	; 0x38
   d642e:	f104 0028 	add.w	r0, r4, #40	; 0x28
   d6432:	f7ff fa61 	bl	d58f8 <_ZN8particle7BleUuidaSERKS0_>
	  // _GLIBCXX_RESOLVE_LIB_DEFECTS
	  // 2070. allocate_shared should use allocator_traits<A>::construct
	  __traits::construct(__del._M_alloc, __ptr,
			      std::forward<_Args>(__args)...);
	  __guard = nullptr;
	  __shared_count<_Lp> __count(__ptr, __del, __del._M_alloc);
   d6436:	4621      	mov	r1, r4

      /// Release ownership of the owned pointer
      __allocated_ptr&
      operator=(std::nullptr_t) noexcept
      {
	_M_ptr = nullptr;
   d6438:	2600      	movs	r6, #0
   d643a:	ab01      	add	r3, sp, #4
   d643c:	aa02      	add	r2, sp, #8
   d643e:	a803      	add	r0, sp, #12
   d6440:	9607      	str	r6, [sp, #28]
   d6442:	f7ff ffbb 	bl	d63bc <_ZNSt14__shared_countILN9__gnu_cxx12_Lock_policyE0EEC1IPN8particle21BleCharacteristicImplENSt12__shared_ptrIS5_LS1_0EE8_DeleterISaIS5_EEESA_EET_T0_T1_>
      }

      void
      _M_swap(__shared_count& __r) noexcept
      {
	_Sp_counted_base<_Lp>* __tmp = __r._M_pi;
   d6446:	9b03      	ldr	r3, [sp, #12]
	__r._M_pi = _M_pi;
   d6448:	9a05      	ldr	r2, [sp, #20]
   d644a:	9203      	str	r2, [sp, #12]
	  // _GLIBCXX_RESOLVE_LIB_DEFECTS
	  // 2070. allocate_shared should use allocator_traits<A>::construct
	  __traits::construct(__del._M_alloc, __ptr,
			      std::forward<_Args>(__args)...);
	  __guard = nullptr;
	  __shared_count<_Lp> __count(__ptr, __del, __del._M_alloc);
   d644c:	a803      	add	r0, sp, #12
      void
      _M_swap(__shared_count& __r) noexcept
      {
	_Sp_counted_base<_Lp>* __tmp = __r._M_pi;
	__r._M_pi = _M_pi;
	_M_pi = __tmp;
   d644e:	9305      	str	r3, [sp, #20]
	  __traits::construct(__del._M_alloc, __ptr,
			      std::forward<_Args>(__args)...);
	  __guard = nullptr;
	  __shared_count<_Lp> __count(__ptr, __del, __del._M_alloc);
	  _M_refcount._M_swap(__count);
	  _M_ptr = __ptr;
   d6450:	9404      	str	r4, [sp, #16]
	  // _GLIBCXX_RESOLVE_LIB_DEFECTS
	  // 2070. allocate_shared should use allocator_traits<A>::construct
	  __traits::construct(__del._M_alloc, __ptr,
			      std::forward<_Args>(__args)...);
	  __guard = nullptr;
	  __shared_count<_Lp> __count(__ptr, __del, __del._M_alloc);
   d6452:	f7fd ff05 	bl	d4260 <_ZNSt14__shared_countILN9__gnu_cxx12_Lock_policyE0EED1Ev>
	: _M_ptr(), _M_refcount()
	{
	  typedef typename allocator_traits<_Alloc>::template
	    rebind_traits<typename std::remove_cv<_Tp>::type> __traits;
	  _Deleter<typename __traits::allocator_type> __del = { __a };
	  auto __guard = std::__allocate_guarded(__del._M_alloc);
   d6456:	a806      	add	r0, sp, #24
   d6458:	f7ff ff98 	bl	d638c <_ZNSt15__allocated_ptrISaIN8particle21BleCharacteristicImplEEED1Ev>
	__shared_ptr(const __shared_ptr<_Tp1, _Lp>& __r) noexcept
	: _M_ptr(__r._M_ptr), _M_refcount(__r._M_refcount)
	{ }

      __shared_ptr(__shared_ptr&& __r) noexcept
      : _M_ptr(__r._M_ptr), _M_refcount()
   d645c:	9b04      	ldr	r3, [sp, #16]
    {
      // concept requirements
      __glibcxx_function_requires(_SGIAssignableConcept<_Tp>)

      _Tp __tmp = _GLIBCXX_MOVE(__a);
      __a = _GLIBCXX_MOVE(__b);
   d645e:	6829      	ldr	r1, [r5, #0]
      }

      void
      _M_swap(__shared_count& __r) noexcept
      {
	_Sp_counted_base<_Lp>* __tmp = __r._M_pi;
   d6460:	9a05      	ldr	r2, [sp, #20]
      __b = _GLIBCXX_MOVE(__tmp);
   d6462:	602b      	str	r3, [r5, #0]
	__r._M_pi = _M_pi;
	_M_pi = __tmp;
   d6464:	a808      	add	r0, sp, #32
      }

      void
      _M_swap(__shared_count& __r) noexcept
      {
	_Sp_counted_base<_Lp>* __tmp = __r._M_pi;
   d6466:	686b      	ldr	r3, [r5, #4]
    {
      // concept requirements
      __glibcxx_function_requires(_SGIAssignableConcept<_Tp>)

      _Tp __tmp = _GLIBCXX_MOVE(__a);
      __a = _GLIBCXX_MOVE(__b);
   d6468:	9106      	str	r1, [sp, #24]
	__r._M_pi = _M_pi;
   d646a:	606a      	str	r2, [r5, #4]
	_M_pi = __tmp;
   d646c:	f840 3d04 	str.w	r3, [r0, #-4]!

      void
      _M_swap(__shared_count& __r) noexcept
      {
	_Sp_counted_base<_Lp>* __tmp = __r._M_pi;
	__r._M_pi = _M_pi;
   d6470:	9605      	str	r6, [sp, #20]

      __shared_ptr(__shared_ptr&& __r) noexcept
      : _M_ptr(__r._M_ptr), _M_refcount()
      {
	_M_refcount._M_swap(__r._M_refcount);
	__r._M_ptr = 0;
   d6472:	9604      	str	r6, [sp, #16]
	: _M_ptr(__p), _M_refcount(__r._M_refcount) // never throws
	{ }

      __shared_ptr(const __shared_ptr&) noexcept = default;
      __shared_ptr& operator=(const __shared_ptr&) noexcept = default;
      ~__shared_ptr() = default;
   d6474:	f7fd fef4 	bl	d4260 <_ZNSt14__shared_countILN9__gnu_cxx12_Lock_policyE0EED1Ev>
   d6478:	a805      	add	r0, sp, #20
   d647a:	f7fd fef1 	bl	d4260 <_ZNSt14__shared_countILN9__gnu_cxx12_Lock_policyE0EED1Ev>
    DEBUG("BleCharacteristic(...), 0x%08X -> 0x%08X, count: %d", this, impl(), impl_.use_count());
}

void BleCharacteristic::construct(const char* desc, BleCharacteristicProperty properties, BleUuid& charUuid, BleUuid& svcUuid, BleOnDataReceivedCallback callback, void* context) {
    impl_ = std::make_shared<BleCharacteristicImpl>(desc, properties, charUuid, svcUuid, callback, context);
    if (!impl()) {
   d647e:	6829      	ldr	r1, [r5, #0]
   d6480:	b919      	cbnz	r1, d648a <_ZN8particle17BleCharacteristic9constructEPKcNS_25BleCharacteristicPropertyERNS_7BleUuidES5_PFvPKhjRKNS_13BlePeerDeviceEPvESB_+0xa6>
        SPARK_ASSERT(false);
   d6482:	4a03      	ldr	r2, [pc, #12]	; (d6490 <_ZN8particle17BleCharacteristic9constructEPKcNS_25BleCharacteristicPropertyERNS_7BleUuidES5_PFvPKhjRKNS_13BlePeerDeviceEPvESB_+0xac>)
   d6484:	200a      	movs	r0, #10
   d6486:	f7ff f807 	bl	d5498 <panic_>
    }
    DEBUG("BleCharacteristic(), construct(...):0x%08X -> 0x%08X, count: %d", this, impl(), impl_.use_count());
}
   d648a:	b008      	add	sp, #32
   d648c:	e8bd 81f0 	ldmia.w	sp!, {r4, r5, r6, r7, r8, pc}
   d6490:	000d5249 	.word	0x000d5249

000d6494 <_ZNSt15__allocated_ptrISaIN8particle14BleServiceImplEEED1Ev>:
      __allocated_ptr(__allocated_ptr&& __gd) noexcept
      : _M_alloc(__gd._M_alloc), _M_ptr(__gd._M_ptr)
      { __gd._M_ptr = nullptr; }

      /// Deallocate the owned pointer
      ~__allocated_ptr()
   d6494:	b510      	push	{r4, lr}
   d6496:	4604      	mov	r4, r0
      {
	if (_M_ptr != nullptr)
   d6498:	6840      	ldr	r0, [r0, #4]
   d649a:	b108      	cbz	r0, d64a0 <_ZNSt15__allocated_ptrISaIN8particle14BleServiceImplEEED1Ev+0xc>
      }

      // __p is not permitted to be a null pointer.
      void
      deallocate(pointer __p, size_type)
      { ::operator delete(__p); }
   d649c:	f7fd fdfd 	bl	d409a <_ZdlPv>
	  std::allocator_traits<_Alloc>::deallocate(*_M_alloc, _M_ptr, 1);
      }
   d64a0:	4620      	mov	r0, r4
   d64a2:	bd10      	pop	{r4, pc}

000d64a4 <_ZNSt19_Sp_counted_deleterIPN8particle14BleServiceImplENSt12__shared_ptrIS1_LN9__gnu_cxx12_Lock_policyE0EE8_DeleterISaIS1_EEES8_LS5_0EE10_M_disposeEv>:
      : _M_impl(__p, __d, __a) { }

      ~_Sp_counted_deleter() noexcept { }

      virtual void
      _M_dispose() noexcept
   d64a4:	b507      	push	{r0, r1, r2, lr}
      { _M_impl._M_del()(_M_impl._M_ptr); }
   d64a6:	6903      	ldr	r3, [r0, #16]
      template<typename _Alloc>
        struct _Deleter
        {
          void operator()(typename _Alloc::value_type* __ptr)
          {
	    __allocated_ptr<_Alloc> __guard{ _M_alloc, __ptr };
   d64a8:	300c      	adds	r0, #12
      using pointer = typename allocator_traits<_Alloc>::pointer;
      using value_type = typename allocator_traits<_Alloc>::value_type;

      /// Take ownership of __ptr
      __allocated_ptr(_Alloc& __a, pointer __ptr) noexcept
      : _M_alloc(&__a), _M_ptr(__ptr)
   d64aa:	e88d 0009 	stmia.w	sp, {r0, r3}
   d64ae:	4668      	mov	r0, sp
   d64b0:	f7ff fff0 	bl	d6494 <_ZNSt15__allocated_ptrISaIN8particle14BleServiceImplEEED1Ev>

      ~_Sp_counted_deleter() noexcept { }

      virtual void
      _M_dispose() noexcept
      { _M_impl._M_del()(_M_impl._M_ptr); }
   d64b4:	b003      	add	sp, #12
   d64b6:	f85d fb04 	ldr.w	pc, [sp], #4
	...

000d64bc <_ZNSt14__shared_countILN9__gnu_cxx12_Lock_policyE0EEC1IPN8particle14BleServiceImplENSt12__shared_ptrIS5_LS1_0EE8_DeleterISaIS5_EEESA_EET_T0_T1_>:
	__shared_count(_Ptr __p, _Deleter __d)
	: __shared_count(__p, std::move(__d), allocator<void>())
	{ }

      template<typename _Ptr, typename _Deleter, typename _Alloc>
	__shared_count(_Ptr __p, _Deleter __d, _Alloc __a) : _M_pi(0)
   d64bc:	b538      	push	{r3, r4, r5, lr}
   d64be:	2300      	movs	r3, #0
   d64c0:	4604      	mov	r4, r0
   d64c2:	6003      	str	r3, [r0, #0]
      allocate(size_type __n, const void* = 0)
      { 
	if (__n > this->max_size())
	  std::__throw_bad_alloc();

	return static_cast<_Tp*>(::operator new(__n * sizeof(_Tp)));
   d64c4:	2014      	movs	r0, #20
   d64c6:	460d      	mov	r5, r1
   d64c8:	f7fd fde5 	bl	d4096 <_Znwj>
	  __try
	    {
	      typename _Sp_cd_type::__allocator_type __a2(__a);
	      auto __guard = std::__allocate_guarded(__a2);
	      _Sp_cd_type* __mem = __guard.get();
	      ::new (__mem) _Sp_cd_type(__p, std::move(__d), std::move(__a));
   d64cc:	b128      	cbz	r0, d64da <_ZNSt14__shared_countILN9__gnu_cxx12_Lock_policyE0EEC1IPN8particle14BleServiceImplENSt12__shared_ptrIS5_LS1_0EE8_DeleterISaIS5_EEESA_EET_T0_T1_+0x1e>
    class _Sp_counted_base
    : public _Mutex_base<_Lp>
    {
    public:  
      _Sp_counted_base() noexcept
      : _M_use_count(1), _M_weak_count(1) { }
   d64ce:	2301      	movs	r3, #1
   d64d0:	6043      	str	r3, [r0, #4]
   d64d2:	6083      	str	r3, [r0, #8]
      _Sp_counted_deleter(_Ptr __p, _Deleter __d) noexcept
      : _M_impl(__p, __d, _Alloc()) { }

      // __d(__p) must not throw.
      _Sp_counted_deleter(_Ptr __p, _Deleter __d, const _Alloc& __a) noexcept
      : _M_impl(__p, __d, __a) { }
   d64d4:	4b02      	ldr	r3, [pc, #8]	; (d64e0 <_ZNSt14__shared_countILN9__gnu_cxx12_Lock_policyE0EEC1IPN8particle14BleServiceImplENSt12__shared_ptrIS5_LS1_0EE8_DeleterISaIS5_EEESA_EET_T0_T1_+0x24>)
   d64d6:	6003      	str	r3, [r0, #0]
	typedef _Sp_ebo_helper<0, _Deleter>	_Del_base;
	typedef _Sp_ebo_helper<1, _Alloc>	_Alloc_base;

      public:
	_Impl(_Ptr __p, _Deleter __d, const _Alloc& __a) noexcept
	: _M_ptr(__p), _Del_base(__d), _Alloc_base(__a)
   d64d8:	6105      	str	r5, [r0, #16]
	    {
	      typename _Sp_cd_type::__allocator_type __a2(__a);
	      auto __guard = std::__allocate_guarded(__a2);
	      _Sp_cd_type* __mem = __guard.get();
	      ::new (__mem) _Sp_cd_type(__p, std::move(__d), std::move(__a));
	      _M_pi = __mem;
   d64da:	6020      	str	r0, [r4, #0]
	  __catch(...)
	    {
	      __d(__p); // Call _Deleter on __p.
	      __throw_exception_again;
	    }
	}
   d64dc:	4620      	mov	r0, r4
   d64de:	bd38      	pop	{r3, r4, r5, pc}
   d64e0:	000d8eb0 	.word	0x000d8eb0

000d64e4 <_ZN8particle10BleServiceC1ERKNS_7BleUuidE>:
    if (!impl()) {
        SPARK_ASSERT(false);
    }
}

BleService::BleService(const BleUuid& uuid)
   d64e4:	b5f0      	push	{r4, r5, r6, r7, lr}
        };

      template<typename _Alloc, typename... _Args>
	__shared_ptr(_Sp_make_shared_tag __tag, const _Alloc& __a,
		     _Args&&... __args)
	: _M_ptr(), _M_refcount()
   d64e6:	2600      	movs	r6, #0
   d64e8:	b087      	sub	sp, #28
   d64ea:	6006      	str	r6, [r0, #0]

  template<_Lock_policy _Lp>
    class __shared_count
    {
    public:
      constexpr __shared_count() noexcept : _M_pi(0)
   d64ec:	6046      	str	r6, [r0, #4]
   d64ee:	4604      	mov	r4, r0
   d64f0:	2018      	movs	r0, #24
   d64f2:	460f      	mov	r7, r1
   d64f4:	f7fd fdcf 	bl	d4096 <_Znwj>
   d64f8:	f8cd d010 	str.w	sp, [sp, #16]
   d64fc:	4605      	mov	r5, r0
   d64fe:	9005      	str	r0, [sp, #20]

#if __cplusplus >= 201103L
      template<typename _Up, typename... _Args>
        void
        construct(_Up* __p, _Args&&... __args)
	{ ::new((void *)__p) _Up(std::forward<_Args>(__args)...); }
   d6500:	b138      	cbz	r0, d6512 <_ZN8particle10BleServiceC1ERKNS_7BleUuidE+0x2e>
class BleServiceImpl {
public:
    BleServiceImpl()
            : uuid_(),
              startHandle_(BLE_INVALID_ATTR_HANDLE),
              endHandle_(BLE_INVALID_ATTR_HANDLE) {
   d6502:	f7ff f993 	bl	d582c <_ZN8particle7BleUuidC1Ev>
    }

    BleServiceImpl(const BleUuid& svcUuid)
            : BleServiceImpl() {
        uuid_ = svcUuid;
   d6506:	4639      	mov	r1, r7
   d6508:	4628      	mov	r0, r5
class BleServiceImpl {
public:
    BleServiceImpl()
            : uuid_(),
              startHandle_(BLE_INVALID_ATTR_HANDLE),
              endHandle_(BLE_INVALID_ATTR_HANDLE) {
   d650a:	82ae      	strh	r6, [r5, #20]
   d650c:	82ee      	strh	r6, [r5, #22]
    }

    BleServiceImpl(const BleUuid& svcUuid)
            : BleServiceImpl() {
        uuid_ = svcUuid;
   d650e:	f7ff f9f3 	bl	d58f8 <_ZN8particle7BleUuidaSERKS0_>

      /// Release ownership of the owned pointer
      __allocated_ptr&
      operator=(std::nullptr_t) noexcept
      {
	_M_ptr = nullptr;
   d6512:	2300      	movs	r3, #0
	  // _GLIBCXX_RESOLVE_LIB_DEFECTS
	  // 2070. allocate_shared should use allocator_traits<A>::construct
	  __traits::construct(__del._M_alloc, __ptr,
			      std::forward<_Args>(__args)...);
	  __guard = nullptr;
	  __shared_count<_Lp> __count(__ptr, __del, __del._M_alloc);
   d6514:	4629      	mov	r1, r5
   d6516:	9305      	str	r3, [sp, #20]
   d6518:	aa02      	add	r2, sp, #8
   d651a:	ab01      	add	r3, sp, #4
   d651c:	a803      	add	r0, sp, #12
   d651e:	f7ff ffcd 	bl	d64bc <_ZNSt14__shared_countILN9__gnu_cxx12_Lock_policyE0EEC1IPN8particle14BleServiceImplENSt12__shared_ptrIS5_LS1_0EE8_DeleterISaIS5_EEESA_EET_T0_T1_>
      }

      void
      _M_swap(__shared_count& __r) noexcept
      {
	_Sp_counted_base<_Lp>* __tmp = __r._M_pi;
   d6522:	9b03      	ldr	r3, [sp, #12]
	__r._M_pi = _M_pi;
   d6524:	6862      	ldr	r2, [r4, #4]
	  __traits::construct(__del._M_alloc, __ptr,
			      std::forward<_Args>(__args)...);
	  __guard = nullptr;
	  __shared_count<_Lp> __count(__ptr, __del, __del._M_alloc);
	  _M_refcount._M_swap(__count);
	  _M_ptr = __ptr;
   d6526:	6025      	str	r5, [r4, #0]
      void
      _M_swap(__shared_count& __r) noexcept
      {
	_Sp_counted_base<_Lp>* __tmp = __r._M_pi;
	__r._M_pi = _M_pi;
	_M_pi = __tmp;
   d6528:	6063      	str	r3, [r4, #4]
	  // _GLIBCXX_RESOLVE_LIB_DEFECTS
	  // 2070. allocate_shared should use allocator_traits<A>::construct
	  __traits::construct(__del._M_alloc, __ptr,
			      std::forward<_Args>(__args)...);
	  __guard = nullptr;
	  __shared_count<_Lp> __count(__ptr, __del, __del._M_alloc);
   d652a:	a803      	add	r0, sp, #12

      void
      _M_swap(__shared_count& __r) noexcept
      {
	_Sp_counted_base<_Lp>* __tmp = __r._M_pi;
	__r._M_pi = _M_pi;
   d652c:	9203      	str	r2, [sp, #12]
	  // _GLIBCXX_RESOLVE_LIB_DEFECTS
	  // 2070. allocate_shared should use allocator_traits<A>::construct
	  __traits::construct(__del._M_alloc, __ptr,
			      std::forward<_Args>(__args)...);
	  __guard = nullptr;
	  __shared_count<_Lp> __count(__ptr, __del, __del._M_alloc);
   d652e:	f7fd fe97 	bl	d4260 <_ZNSt14__shared_countILN9__gnu_cxx12_Lock_policyE0EED1Ev>
	: _M_ptr(), _M_refcount()
	{
	  typedef typename allocator_traits<_Alloc>::template
	    rebind_traits<typename std::remove_cv<_Tp>::type> __traits;
	  _Deleter<typename __traits::allocator_type> __del = { __a };
	  auto __guard = std::__allocate_guarded(__del._M_alloc);
   d6532:	a804      	add	r0, sp, #16
   d6534:	f7ff ffae 	bl	d6494 <_ZNSt15__allocated_ptrISaIN8particle14BleServiceImplEEED1Ev>
    }
}

BleService::BleService(const BleUuid& uuid)
        : impl_(std::make_shared<BleServiceImpl>(uuid)) {
    if (!impl()) {
   d6538:	6823      	ldr	r3, [r4, #0]
   d653a:	b90b      	cbnz	r3, d6540 <_ZN8particle10BleServiceC1ERKNS_7BleUuidE+0x5c>
   d653c:	f7ff f92e 	bl	d579c <_ZN8particle10BleServiceC2ERKNS_7BleUuidE.part.100>
        SPARK_ASSERT(false);
    }
}
   d6540:	4620      	mov	r0, r4
   d6542:	b007      	add	sp, #28
   d6544:	bdf0      	pop	{r4, r5, r6, r7, pc}
	...

000d6548 <_ZN8particle14BleLocalDevice17addCharacteristicERKNS_17BleCharacteristicE>:
        p.disconnect();
    }
    return SYSTEM_ERROR_NONE;
}

BleCharacteristic BleLocalDevice::addCharacteristic(const BleCharacteristic& characteristic) {
   d6548:	e92d 4ff0 	stmdb	sp!, {r4, r5, r6, r7, r8, r9, sl, fp, lr}
   d654c:	4617      	mov	r7, r2
   d654e:	b09f      	sub	sp, #124	; 0x7c
   d6550:	4680      	mov	r8, r0
    WiringBleLock lk;
   d6552:	a805      	add	r0, sp, #20
        p.disconnect();
    }
    return SYSTEM_ERROR_NONE;
}

BleCharacteristic BleLocalDevice::addCharacteristic(const BleCharacteristic& characteristic) {
   d6554:	460e      	mov	r6, r1
    WiringBleLock lk;
   d6556:	f7ff f941 	bl	d57dc <_ZN8particle3ble13WiringBleLockC1Ev>
   d655a:	683c      	ldr	r4, [r7, #0]
    auto charImpl = characteristic.impl();
    if (charImpl->properties() == BleCharacteristicProperty::NONE) {
   d655c:	7923      	ldrb	r3, [r4, #4]
   d655e:	2b00      	cmp	r3, #0
   d6560:	f000 80f3 	beq.w	d674a <_ZN8particle14BleLocalDevice17addCharacteristicERKNS_17BleCharacteristicE+0x202>
      }

      /// Return the stored pointer.
      pointer
      get() const noexcept
      { return std::get<0>(_M_t); }
   d6564:	6833      	ldr	r3, [r6, #0]
   d6566:	68dd      	ldr	r5, [r3, #12]
    return data_;
}

template<typename T, typename AllocatorT>
T* spark::Vector<T, AllocatorT>::end() {
    return data_ + size_;
   d6568:	691b      	ldr	r3, [r3, #16]
   d656a:	eb05 03c3 	add.w	r3, r5, r3, lsl #3
   d656e:	9303      	str	r3, [sp, #12]
    }

    BleCharacteristicImpl& operator=(const BleCharacteristicImpl& charImpl) = delete;

    bool operator==(const BleCharacteristicImpl& impl) {
        if (charUuid_ == impl.charUuid_ &&
   d6570:	f104 0a14 	add.w	sl, r4, #20
                svcUuid_ == impl.svcUuid_ &&
   d6574:	f104 0b28 	add.w	fp, r4, #40	; 0x28
    WiringBleLock lk;
    auto charImpl = characteristic.impl();
    if (charImpl->properties() == BleCharacteristicProperty::NONE) {
        return characteristic;
    }
    for (const auto& existChar : impl()->characteristics()) {
   d6578:	9b03      	ldr	r3, [sp, #12]
   d657a:	42ab      	cmp	r3, r5
   d657c:	d023      	beq.n	d65c6 <_ZN8particle14BleLocalDevice17addCharacteristicERKNS_17BleCharacteristicE+0x7e>
   d657e:	f8d5 9000 	ldr.w	r9, [r5]
    }

    BleCharacteristicImpl& operator=(const BleCharacteristicImpl& charImpl) = delete;

    bool operator==(const BleCharacteristicImpl& impl) {
        if (charUuid_ == impl.charUuid_ &&
   d6582:	4650      	mov	r0, sl
   d6584:	f109 0114 	add.w	r1, r9, #20
   d6588:	f7ff f9cf 	bl	d592a <_ZNK8particle7BleUuideqERKS0_>
                svcUuid_ == impl.svcUuid_ &&
                isLocal_ == impl.isLocal_ &&
   d658c:	2800      	cmp	r0, #0
   d658e:	f000 80e1 	beq.w	d6754 <_ZN8particle14BleLocalDevice17addCharacteristicERKNS_17BleCharacteristicE+0x20c>

    BleCharacteristicImpl& operator=(const BleCharacteristicImpl& charImpl) = delete;

    bool operator==(const BleCharacteristicImpl& impl) {
        if (charUuid_ == impl.charUuid_ &&
                svcUuid_ == impl.svcUuid_ &&
   d6592:	f109 0128 	add.w	r1, r9, #40	; 0x28
   d6596:	4658      	mov	r0, fp
   d6598:	f7ff f9c7 	bl	d592a <_ZNK8particle7BleUuideqERKS0_>
    }

    BleCharacteristicImpl& operator=(const BleCharacteristicImpl& charImpl) = delete;

    bool operator==(const BleCharacteristicImpl& impl) {
        if (charUuid_ == impl.charUuid_ &&
   d659c:	2800      	cmp	r0, #0
   d659e:	f000 80d9 	beq.w	d6754 <_ZN8particle14BleLocalDevice17addCharacteristicERKNS_17BleCharacteristicE+0x20c>
                svcUuid_ == impl.svcUuid_ &&
                isLocal_ == impl.isLocal_ &&
   d65a2:	6823      	ldr	r3, [r4, #0]
   d65a4:	f423 417f 	bic.w	r1, r3, #65280	; 0xff00
   d65a8:	f8d9 3000 	ldr.w	r3, [r9]
   d65ac:	f423 437f 	bic.w	r3, r3, #65280	; 0xff00
   d65b0:	4299      	cmp	r1, r3
   d65b2:	f040 80cf 	bne.w	d6754 <_ZN8particle14BleLocalDevice17addCharacteristicERKNS_17BleCharacteristicE+0x20c>
    if (charImpl->properties() == BleCharacteristicProperty::NONE) {
        return characteristic;
    }
    for (const auto& existChar : impl()->characteristics()) {
        if (*charImpl == *existChar.impl()) {
            LOG(ERROR, "Duplicated characteristic cannot be added.");
   d65b6:	2320      	movs	r3, #32
   d65b8:	4a6b      	ldr	r2, [pc, #428]	; (d6768 <_ZN8particle14BleLocalDevice17addCharacteristicERKNS_17BleCharacteristicE+0x220>)
   d65ba:	9313      	str	r3, [sp, #76]	; 0x4c
   d65bc:	2300      	movs	r3, #0
   d65be:	9200      	str	r2, [sp, #0]
   d65c0:	9314      	str	r3, [sp, #80]	; 0x50
   d65c2:	aa13      	add	r2, sp, #76	; 0x4c
   d65c4:	e0bd      	b.n	d6742 <_ZN8particle14BleLocalDevice17addCharacteristicERKNS_17BleCharacteristicE+0x1fa>
    BleUuid& charUUID() {
        return charUuid_;
    }

    BleUuid& svcUUID() {
        return svcUuid_;
   d65c6:	f104 0528 	add.w	r5, r4, #40	; 0x28
            return characteristic;
        }
    }
    // If the service that the characteristic belongs to is not specified,
    // put the characteristic to the default service.
    if (!charImpl->svcUUID().isValid()) {
   d65ca:	4628      	mov	r0, r5
   d65cc:	f7ff f97b 	bl	d58c6 <_ZNK8particle7BleUuid7isValidEv>
   d65d0:	b918      	cbnz	r0, d65da <_ZN8particle14BleLocalDevice17addCharacteristicERKNS_17BleCharacteristicE+0x92>
        LOG_DEBUG(TRACE, "Assign default service UUID.");
        charImpl->svcUUID() = PARTICLE_DEFAULT_BLE_SVC_UUID;
   d65d2:	4966      	ldr	r1, [pc, #408]	; (d676c <_ZN8particle14BleLocalDevice17addCharacteristicERKNS_17BleCharacteristicE+0x224>)
   d65d4:	4628      	mov	r0, r5
   d65d6:	f7ff f99a 	bl	d590e <_ZN8particle7BleUuidaSEPKh>
   d65da:	6833      	ldr	r3, [r6, #0]
   d65dc:	f8d3 9000 	ldr.w	r9, [r3]
   d65e0:	685b      	ldr	r3, [r3, #4]
   d65e2:	eb09 0ac3 	add.w	sl, r9, r3, lsl #3
    }
    BleService* service = nullptr;
    for (auto& svc : impl()->services()) {
   d65e6:	45d1      	cmp	r9, sl
            break;
        }
    }
    // Add service as needed.
    if (!service) {
        BleService svc(charImpl->svcUUID());
   d65e8:	4629      	mov	r1, r5
    if (!charImpl->svcUUID().isValid()) {
        LOG_DEBUG(TRACE, "Assign default service UUID.");
        charImpl->svcUUID() = PARTICLE_DEFAULT_BLE_SVC_UUID;
    }
    BleService* service = nullptr;
    for (auto& svc : impl()->services()) {
   d65ea:	d008      	beq.n	d65fe <_ZN8particle14BleLocalDevice17addCharacteristicERKNS_17BleCharacteristicE+0xb6>
        if (svc.impl()->UUID() == charImpl->svcUUID()) {
   d65ec:	f8d9 0000 	ldr.w	r0, [r9]
   d65f0:	f7ff f99b 	bl	d592a <_ZNK8particle7BleUuideqERKS0_>
   d65f4:	2800      	cmp	r0, #0
   d65f6:	d137      	bne.n	d6668 <_ZN8particle14BleLocalDevice17addCharacteristicERKNS_17BleCharacteristicE+0x120>
    if (!charImpl->svcUUID().isValid()) {
        LOG_DEBUG(TRACE, "Assign default service UUID.");
        charImpl->svcUUID() = PARTICLE_DEFAULT_BLE_SVC_UUID;
    }
    BleService* service = nullptr;
    for (auto& svc : impl()->services()) {
   d65f8:	f109 0908 	add.w	r9, r9, #8
   d65fc:	e7f3      	b.n	d65e6 <_ZN8particle14BleLocalDevice17addCharacteristicERKNS_17BleCharacteristicE+0x9e>
            break;
        }
    }
    // Add service as needed.
    if (!service) {
        BleService svc(charImpl->svcUUID());
   d65fe:	a806      	add	r0, sp, #24
   d6600:	f7ff ff70 	bl	d64e4 <_ZN8particle10BleServiceC1ERKNS_7BleUuidE>
        return BleUuidType::LONG;
    }
}

hal_ble_uuid_t BleUuid::halUUID() {
    return uuid_;
   d6604:	aa13      	add	r2, sp, #76	; 0x4c
   d6606:	462b      	mov	r3, r5
   d6608:	f104 0c38 	add.w	ip, r4, #56	; 0x38
   d660c:	4696      	mov	lr, r2
   d660e:	6818      	ldr	r0, [r3, #0]
   d6610:	6859      	ldr	r1, [r3, #4]
   d6612:	4615      	mov	r5, r2
   d6614:	c503      	stmia	r5!, {r0, r1}
   d6616:	3308      	adds	r3, #8
   d6618:	4563      	cmp	r3, ip
   d661a:	462a      	mov	r2, r5
   d661c:	d1f7      	bne.n	d660e <_ZN8particle14BleLocalDevice17addCharacteristicERKNS_17BleCharacteristicE+0xc6>
   d661e:	6818      	ldr	r0, [r3, #0]
   d6620:	6028      	str	r0, [r5, #0]
    }
    // Add service as needed.
    if (!service) {
        BleService svc(charImpl->svcUUID());
        hal_ble_uuid_t halUuid = charImpl->svcUUID().halUUID();
        if (hal_ble_gatt_server_add_service(BLE_SERVICE_TYPE_PRIMARY, &halUuid, &svc.impl()->startHandle(), nullptr) != SYSTEM_ERROR_NONE) {
   d6622:	9a06      	ldr	r2, [sp, #24]
   d6624:	2300      	movs	r3, #0
   d6626:	3214      	adds	r2, #20
   d6628:	4671      	mov	r1, lr
   d662a:	2001      	movs	r0, #1
   d662c:	f7fe fd90 	bl	d5150 <hal_ble_gatt_server_add_service>
   d6630:	2800      	cmp	r0, #0
   d6632:	d17e      	bne.n	d6732 <_ZN8particle14BleLocalDevice17addCharacteristicERKNS_17BleCharacteristicE+0x1ea>
    }

    ~BleLocalDeviceImpl() = default;

    Vector<BleService>& services() {
        return services_;
   d6634:	6835      	ldr	r5, [r6, #0]
   d6636:	a906      	add	r1, sp, #24
   d6638:	a80b      	add	r0, sp, #44	; 0x2c
   d663a:	f7ff fbef 	bl	d5e1c <_ZNSt12__shared_ptrIN8particle14BleServiceImplELN9__gnu_cxx12_Lock_policyE0EEC1ERKS4_>
        BleService svc(charImpl->svcUUID());
        hal_ble_uuid_t halUuid = charImpl->svcUUID().halUUID();
        if (hal_ble_gatt_server_add_service(BLE_SERVICE_TYPE_PRIMARY, &halUuid, &svc.impl()->startHandle(), nullptr) != SYSTEM_ERROR_NONE) {
            return characteristic;
        }
        if(!impl()->services().append(svc)) {
   d663e:	4628      	mov	r0, r5
   d6640:	a90b      	add	r1, sp, #44	; 0x2c
   d6642:	f7ff fe0c 	bl	d625e <_ZN5spark6VectorIN8particle10BleServiceENS_16DefaultAllocatorEE6appendES2_>
   d6646:	4605      	mov	r5, r0
	: _M_ptr(__p), _M_refcount(__r._M_refcount) // never throws
	{ }

      __shared_ptr(const __shared_ptr&) noexcept = default;
      __shared_ptr& operator=(const __shared_ptr&) noexcept = default;
      ~__shared_ptr() = default;
   d6648:	a80c      	add	r0, sp, #48	; 0x30
   d664a:	f7fd fe09 	bl	d4260 <_ZNSt14__shared_countILN9__gnu_cxx12_Lock_policyE0EED1Ev>
   d664e:	2d00      	cmp	r5, #0
   d6650:	d06f      	beq.n	d6732 <_ZN8particle14BleLocalDevice17addCharacteristicERKNS_17BleCharacteristicE+0x1ea>
   d6652:	6832      	ldr	r2, [r6, #0]
    return data_[0];
}

template<typename T, typename AllocatorT>
inline T& spark::Vector<T, AllocatorT>::last() {
    return data_[size_ - 1];
   d6654:	6853      	ldr	r3, [r2, #4]
   d6656:	6812      	ldr	r2, [r2, #0]
   d6658:	f103 5300 	add.w	r3, r3, #536870912	; 0x20000000
   d665c:	3b01      	subs	r3, #1
   d665e:	a807      	add	r0, sp, #28
   d6660:	eb02 09c3 	add.w	r9, r2, r3, lsl #3
   d6664:	f7fd fdfc 	bl	d4260 <_ZNSt14__shared_countILN9__gnu_cxx12_Lock_policyE0EED1Ev>
            charImpl.context_ = nullptr;
        }
    }

    void assignUuidIfNeeded() {
        if (!charUuid_.isValid()) {
   d6668:	f104 0514 	add.w	r5, r4, #20
   d666c:	4628      	mov	r0, r5
   d666e:	f7ff f92a 	bl	d58c6 <_ZNK8particle7BleUuid7isValidEv>
   d6672:	b968      	cbnz	r0, d6690 <_ZN8particle14BleLocalDevice17addCharacteristicERKNS_17BleCharacteristicE+0x148>
            LOG_DEBUG(TRACE, "Assign default characteristic UUID.");
            defaultUuidCharCount_++;
   d6674:	4b3e      	ldr	r3, [pc, #248]	; (d6770 <_ZN8particle14BleLocalDevice17addCharacteristicERKNS_17BleCharacteristicE+0x228>)
            BleUuid newUuid(PARTICLE_DEFAULT_BLE_SVC_UUID, defaultUuidCharCount_);
   d6676:	493d      	ldr	r1, [pc, #244]	; (d676c <_ZN8particle14BleLocalDevice17addCharacteristicERKNS_17BleCharacteristicE+0x224>)
    }

    void assignUuidIfNeeded() {
        if (!charUuid_.isValid()) {
            LOG_DEBUG(TRACE, "Assign default characteristic UUID.");
            defaultUuidCharCount_++;
   d6678:	881a      	ldrh	r2, [r3, #0]
   d667a:	3201      	adds	r2, #1
   d667c:	b292      	uxth	r2, r2
   d667e:	801a      	strh	r2, [r3, #0]
            BleUuid newUuid(PARTICLE_DEFAULT_BLE_SVC_UUID, defaultUuidCharCount_);
   d6680:	a813      	add	r0, sp, #76	; 0x4c
   d6682:	2301      	movs	r3, #1
   d6684:	f7ff f90b 	bl	d589e <_ZN8particle7BleUuidC1EPKhtNS_12BleUuidOrderE>
            charUuid_ = newUuid;
   d6688:	a913      	add	r1, sp, #76	; 0x4c
   d668a:	4628      	mov	r0, r5
   d668c:	f7ff f934 	bl	d58f8 <_ZN8particle7BleUuidaSERKS0_>
            return characteristic;
        }
        service = &impl()->services().last();
    }
    charImpl->assignUuidIfNeeded();
    hal_ble_char_init_t charInit = {};
   d6690:	f04f 0a2c 	mov.w	sl, #44	; 0x2c
   d6694:	4652      	mov	r2, sl
   d6696:	2100      	movs	r1, #0
   d6698:	a813      	add	r0, sp, #76	; 0x4c
   d669a:	f002 fab2 	bl	d8c02 <memset>
    charInit.version = BLE_API_VERSION;
   d669e:	2301      	movs	r3, #1
        return BleUuidType::LONG;
    }
}

hal_ble_uuid_t BleUuid::halUUID() {
    return uuid_;
   d66a0:	aa06      	add	r2, sp, #24
        }
        service = &impl()->services().last();
    }
    charImpl->assignUuidIfNeeded();
    hal_ble_char_init_t charInit = {};
    charInit.version = BLE_API_VERSION;
   d66a2:	f8ad 304c 	strh.w	r3, [sp, #76]	; 0x4c
    charInit.size = sizeof(hal_ble_char_init_t);
   d66a6:	f8ad a04e 	strh.w	sl, [sp, #78]	; 0x4e
        return BleUuidType::LONG;
    }
}

hal_ble_uuid_t BleUuid::halUUID() {
    return uuid_;
   d66aa:	462b      	mov	r3, r5
   d66ac:	f104 0c24 	add.w	ip, r4, #36	; 0x24
   d66b0:	4615      	mov	r5, r2
   d66b2:	6818      	ldr	r0, [r3, #0]
   d66b4:	6859      	ldr	r1, [r3, #4]
   d66b6:	4696      	mov	lr, r2
   d66b8:	e8ae 0003 	stmia.w	lr!, {r0, r1}
   d66bc:	3308      	adds	r3, #8
   d66be:	4563      	cmp	r3, ip
   d66c0:	4672      	mov	r2, lr
   d66c2:	d1f6      	bne.n	d66b2 <_ZN8particle14BleLocalDevice17addCharacteristicERKNS_17BleCharacteristicE+0x16a>
   d66c4:	6818      	ldr	r0, [r3, #0]
   d66c6:	f8ce 0000 	str.w	r0, [lr]
    }
    charImpl->assignUuidIfNeeded();
    hal_ble_char_init_t charInit = {};
    charInit.version = BLE_API_VERSION;
    charInit.size = sizeof(hal_ble_char_init_t);
    charInit.uuid = charImpl->charUUID().halUUID();
   d66ca:	cd0f      	ldmia	r5!, {r0, r1, r2, r3}
   d66cc:	f10d 0e58 	add.w	lr, sp, #88	; 0x58
   d66d0:	e8ae 000f 	stmia.w	lr!, {r0, r1, r2, r3}
   d66d4:	682b      	ldr	r3, [r5, #0]
   d66d6:	f8ce 3000 	str.w	r3, [lr]
    charInit.properties = static_cast<uint8_t>(charImpl->properties());
   d66da:	7923      	ldrb	r3, [r4, #4]
   d66dc:	f88d 3050 	strb.w	r3, [sp, #80]	; 0x50
    charInit.service_handle = service->impl()->startHandle();
   d66e0:	f8d9 3000 	ldr.w	r3, [r9]
   d66e4:	8a9b      	ldrh	r3, [r3, #20]
   d66e6:	f8ad 306c 	strh.w	r3, [sp, #108]	; 0x6c
    charInit.description = charImpl->description().c_str();
   d66ea:	6be3      	ldr	r3, [r4, #60]	; 0x3c
   d66ec:	9315      	str	r3, [sp, #84]	; 0x54
    charInit.callback = charImpl->onBleCharEvents;
    charInit.context = charImpl;
    if (hal_ble_gatt_server_add_characteristic(&charInit, &charImpl->attrHandles(), nullptr) != SYSTEM_ERROR_NONE) {
   d66ee:	2200      	movs	r2, #0
    charInit.size = sizeof(hal_ble_char_init_t);
    charInit.uuid = charImpl->charUUID().halUUID();
    charInit.properties = static_cast<uint8_t>(charImpl->properties());
    charInit.service_handle = service->impl()->startHandle();
    charInit.description = charImpl->description().c_str();
    charInit.callback = charImpl->onBleCharEvents;
   d66f0:	4b20      	ldr	r3, [pc, #128]	; (d6774 <_ZN8particle14BleLocalDevice17addCharacteristicERKNS_17BleCharacteristicE+0x22c>)
   d66f2:	931c      	str	r3, [sp, #112]	; 0x70
    charInit.context = charImpl;
    if (hal_ble_gatt_server_add_characteristic(&charInit, &charImpl->attrHandles(), nullptr) != SYSTEM_ERROR_NONE) {
   d66f4:	1da1      	adds	r1, r4, #6
   d66f6:	a813      	add	r0, sp, #76	; 0x4c
    charInit.uuid = charImpl->charUUID().halUUID();
    charInit.properties = static_cast<uint8_t>(charImpl->properties());
    charInit.service_handle = service->impl()->startHandle();
    charInit.description = charImpl->description().c_str();
    charInit.callback = charImpl->onBleCharEvents;
    charInit.context = charImpl;
   d66f8:	941d      	str	r4, [sp, #116]	; 0x74
    if (hal_ble_gatt_server_add_characteristic(&charInit, &charImpl->attrHandles(), nullptr) != SYSTEM_ERROR_NONE) {
   d66fa:	f7fe fd51 	bl	d51a0 <hal_ble_gatt_server_add_characteristic>
   d66fe:	bb20      	cbnz	r0, d674a <_ZN8particle14BleLocalDevice17addCharacteristicERKNS_17BleCharacteristicE+0x202>
        return characteristic;
    }
    charImpl->local() = true;
   d6700:	2301      	movs	r3, #1
   d6702:	7023      	strb	r3, [r4, #0]
    Vector<BleService>& services() {
        return services_;
    }

    Vector<BleCharacteristic>& characteristics() {
        return characteristics_;
   d6704:	6834      	ldr	r4, [r6, #0]
    if (hal_ble_gatt_server_add_characteristic(&charInit, &charImpl->attrHandles(), nullptr) != SYSTEM_ERROR_NONE) {
        return characteristic;
    }
    charImpl->local() = true;
    LOG_DEBUG(TRACE, "Add new local characteristic.");
    if(!impl()->characteristics().append(characteristic)) {
   d6706:	4639      	mov	r1, r7
    Vector<BleService>& services() {
        return services_;
    }

    Vector<BleCharacteristic>& characteristics() {
        return characteristics_;
   d6708:	340c      	adds	r4, #12
    if (hal_ble_gatt_server_add_characteristic(&charInit, &charImpl->attrHandles(), nullptr) != SYSTEM_ERROR_NONE) {
        return characteristic;
    }
    charImpl->local() = true;
    LOG_DEBUG(TRACE, "Add new local characteristic.");
    if(!impl()->characteristics().append(characteristic)) {
   d670a:	a80b      	add	r0, sp, #44	; 0x2c
   d670c:	f7ff fb78 	bl	d5e00 <_ZN8particle17BleCharacteristicC1ERKS0_>
   d6710:	4620      	mov	r0, r4
   d6712:	a90b      	add	r1, sp, #44	; 0x2c
   d6714:	f7ff fe10 	bl	d6338 <_ZN5spark6VectorIN8particle17BleCharacteristicENS_16DefaultAllocatorEE6appendES2_>
   d6718:	4604      	mov	r4, r0
   d671a:	a80c      	add	r0, sp, #48	; 0x30
   d671c:	f7fd fda0 	bl	d4260 <_ZNSt14__shared_countILN9__gnu_cxx12_Lock_policyE0EED1Ev>
   d6720:	b99c      	cbnz	r4, d674a <_ZN8particle14BleLocalDevice17addCharacteristicERKNS_17BleCharacteristicE+0x202>
        LOG(ERROR, "Failed to append local characteristic.");
   d6722:	2320      	movs	r3, #32
   d6724:	930b      	str	r3, [sp, #44]	; 0x2c
   d6726:	4b14      	ldr	r3, [pc, #80]	; (d6778 <_ZN8particle14BleLocalDevice17addCharacteristicERKNS_17BleCharacteristicE+0x230>)
   d6728:	9300      	str	r3, [sp, #0]
   d672a:	940c      	str	r4, [sp, #48]	; 0x30
   d672c:	4623      	mov	r3, r4
   d672e:	aa0b      	add	r2, sp, #44	; 0x2c
   d6730:	e007      	b.n	d6742 <_ZN8particle14BleLocalDevice17addCharacteristicERKNS_17BleCharacteristicE+0x1fa>
    // Add service as needed.
    if (!service) {
        BleService svc(charImpl->svcUUID());
        hal_ble_uuid_t halUuid = charImpl->svcUUID().halUUID();
        if (hal_ble_gatt_server_add_service(BLE_SERVICE_TYPE_PRIMARY, &halUuid, &svc.impl()->startHandle(), nullptr) != SYSTEM_ERROR_NONE) {
            return characteristic;
   d6732:	4639      	mov	r1, r7
   d6734:	4640      	mov	r0, r8
   d6736:	f7ff fb63 	bl	d5e00 <_ZN8particle17BleCharacteristicC1ERKS0_>
   d673a:	a807      	add	r0, sp, #28
   d673c:	f7fd fd90 	bl	d4260 <_ZNSt14__shared_countILN9__gnu_cxx12_Lock_policyE0EED1Ev>
   d6740:	e00a      	b.n	d6758 <_ZN8particle14BleLocalDevice17addCharacteristicERKNS_17BleCharacteristicE+0x210>
    if (charImpl->properties() == BleCharacteristicProperty::NONE) {
        return characteristic;
    }
    for (const auto& existChar : impl()->characteristics()) {
        if (*charImpl == *existChar.impl()) {
            LOG(ERROR, "Duplicated characteristic cannot be added.");
   d6742:	490e      	ldr	r1, [pc, #56]	; (d677c <_ZN8particle14BleLocalDevice17addCharacteristicERKNS_17BleCharacteristicE+0x234>)
   d6744:	2032      	movs	r0, #50	; 0x32
   d6746:	f7fe feaf 	bl	d54a8 <log_message>
            return characteristic;
   d674a:	4639      	mov	r1, r7
   d674c:	4640      	mov	r0, r8
   d674e:	f7ff fb57 	bl	d5e00 <_ZN8particle17BleCharacteristicC1ERKS0_>
   d6752:	e001      	b.n	d6758 <_ZN8particle14BleLocalDevice17addCharacteristicERKNS_17BleCharacteristicE+0x210>
   d6754:	3508      	adds	r5, #8
    WiringBleLock lk;
    auto charImpl = characteristic.impl();
    if (charImpl->properties() == BleCharacteristicProperty::NONE) {
        return characteristic;
    }
    for (const auto& existChar : impl()->characteristics()) {
   d6756:	e70f      	b.n	d6578 <_ZN8particle14BleLocalDevice17addCharacteristicERKNS_17BleCharacteristicE+0x30>
    }
    return SYSTEM_ERROR_NONE;
}

BleCharacteristic BleLocalDevice::addCharacteristic(const BleCharacteristic& characteristic) {
    WiringBleLock lk;
   d6758:	a805      	add	r0, sp, #20
   d675a:	f7ff f84d 	bl	d57f8 <_ZN8particle3ble13WiringBleLockD1Ev>
    LOG_DEBUG(TRACE, "Add new local characteristic.");
    if(!impl()->characteristics().append(characteristic)) {
        LOG(ERROR, "Failed to append local characteristic.");
    }
    return characteristic;
}
   d675e:	4640      	mov	r0, r8
   d6760:	b01f      	add	sp, #124	; 0x7c
   d6762:	e8bd 8ff0 	ldmia.w	sp!, {r4, r5, r6, r7, r8, r9, sl, fp, pc}
   d6766:	bf00      	nop
   d6768:	000d9065 	.word	0x000d9065
   d676c:	000d8ee0 	.word	0x000d8ee0
   d6770:	2003e4c4 	.word	0x2003e4c4
   d6774:	000d5d01 	.word	0x000d5d01
   d6778:	000d903e 	.word	0x000d903e
   d677c:	000d8ef0 	.word	0x000d8ef0

000d6780 <_GLOBAL__sub_I__ZN8particle3ble13WiringBleLock6mutex_E>:
    /**
     * Creates a shared mutex.
     */
    RecursiveMutex(os_mutex_recursive_t handle) : handle_(handle) {}

    RecursiveMutex() : handle_(nullptr)
   d6780:	4802      	ldr	r0, [pc, #8]	; (d678c <_GLOBAL__sub_I__ZN8particle3ble13WiringBleLock6mutex_E+0xc>)
   d6782:	2300      	movs	r3, #0
   d6784:	6003      	str	r3, [r0, #0]
    {
        os_mutex_recursive_create(&handle_);
   d6786:	f7fe bd3f 	b.w	d5208 <os_mutex_recursive_create>
   d678a:	bf00      	nop
   d678c:	2003e4c8 	.word	0x2003e4c8

000d6790 <_ZNSt15_Sp_counted_ptrIPN8particle6detail10FutureImplIbNS1_13FutureContextEEELN9__gnu_cxx12_Lock_policyE0EED1Ev>:
    class __shared_count;


  // Counted ptr with no deleter or allocator support
  template<typename _Ptr, _Lock_policy _Lp>
    class _Sp_counted_ptr final : public _Sp_counted_base<_Lp>
   d6790:	4770      	bx	lr

000d6792 <_ZNSt15_Sp_counted_ptrIPN8particle6detail10FutureImplIbNS1_13FutureContextEEELN9__gnu_cxx12_Lock_policyE0EE14_M_get_deleterERKSt9type_info>:
      _M_destroy() noexcept
      { delete this; }

      virtual void*
      _M_get_deleter(const std::type_info&) noexcept
      { return nullptr; }
   d6792:	2000      	movs	r0, #0
   d6794:	4770      	bx	lr

000d6796 <_ZNSt15_Sp_counted_ptrIPN8particle6detail10FutureImplIbNS1_13FutureContextEEELN9__gnu_cxx12_Lock_policyE0EED0Ev>:
    class __shared_count;


  // Counted ptr with no deleter or allocator support
  template<typename _Ptr, _Lock_policy _Lp>
    class _Sp_counted_ptr final : public _Sp_counted_base<_Lp>
   d6796:	b510      	push	{r4, lr}
   d6798:	2110      	movs	r1, #16
   d679a:	4604      	mov	r4, r0
   d679c:	f001 fa27 	bl	d7bee <_ZdlPvj>
   d67a0:	4620      	mov	r0, r4
   d67a2:	bd10      	pop	{r4, pc}

000d67a4 <_ZNSt15_Sp_counted_ptrIPN8particle6detail10FutureImplIbNS1_13FutureContextEEELN9__gnu_cxx12_Lock_policyE0EE10_M_destroyEv>:
      virtual void
      _M_dispose() noexcept
      { delete _M_ptr; }

      virtual void
      _M_destroy() noexcept
   d67a4:	b508      	push	{r3, lr}
      { delete this; }
   d67a6:	b108      	cbz	r0, d67ac <_ZNSt15_Sp_counted_ptrIPN8particle6detail10FutureImplIbNS1_13FutureContextEEELN9__gnu_cxx12_Lock_policyE0EE10_M_destroyEv+0x8>
   d67a8:	f7ff fff5 	bl	d6796 <_ZNSt15_Sp_counted_ptrIPN8particle6detail10FutureImplIbNS1_13FutureContextEEELN9__gnu_cxx12_Lock_policyE0EED0Ev>
   d67ac:	bd08      	pop	{r3, pc}

000d67ae <_ZNSt14_Function_baseD1Ev>:
	}
      };

    _Function_base() : _M_manager(nullptr) { }

    ~_Function_base()
   d67ae:	b510      	push	{r4, lr}
    {
      if (_M_manager)
   d67b0:	6883      	ldr	r3, [r0, #8]
	}
      };

    _Function_base() : _M_manager(nullptr) { }

    ~_Function_base()
   d67b2:	4604      	mov	r4, r0
    {
      if (_M_manager)
   d67b4:	b113      	cbz	r3, d67bc <_ZNSt14_Function_baseD1Ev+0xe>
	_M_manager(_M_functor, _M_functor, __destroy_functor);
   d67b6:	2203      	movs	r2, #3
   d67b8:	4601      	mov	r1, r0
   d67ba:	4798      	blx	r3
    }
   d67bc:	4620      	mov	r0, r4
   d67be:	bd10      	pop	{r4, pc}

000d67c0 <_ZN8particle5ErrorC1EOS0_>:

} // namespace particle

inline particle::Error::Error(Type type) :
        msg_(nullptr),
        type_(type) {
   d67c0:	2200      	movs	r2, #0
   d67c2:	6002      	str	r2, [r0, #0]

inline particle::Error::Error(const Error& error) :
        Error(error.type_, error.msg_) {
}

inline particle::Error::Error(Error&& error) :
   d67c4:	b510      	push	{r4, lr}

} // namespace particle

inline particle::Error::Error(Type type) :
        msg_(nullptr),
        type_(type) {
   d67c6:	f64f 729c 	movw	r2, #65436	; 0xff9c
   d67ca:	8082      	strh	r2, [r0, #4]
   d67cc:	f9b1 4004 	ldrsh.w	r4, [r1, #4]
   d67d0:	8084      	strh	r4, [r0, #4]
      __b = _GLIBCXX_MOVE(__tmp);
   d67d2:	808a      	strh	r2, [r1, #4]
#endif
    {
      // concept requirements
      __glibcxx_function_requires(_SGIAssignableConcept<_Tp>)

      _Tp __tmp = _GLIBCXX_MOVE(__a);
   d67d4:	6802      	ldr	r2, [r0, #0]
      __a = _GLIBCXX_MOVE(__b);
   d67d6:	680c      	ldr	r4, [r1, #0]
   d67d8:	6004      	str	r4, [r0, #0]
      __b = _GLIBCXX_MOVE(__tmp);
   d67da:	600a      	str	r2, [r1, #0]
}

inline particle::Error::Error(Error&& error) :
        Error() {
    swap(*this, error);
}
   d67dc:	bd10      	pop	{r4, pc}

000d67de <_ZN8particle5ErrorD1Ev>:

inline particle::Error::~Error() {
   d67de:	b510      	push	{r4, lr}
   d67e0:	4604      	mov	r4, r0
    free((void*)msg_);
   d67e2:	6800      	ldr	r0, [r0, #0]
   d67e4:	f7fe ff2e 	bl	d5644 <free>
}
   d67e8:	4620      	mov	r0, r4
   d67ea:	bd10      	pop	{r4, pc}

000d67ec <_ZNSt15_Sp_counted_ptrIPN8particle6detail10FutureImplIbNS1_13FutureContextEEELN9__gnu_cxx12_Lock_policyE0EE10_M_disposeEv>:
      explicit
      _Sp_counted_ptr(_Ptr __p) noexcept
      : _M_ptr(__p) { }

      virtual void
      _M_dispose() noexcept
   d67ec:	b538      	push	{r3, r4, r5, lr}
      { delete _M_ptr; }
   d67ee:	68c4      	ldr	r4, [r0, #12]
   d67f0:	b1f4      	cbz	r4, d6830 <_ZNSt15_Sp_counted_ptrIPN8particle6detail10FutureImplIbNS1_13FutureContextEEELN9__gnu_cxx12_Lock_policyE0EE10_M_disposeEv+0x44>

      _Tp
      load(memory_order __m = memory_order_seq_cst) const noexcept
      { 
        _Tp tmp;
	__atomic_load(&_M_i, &tmp, __m);
   d67f2:	7823      	ldrb	r3, [r4, #0]
    ~FutureImpl() {
        // Call destructor of the appropriate unnamed enum's field
        const State s = this->state();
        if (s == State::SUCCEEDED) {
            result_.~ResultT();
        } else if (s == State::FAILED) {
   d67f4:	2b02      	cmp	r3, #2
   d67f6:	d103      	bne.n	d6800 <_ZNSt15_Sp_counted_ptrIPN8particle6detail10FutureImplIbNS1_13FutureContextEEELN9__gnu_cxx12_Lock_policyE0EE10_M_disposeEv+0x14>
            error_.~Error();
   d67f8:	f104 000c 	add.w	r0, r4, #12
   d67fc:	f7ff ffef 	bl	d67de <_ZN8particle5ErrorD1Ev>
      {
        memory_order __b = __m & __memory_order_mask;
	__glibcxx_assert(__b != memory_order_release);
	__glibcxx_assert(__b != memory_order_acq_rel);

	return __atomic_load_n(&_M_p, __m);
   d6800:	6865      	ldr	r5, [r4, #4]
    // Completion callback types
    typedef typename detail::FutureCallbackTypes<ResultT>::OnSuccess OnSuccessCallback;
    typedef typename detail::FutureCallbackTypes<ResultT>::OnError OnErrorCallback;

    ~FutureImplBase() {
        delete onSuccess_.load(std::memory_order_relaxed);
   d6802:	b135      	cbz	r5, d6812 <_ZNSt15_Sp_counted_ptrIPN8particle6detail10FutureImplIbNS1_13FutureContextEEELN9__gnu_cxx12_Lock_policyE0EE10_M_disposeEv+0x26>
   *  @ingroup functors
   *
   *  Polymorphic function wrapper.
   */
  template<typename _Res, typename... _ArgTypes>
    class function<_Res(_ArgTypes...)>
   d6804:	4628      	mov	r0, r5
   d6806:	f7ff ffd2 	bl	d67ae <_ZNSt14_Function_baseD1Ev>
   d680a:	2110      	movs	r1, #16
   d680c:	4628      	mov	r0, r5
   d680e:	f001 f9ee 	bl	d7bee <_ZdlPvj>
   d6812:	68a5      	ldr	r5, [r4, #8]
        delete onError_.load(std::memory_order_relaxed);
   d6814:	b135      	cbz	r5, d6824 <_ZNSt15_Sp_counted_ptrIPN8particle6detail10FutureImplIbNS1_13FutureContextEEELN9__gnu_cxx12_Lock_policyE0EE10_M_disposeEv+0x38>
   d6816:	4628      	mov	r0, r5
   d6818:	f7ff ffc9 	bl	d67ae <_ZNSt14_Function_baseD1Ev>
   d681c:	2110      	movs	r1, #16
   d681e:	4628      	mov	r0, r5
   d6820:	f001 f9e5 	bl	d7bee <_ZdlPvj>
   d6824:	4620      	mov	r0, r4
   d6826:	2114      	movs	r1, #20
   d6828:	e8bd 4038 	ldmia.w	sp!, {r3, r4, r5, lr}
   d682c:	f001 b9df 	b.w	d7bee <_ZdlPvj>
   d6830:	bd38      	pop	{r3, r4, r5, pc}

000d6832 <_ZN10CloudClass22call_raw_user_functionEPvPKcS0_>:
#endif

} // namespace

int CloudClass::call_raw_user_function(void* data, const char* param, void* reserved)
{
   d6832:	b510      	push	{r4, lr}
   d6834:	b088      	sub	sp, #32
   d6836:	4604      	mov	r4, r0
    user_function_int_str_t* fn = (user_function_int_str_t*)(data);
    String p(param);
   d6838:	4668      	mov	r0, sp
   d683a:	f000 febe 	bl	d75ba <_ZN6StringC1EPK19__FlashStringHelper>
    return (*fn)(p);
   d683e:	4669      	mov	r1, sp
   d6840:	a804      	add	r0, sp, #16
   d6842:	f000 fedc 	bl	d75fe <_ZN6StringC1ERKS_>
   d6846:	a804      	add	r0, sp, #16
   d6848:	47a0      	blx	r4
   d684a:	4604      	mov	r4, r0
   d684c:	a804      	add	r0, sp, #16
   d684e:	f000 fe6d 	bl	d752c <_ZN6StringD1Ev>
} // namespace

int CloudClass::call_raw_user_function(void* data, const char* param, void* reserved)
{
    user_function_int_str_t* fn = (user_function_int_str_t*)(data);
    String p(param);
   d6852:	4668      	mov	r0, sp
   d6854:	f000 fe6a 	bl	d752c <_ZN6StringD1Ev>
    return (*fn)(p);
}
   d6858:	4620      	mov	r0, r4
   d685a:	b008      	add	sp, #32
   d685c:	bd10      	pop	{r4, pc}

000d685e <_ZN10CloudClass17register_functionEPFiPvPKcS0_ES0_S2_>:
    wiring_event_handler_t* fn = (wiring_event_handler_t*)(handler_data);
    (*fn)(event_name, data);
}

bool CloudClass::register_function(cloud_function_t fn, void* data, const char* funcKey)
{
   d685e:	b5f0      	push	{r4, r5, r6, r7, lr}
    const char *funcKey;
    cloud_function_t fn;
    void* data;

     cloud_function_descriptor() {
         memset(this, 0, sizeof(*this));
   d6860:	2410      	movs	r4, #16
   d6862:	b085      	sub	sp, #20
   d6864:	4607      	mov	r7, r0
   d6866:	460e      	mov	r6, r1
   d6868:	4615      	mov	r5, r2
   d686a:	2100      	movs	r1, #0
   d686c:	4622      	mov	r2, r4
   d686e:	4668      	mov	r0, sp
   d6870:	f002 f9c7 	bl	d8c02 <memset>
    cloud_function_descriptor desc = {};
    desc.size = sizeof(desc);
    desc.fn = fn;
    desc.data = (void*)data;
    desc.funcKey = funcKey;
    return spark_function(NULL, (user_function_int_str_t*)&desc, NULL);
   d6874:	2200      	movs	r2, #0
   d6876:	4669      	mov	r1, sp
   d6878:	4610      	mov	r0, r2
         size = sizeof(*this);
   d687a:	f8ad 4000 	strh.w	r4, [sp]

bool CloudClass::register_function(cloud_function_t fn, void* data, const char* funcKey)
{
    cloud_function_descriptor desc = {};
    desc.size = sizeof(desc);
    desc.fn = fn;
   d687e:	9702      	str	r7, [sp, #8]
    desc.data = (void*)data;
   d6880:	9603      	str	r6, [sp, #12]
    desc.funcKey = funcKey;
   d6882:	9501      	str	r5, [sp, #4]
    return spark_function(NULL, (user_function_int_str_t*)&desc, NULL);
   d6884:	f7fe fe66 	bl	d5554 <spark_function>
}
   d6888:	b005      	add	sp, #20
   d688a:	bdf0      	pop	{r4, r5, r6, r7, pc}

000d688c <_ZN8particle6FutureIbNS_6detail13FutureContextEEC1ESt10shared_ptrINS1_10FutureImplIbS2_EEE>:
};

template<typename ResultT, typename ContextT = detail::FutureContext>
class Future: public FutureBase<ResultT, ContextT> {
public:
    using FutureBase<ResultT, ContextT>::FutureBase;
   d688c:	b513      	push	{r0, r1, r4, lr}
   d688e:	4604      	mov	r4, r0
      }

      void
      _M_swap(__shared_count& __r) noexcept
      {
	_Sp_counted_base<_Lp>* __tmp = __r._M_pi;
   d6890:	e891 0005 	ldmia.w	r1, {r0, r2}
	__r._M_pi = _M_pi;
   d6894:	2300      	movs	r3, #0
   d6896:	604b      	str	r3, [r1, #4]

      __shared_ptr(__shared_ptr&& __r) noexcept
      : _M_ptr(__r._M_ptr), _M_refcount()
      {
	_M_refcount._M_swap(__r._M_refcount);
	__r._M_ptr = 0;
   d6898:	600b      	str	r3, [r1, #0]
	__shared_ptr(const __shared_ptr<_Tp1, _Lp>& __r) noexcept
	: _M_ptr(__r._M_ptr), _M_refcount(__r._M_refcount)
	{ }

      __shared_ptr(__shared_ptr&& __r) noexcept
      : _M_ptr(__r._M_ptr), _M_refcount()
   d689a:	6020      	str	r0, [r4, #0]
      void
      _M_swap(__shared_count& __r) noexcept
      {
	_Sp_counted_base<_Lp>* __tmp = __r._M_pi;
	__r._M_pi = _M_pi;
	_M_pi = __tmp;
   d689c:	6062      	str	r2, [r4, #4]
	: _M_ptr(__p), _M_refcount(__r._M_refcount) // never throws
	{ }

      __shared_ptr(const __shared_ptr&) noexcept = default;
      __shared_ptr& operator=(const __shared_ptr&) noexcept = default;
      ~__shared_ptr() = default;
   d689e:	a801      	add	r0, sp, #4

      void
      _M_swap(__shared_count& __r) noexcept
      {
	_Sp_counted_base<_Lp>* __tmp = __r._M_pi;
	__r._M_pi = _M_pi;
   d68a0:	9301      	str	r3, [sp, #4]

      __shared_ptr(__shared_ptr&& __r) noexcept
      : _M_ptr(__r._M_ptr), _M_refcount()
      {
	_M_refcount._M_swap(__r._M_refcount);
	__r._M_ptr = 0;
   d68a2:	9300      	str	r3, [sp, #0]
	: _M_ptr(__p), _M_refcount(__r._M_refcount) // never throws
	{ }

      __shared_ptr(const __shared_ptr&) noexcept = default;
      __shared_ptr& operator=(const __shared_ptr&) noexcept = default;
      ~__shared_ptr() = default;
   d68a4:	f7fd fcdc 	bl	d4260 <_ZNSt14__shared_countILN9__gnu_cxx12_Lock_policyE0EED1Ev>
   d68a8:	4620      	mov	r0, r4
   d68aa:	b002      	add	sp, #8
   d68ac:	bd10      	pop	{r4, pc}

000d68ae <_ZN8particle11PromiseBaseIbNS_6detail13FutureContextEE11fromDataPtrEPv>:
        // TODO: Use custom reference counting object to avoid unnecessary memory allocation
        return new detail::FutureImplPtr<ResultT, ContextT>(p_);
    }

    // Unwraps promise from an object pointer created via dataPtr() method
    static Promise<ResultT, ContextT> fromDataPtr(void* data) {
   d68ae:	b5f7      	push	{r0, r1, r2, r4, r5, r6, r7, lr}
      template<typename _Tp1>
	__shared_ptr(const __shared_ptr<_Tp1, _Lp>& __r, _Tp* __p) noexcept
	: _M_ptr(__p), _M_refcount(__r._M_refcount) // never throws
	{ }

      __shared_ptr(const __shared_ptr&) noexcept = default;
   d68b0:	460c      	mov	r4, r1
   d68b2:	ad02      	add	r5, sp, #8
   d68b4:	f854 3b04 	ldr.w	r3, [r4], #4
   d68b8:	f845 3d08 	str.w	r3, [r5, #-8]!
   d68bc:	4606      	mov	r6, r0
   d68be:	460f      	mov	r7, r1
   d68c0:	a801      	add	r0, sp, #4
   d68c2:	4621      	mov	r1, r4
   d68c4:	f7ff fa95 	bl	d5df2 <_ZNSt14__shared_countILN9__gnu_cxx12_Lock_policyE0EEC1ERKS2_>
        auto d = static_cast<detail::FutureImplPtr<ResultT, ContextT>*>(data);
        const Promise<ResultT, ContextT> p(*d);
   d68c8:	4629      	mov	r1, r5
   d68ca:	4630      	mov	r0, r6
   d68cc:	f7ff ffde 	bl	d688c <_ZN8particle6FutureIbNS_6detail13FutureContextEEC1ESt10shared_ptrINS1_10FutureImplIbS2_EEE>
      __shared_ptr& operator=(const __shared_ptr&) noexcept = default;
      ~__shared_ptr() = default;
   d68d0:	a801      	add	r0, sp, #4
   d68d2:	f7fd fcc5 	bl	d4260 <_ZNSt14__shared_countILN9__gnu_cxx12_Lock_policyE0EED1Ev>
   d68d6:	4620      	mov	r0, r4
   d68d8:	f7fd fcc2 	bl	d4260 <_ZNSt14__shared_countILN9__gnu_cxx12_Lock_policyE0EED1Ev>
        delete d;
   d68dc:	4638      	mov	r0, r7
   d68de:	2108      	movs	r1, #8
   d68e0:	f001 f985 	bl	d7bee <_ZdlPvj>
        return p;
    }
   d68e4:	4630      	mov	r0, r6
   d68e6:	b003      	add	sp, #12
   d68e8:	bdf0      	pop	{r4, r5, r6, r7, pc}

000d68ea <_ZSt4swapISt9_Any_dataEvRT_S2_>:
   *  @param  __b  Another thing of arbitrary type.
   *  @return   Nothing.
  */
  template<typename _Tp>
    inline void
    swap(_Tp& __a, _Tp& __b)
   d68ea:	b513      	push	{r0, r1, r4, lr}
   d68ec:	460b      	mov	r3, r1
   d68ee:	4604      	mov	r4, r0
#endif
    {
      // concept requirements
      __glibcxx_function_requires(_SGIAssignableConcept<_Tp>)

      _Tp __tmp = _GLIBCXX_MOVE(__a);
   d68f0:	c803      	ldmia	r0, {r0, r1}
   d68f2:	e88d 0003 	stmia.w	sp, {r0, r1}
      __a = _GLIBCXX_MOVE(__b);
   d68f6:	e893 0003 	ldmia.w	r3, {r0, r1}
   d68fa:	e884 0003 	stmia.w	r4, {r0, r1}
      __b = _GLIBCXX_MOVE(__tmp);
   d68fe:	e89d 0003 	ldmia.w	sp, {r0, r1}
   d6902:	e883 0003 	stmia.w	r3, {r0, r1}
    }
   d6906:	b002      	add	sp, #8
   d6908:	bd10      	pop	{r4, pc}
	...

000d690c <_ZNSt14__shared_countILN9__gnu_cxx12_Lock_policyE0EEC1IPN8particle6detail10FutureImplIbNS5_13FutureContextEEEEET_>:
      constexpr __shared_count() noexcept : _M_pi(0)
      { }

      template<typename _Ptr>
        explicit
	__shared_count(_Ptr __p) : _M_pi(0)
   d690c:	b538      	push	{r3, r4, r5, lr}
   d690e:	2300      	movs	r3, #0
   d6910:	4604      	mov	r4, r0
   d6912:	6003      	str	r3, [r0, #0]
	{
	  __try
	    {
	      _M_pi = new _Sp_counted_ptr<_Ptr, _Lp>(__p);
   d6914:	2010      	movs	r0, #16
      constexpr __shared_count() noexcept : _M_pi(0)
      { }

      template<typename _Ptr>
        explicit
	__shared_count(_Ptr __p) : _M_pi(0)
   d6916:	460d      	mov	r5, r1
	{
	  __try
	    {
	      _M_pi = new _Sp_counted_ptr<_Ptr, _Lp>(__p);
   d6918:	f7fd fbbd 	bl	d4096 <_Znwj>
   d691c:	b128      	cbz	r0, d692a <_ZNSt14__shared_countILN9__gnu_cxx12_Lock_policyE0EEC1IPN8particle6detail10FutureImplIbNS5_13FutureContextEEEEET_+0x1e>
    class _Sp_counted_base
    : public _Mutex_base<_Lp>
    {
    public:  
      _Sp_counted_base() noexcept
      : _M_use_count(1), _M_weak_count(1) { }
   d691e:	2301      	movs	r3, #1
   d6920:	6043      	str	r3, [r0, #4]
   d6922:	6083      	str	r3, [r0, #8]
    class _Sp_counted_ptr final : public _Sp_counted_base<_Lp>
    {
    public:
      explicit
      _Sp_counted_ptr(_Ptr __p) noexcept
      : _M_ptr(__p) { }
   d6924:	4b02      	ldr	r3, [pc, #8]	; (d6930 <_ZNSt14__shared_countILN9__gnu_cxx12_Lock_policyE0EEC1IPN8particle6detail10FutureImplIbNS5_13FutureContextEEEEET_+0x24>)
   d6926:	6003      	str	r3, [r0, #0]
   d6928:	60c5      	str	r5, [r0, #12]
        explicit
	__shared_count(_Ptr __p) : _M_pi(0)
	{
	  __try
	    {
	      _M_pi = new _Sp_counted_ptr<_Ptr, _Lp>(__p);
   d692a:	6020      	str	r0, [r4, #0]
	  __catch(...)
	    {
	      delete __p;
	      __throw_exception_again;
	    }
	}
   d692c:	4620      	mov	r0, r4
   d692e:	bd38      	pop	{r3, r4, r5, pc}
   d6930:	000d9098 	.word	0x000d9098

000d6934 <_ZNKSt8functionIFvRKN8particle5ErrorEEEclES3_>:
  template<typename _Res, typename... _ArgTypes>
    _Res
    function<_Res(_ArgTypes...)>::
    operator()(_ArgTypes... __args) const
    {
      if (_M_empty())
   d6934:	6882      	ldr	r2, [r0, #8]
	  }
      }

  template<typename _Res, typename... _ArgTypes>
    _Res
    function<_Res(_ArgTypes...)>::
   d6936:	b510      	push	{r4, lr}
    operator()(_ArgTypes... __args) const
    {
      if (_M_empty())
   d6938:	b90a      	cbnz	r2, d693e <_ZNKSt8functionIFvRKN8particle5ErrorEEEclES3_+0xa>
	__throw_bad_function_call();
   d693a:	f001 f95a 	bl	d7bf2 <_ZSt25__throw_bad_function_callv>
      return _M_invoker(_M_functor, std::forward<_ArgTypes>(__args)...);
   d693e:	68c3      	ldr	r3, [r0, #12]
    }
   d6940:	e8bd 4010 	ldmia.w	sp!, {r4, lr}
    function<_Res(_ArgTypes...)>::
    operator()(_ArgTypes... __args) const
    {
      if (_M_empty())
	__throw_bad_function_call();
      return _M_invoker(_M_functor, std::forward<_ArgTypes>(__args)...);
   d6944:	4718      	bx	r3

000d6946 <_ZNSt17_Function_handlerIFvvESt5_BindIFSt8functionIFvRKN8particle5ErrorEEES4_EEE9_M_invokeERKSt9_Any_data>:
    {
      typedef _Function_base::_Base_manager<_Functor> _Base;

     public:
      static void
      _M_invoke(const _Any_data& __functor, _ArgTypes&&... __args)
   d6946:	b508      	push	{r3, lr}
	static _Functor*
	_M_get_pointer(const _Any_data& __source)
	{
	  const _Functor* __ptr =
	    __stored_locally? std::__addressof(__source._M_access<_Functor>())
	    /* have stored a pointer */ : __source._M_access<_Functor*>();
   d6948:	6800      	ldr	r0, [r0, #0]
      template<typename _Result, typename... _Args, std::size_t... _Indexes>
	_Result
	__call(tuple<_Args...>&& __args, _Index_tuple<_Indexes...>)
	{
	  return _M_f(_Mu<_Bound_args>()
		      (std::get<_Indexes>(_M_bound_args), __args)...);
   d694a:	f100 0110 	add.w	r1, r0, #16
   d694e:	f7ff fff1 	bl	d6934 <_ZNKSt8functionIFvRKN8particle5ErrorEEEclES3_>
   d6952:	bd08      	pop	{r3, pc}

000d6954 <_ZNKSt8functionIFvRKbEEclES1_>:
  template<typename _Res, typename... _ArgTypes>
    _Res
    function<_Res(_ArgTypes...)>::
    operator()(_ArgTypes... __args) const
    {
      if (_M_empty())
   d6954:	6882      	ldr	r2, [r0, #8]
	  }
      }

  template<typename _Res, typename... _ArgTypes>
    _Res
    function<_Res(_ArgTypes...)>::
   d6956:	b510      	push	{r4, lr}
    operator()(_ArgTypes... __args) const
    {
      if (_M_empty())
   d6958:	b90a      	cbnz	r2, d695e <_ZNKSt8functionIFvRKbEEclES1_+0xa>
	__throw_bad_function_call();
   d695a:	f001 f94a 	bl	d7bf2 <_ZSt25__throw_bad_function_callv>
      return _M_invoker(_M_functor, std::forward<_ArgTypes>(__args)...);
   d695e:	68c3      	ldr	r3, [r0, #12]
    }
   d6960:	e8bd 4010 	ldmia.w	sp!, {r4, lr}
    function<_Res(_ArgTypes...)>::
    operator()(_ArgTypes... __args) const
    {
      if (_M_empty())
	__throw_bad_function_call();
      return _M_invoker(_M_functor, std::forward<_ArgTypes>(__args)...);
   d6964:	4718      	bx	r3

000d6966 <_ZNSt17_Function_handlerIFvvESt5_BindIFSt8functionIFvRKbEEbEEE9_M_invokeERKSt9_Any_data>:
    {
      typedef _Function_base::_Base_manager<_Functor> _Base;

     public:
      static void
      _M_invoke(const _Any_data& __functor, _ArgTypes&&... __args)
   d6966:	b508      	push	{r3, lr}
	static _Functor*
	_M_get_pointer(const _Any_data& __source)
	{
	  const _Functor* __ptr =
	    __stored_locally? std::__addressof(__source._M_access<_Functor>())
	    /* have stored a pointer */ : __source._M_access<_Functor*>();
   d6968:	6800      	ldr	r0, [r0, #0]
      template<typename _Result, typename... _Args, std::size_t... _Indexes>
	_Result
	__call(tuple<_Args...>&& __args, _Index_tuple<_Indexes...>)
	{
	  return _M_f(_Mu<_Bound_args>()
		      (std::get<_Indexes>(_M_bound_args), __args)...);
   d696a:	f100 0110 	add.w	r1, r0, #16
   d696e:	f7ff fff1 	bl	d6954 <_ZNKSt8functionIFvRKbEEclES1_>
   d6972:	bd08      	pop	{r3, pc}

000d6974 <_ZNSt8functionIFvRKN8particle5ErrorEEEC1ERKS5_>:
      _Invoker_type _M_invoker;
  };

  // Out-of-line member definitions.
  template<typename _Res, typename... _ArgTypes>
    function<_Res(_ArgTypes...)>::
   d6974:	b538      	push	{r3, r4, r5, lr}
	{
	  _Base::_M_init_functor(__functor, std::__addressof(__f.get()));
	}
      };

    _Function_base() : _M_manager(nullptr) { }
   d6976:	2300      	movs	r3, #0
   d6978:	6083      	str	r3, [r0, #8]
   d697a:	688b      	ldr	r3, [r1, #8]
      _Invoker_type _M_invoker;
  };

  // Out-of-line member definitions.
  template<typename _Res, typename... _ArgTypes>
    function<_Res(_ArgTypes...)>::
   d697c:	4604      	mov	r4, r0
   d697e:	460d      	mov	r5, r1
    function(const function& __x)
    : _Function_base()
    {
      if (static_cast<bool>(__x))
   d6980:	b12b      	cbz	r3, d698e <_ZNSt8functionIFvRKN8particle5ErrorEEEC1ERKS5_+0x1a>
	{
	  __x._M_manager(_M_functor, __x._M_functor, __clone_functor);
   d6982:	2202      	movs	r2, #2
   d6984:	4798      	blx	r3
	  _M_invoker = __x._M_invoker;
   d6986:	68eb      	ldr	r3, [r5, #12]
   d6988:	60e3      	str	r3, [r4, #12]
	  _M_manager = __x._M_manager;
   d698a:	68ab      	ldr	r3, [r5, #8]
   d698c:	60a3      	str	r3, [r4, #8]
	}
    }
   d698e:	4620      	mov	r0, r4
   d6990:	bd38      	pop	{r3, r4, r5, pc}
	...

000d6994 <_ZN8particle11PromiseBaseIbNS_6detail13FutureContextEE8setErrorENS_5ErrorE>:

    explicit PromiseBase(detail::FutureImplPtr<ResultT, ContextT> ptr) :
            p_(std::move(ptr)) {
    }

    void setError(Error error) {
   d6994:	b5f0      	push	{r4, r5, r6, r7, lr}
   d6996:	b089      	sub	sp, #36	; 0x24
   d6998:	6804      	ldr	r4, [r0, #0]
        p_->setError(std::move(error));
   d699a:	4668      	mov	r0, sp
   d699c:	f7ff ff10 	bl	d67c0 <_ZN8particle5ErrorC1EOS0_>
            onSuccess_(nullptr),
            onError_(nullptr) {
    }

    bool changeState(State state) {
        State s = State::RUNNING; // Expected state
   d69a0:	2300      	movs	r3, #0
   d69a2:	f88d 3008 	strb.w	r3, [sp, #8]

      bool
      compare_exchange_strong(_Tp& __e, _Tp __i, memory_order __s, 
			      memory_order __f) noexcept
      {
	return __atomic_compare_exchange(&_M_i, &__e, &__i, false, __s, __f);
   d69a6:	f04f 0202 	mov.w	r2, #2
   d69aa:	e8d4 3f4f 	ldrexb	r3, [r4]
   d69ae:	2b00      	cmp	r3, #0
   d69b0:	d103      	bne.n	d69ba <_ZN8particle11PromiseBaseIbNS_6detail13FutureContextEE8setErrorENS_5ErrorE+0x26>
   d69b2:	e8c4 2f41 	strexb	r1, r2, [r4]
   d69b6:	2900      	cmp	r1, #0
   d69b8:	d1f7      	bne.n	d69aa <_ZN8particle11PromiseBaseIbNS_6detail13FutureContextEE8setErrorENS_5ErrorE+0x16>
   d69ba:	d002      	beq.n	d69c2 <_ZN8particle11PromiseBaseIbNS_6detail13FutureContextEE8setErrorENS_5ErrorE+0x2e>
   d69bc:	f88d 3008 	strb.w	r3, [sp, #8]
   d69c0:	e063      	b.n	d6a8a <_ZN8particle11PromiseBaseIbNS_6detail13FutureContextEE8setErrorENS_5ErrorE+0xf6>
        return std::move(defaultValue);
    }

    void setError(Error error) {
        if (this->changeState(State::FAILED)) {
            new(&error_) Error(std::move(error));
   d69c2:	f114 050c 	adds.w	r5, r4, #12
   d69c6:	d003      	beq.n	d69d0 <_ZN8particle11PromiseBaseIbNS_6detail13FutureContextEE8setErrorENS_5ErrorE+0x3c>
   d69c8:	4669      	mov	r1, sp
   d69ca:	4628      	mov	r0, r5
   d69cc:	f7ff fef8 	bl	d67c0 <_ZN8particle5ErrorC1EOS0_>
        memory_order __b = __m & __memory_order_mask;
	__glibcxx_assert(__b != memory_order_acquire);
	__glibcxx_assert(__b != memory_order_acq_rel);
	__glibcxx_assert(__b != memory_order_consume);

	__atomic_store_n(&_M_i, __i, __m);
   d69d0:	f3bf 8f5f 	dmb	sy
   d69d4:	2301      	movs	r3, #1
   d69d6:	7063      	strb	r3, [r4, #1]

      _GLIBCXX_ALWAYS_INLINE __pointer_type
      exchange(__pointer_type __p,
	       memory_order __m = memory_order_seq_cst) noexcept
      {
	return __atomic_exchange_n(&_M_p, __p, __m);
   d69d8:	2000      	movs	r0, #0
   d69da:	f104 0308 	add.w	r3, r4, #8
   d69de:	f3bf 8f5f 	dmb	sy
   d69e2:	e853 6f00 	ldrex	r6, [r3]
   d69e6:	e843 0200 	strex	r2, r0, [r3]
   d69ea:	2a00      	cmp	r2, #0
   d69ec:	d1f9      	bne.n	d69e2 <_ZN8particle11PromiseBaseIbNS_6detail13FutureContextEE8setErrorENS_5ErrorE+0x4e>
   d69ee:	f3bf 8f5f 	dmb	sy

    // Takes a callback from its atomic wrapper and invokes it
    template<typename FunctionT, typename... ArgsT>
    static void invokeCallback(std::atomic<std::function<FunctionT>*>& wrapper, ArgsT&&... args) {
        std::function<FunctionT>* callbackPtr = wrapper.exchange(nullptr, std::memory_order_acq_rel);
        if (callbackPtr) {
   d69f2:	2e00      	cmp	r6, #0
   d69f4:	d049      	beq.n	d6a8a <_ZN8particle11PromiseBaseIbNS_6detail13FutureContextEE8setErrorENS_5ErrorE+0xf6>
        return (application_thread_invoke(callback, data, nullptr) == 0);
    }

    // Returns true if current thread is the application thread
    static bool isApplicationThreadCurrent() {
        return (application_thread_current(nullptr) != 0);
   d69f6:	f7fe fd77 	bl	d54e8 <application_thread_current>
    }

    // Invokes std::function in the application context
    template<typename FunctionT, typename... ArgsT>
    static void invokeCallback(const std::function<FunctionT>& callback, ArgsT&&... args) {
        if (ContextT::isApplicationThreadCurrent()) {
   d69fa:	b120      	cbz	r0, d6a06 <_ZN8particle11PromiseBaseIbNS_6detail13FutureContextEE8setErrorENS_5ErrorE+0x72>
            callback(std::forward<ArgsT>(args)...); // Synchronous call
   d69fc:	4629      	mov	r1, r5
   d69fe:	4630      	mov	r0, r6
   d6a00:	f7ff ff98 	bl	d6934 <_ZNKSt8functionIFvRKN8particle5ErrorEEEclES3_>
   d6a04:	e03a      	b.n	d6a7c <_ZN8particle11PromiseBaseIbNS_6detail13FutureContextEE8setErrorENS_5ErrorE+0xe8>
	}

     public:
      template<typename... _Args>
	explicit _Bind(const _Functor& __f, _Args&&... __args)
	: _M_f(__f), _M_bound_args(std::forward<_Args>(__args)...)
   d6a06:	4631      	mov	r1, r6
   d6a08:	a802      	add	r0, sp, #8
   d6a0a:	f7ff ffb3 	bl	d6974 <_ZNSt8functionIFvRKN8particle5ErrorEEEC1ERKS5_>
inline particle::Error::Error(const char* msg) :
        Error(UNKNOWN, msg) {
}

inline particle::Error::Error(const Error& error) :
        Error(error.type_, error.msg_) {
   d6a0e:	68e0      	ldr	r0, [r4, #12]
   d6a10:	f9b4 5010 	ldrsh.w	r5, [r4, #16]
        type_(type) {
}

inline particle::Error::Error(Type type, const char* msg) :
        msg_(msg ? (const char*)strdup(msg) : nullptr),
        type_(type) {
   d6a14:	b108      	cbz	r0, d6a1a <_ZN8particle11PromiseBaseIbNS_6detail13FutureContextEE8setErrorENS_5ErrorE+0x86>
   d6a16:	f002 f933 	bl	d8c80 <strdup>
   d6a1a:	9006      	str	r0, [sp, #24]
        } else {
            // Bind all arguments and wrap resulting function into a pointer
            auto callbackPtr = new std::function<void()>(std::bind(callback, std::forward<ArgsT>(args)...));
   d6a1c:	2010      	movs	r0, #16
   d6a1e:	f8ad 501c 	strh.w	r5, [sp, #28]
   d6a22:	f7fd fb38 	bl	d4096 <_Znwj>
   d6a26:	4605      	mov	r5, r0
   d6a28:	b1e8      	cbz	r0, d6a66 <_ZN8particle11PromiseBaseIbNS_6detail13FutureContextEE8setErrorENS_5ErrorE+0xd2>
	{
	  _Base::_M_init_functor(__functor, std::__addressof(__f.get()));
	}
      };

    _Function_base() : _M_manager(nullptr) { }
   d6a2a:	2700      	movs	r7, #0
   d6a2c:	6087      	str	r7, [r0, #8]
	_M_init_functor(_Any_data& __functor, _Functor&& __f, true_type)
	{ new (__functor._M_access()) _Functor(std::move(__f)); }

	static void
	_M_init_functor(_Any_data& __functor, _Functor&& __f, false_type)
	{ __functor._M_access<_Functor*>() = new _Functor(std::move(__f)); }
   d6a2e:	2018      	movs	r0, #24
   d6a30:	f7fd fb31 	bl	d4096 <_Znwj>
   d6a34:	4604      	mov	r4, r0
   d6a36:	b188      	cbz	r0, d6a5c <_ZN8particle11PromiseBaseIbNS_6detail13FutureContextEE8setErrorENS_5ErrorE+0xc8>
       *  Swap the targets of @c this function object and @a __f. This
       *  function will not throw an %exception.
       */
      void swap(function& __x)
      {
	std::swap(_M_functor, __x._M_functor);
   d6a38:	4601      	mov	r1, r0
	{
	  _Base::_M_init_functor(__functor, std::__addressof(__f.get()));
	}
      };

    _Function_base() : _M_manager(nullptr) { }
   d6a3a:	6087      	str	r7, [r0, #8]
       *  Swap the targets of @c this function object and @a __f. This
       *  function will not throw an %exception.
       */
      void swap(function& __x)
      {
	std::swap(_M_functor, __x._M_functor);
   d6a3c:	a802      	add	r0, sp, #8
   d6a3e:	f7ff ff54 	bl	d68ea <_ZSt4swapISt9_Any_dataEvRT_S2_>
#endif
    {
      // concept requirements
      __glibcxx_function_requires(_SGIAssignableConcept<_Tp>)

      _Tp __tmp = _GLIBCXX_MOVE(__a);
   d6a42:	9b04      	ldr	r3, [sp, #16]
      __a = _GLIBCXX_MOVE(__b);
   d6a44:	68a2      	ldr	r2, [r4, #8]
      __b = _GLIBCXX_MOVE(__tmp);
   d6a46:	60a3      	str	r3, [r4, #8]
#endif
    {
      // concept requirements
      __glibcxx_function_requires(_SGIAssignableConcept<_Tp>)

      _Tp __tmp = _GLIBCXX_MOVE(__a);
   d6a48:	9b05      	ldr	r3, [sp, #20]
      __a = _GLIBCXX_MOVE(__b);
   d6a4a:	9204      	str	r2, [sp, #16]
   d6a4c:	a906      	add	r1, sp, #24
   d6a4e:	68e2      	ldr	r2, [r4, #12]
      __b = _GLIBCXX_MOVE(__tmp);
   d6a50:	60e3      	str	r3, [r4, #12]
   d6a52:	f104 0010 	add.w	r0, r4, #16
    {
      // concept requirements
      __glibcxx_function_requires(_SGIAssignableConcept<_Tp>)

      _Tp __tmp = _GLIBCXX_MOVE(__a);
      __a = _GLIBCXX_MOVE(__b);
   d6a56:	9205      	str	r2, [sp, #20]
   d6a58:	f7ff feb2 	bl	d67c0 <_ZN8particle5ErrorC1EOS0_>
	typedef _Function_handler<_Signature_type, _Functor> _My_handler;

	if (_My_handler::_M_not_empty_function(__f))
	  {
	    _My_handler::_M_init_functor(_M_functor, std::move(__f));
	    _M_invoker = &_My_handler::_M_invoke;
   d6a5c:	4b0d      	ldr	r3, [pc, #52]	; (d6a94 <_ZN8particle11PromiseBaseIbNS_6detail13FutureContextEE8setErrorENS_5ErrorE+0x100>)
   d6a5e:	60eb      	str	r3, [r5, #12]
	    _M_manager = &_My_handler::_M_manager;
   d6a60:	4b0d      	ldr	r3, [pc, #52]	; (d6a98 <_ZN8particle11PromiseBaseIbNS_6detail13FutureContextEE8setErrorENS_5ErrorE+0x104>)
	_M_init_functor(_Any_data& __functor, _Functor&& __f, true_type)
	{ new (__functor._M_access()) _Functor(std::move(__f)); }

	static void
	_M_init_functor(_Any_data& __functor, _Functor&& __f, false_type)
	{ __functor._M_access<_Functor*>() = new _Functor(std::move(__f)); }
   d6a62:	602c      	str	r4, [r5, #0]

	if (_My_handler::_M_not_empty_function(__f))
	  {
	    _My_handler::_M_init_functor(_M_functor, std::move(__f));
	    _M_invoker = &_My_handler::_M_invoke;
	    _M_manager = &_My_handler::_M_manager;
   d6a64:	60ab      	str	r3, [r5, #8]
      static constexpr const _Head&
      _M_head(const _Head_base& __b) noexcept { return __b; }
    };

  template<std::size_t _Idx, typename _Head>
    struct _Head_base<_Idx, _Head, false>
   d6a66:	a806      	add	r0, sp, #24
   d6a68:	f7ff feb9 	bl	d67de <_ZN8particle5ErrorD1Ev>
   *  @ingroup functors
   *
   *  Polymorphic function wrapper.
   */
  template<typename _Res, typename... _ArgTypes>
    class function<_Res(_ArgTypes...)>
   d6a6c:	a802      	add	r0, sp, #8
   d6a6e:	f7ff fe9e 	bl	d67ae <_ZNSt14_Function_baseD1Ev>
        spark_process();
    }

    // Asynchronously invokes a callback in the application context
    static bool invokeApplicationCallback(void (*callback)(void* data), void* data) {
        return (application_thread_invoke(callback, data, nullptr) == 0);
   d6a72:	2200      	movs	r2, #0
   d6a74:	4629      	mov	r1, r5
   d6a76:	4809      	ldr	r0, [pc, #36]	; (d6a9c <_ZN8particle11PromiseBaseIbNS_6detail13FutureContextEE8setErrorENS_5ErrorE+0x108>)
   d6a78:	f7fe fd3e 	bl	d54f8 <application_thread_invoke>
   d6a7c:	4630      	mov	r0, r6
   d6a7e:	f7ff fe96 	bl	d67ae <_ZNSt14_Function_baseD1Ev>
    template<typename FunctionT, typename... ArgsT>
    static void invokeCallback(std::atomic<std::function<FunctionT>*>& wrapper, ArgsT&&... args) {
        std::function<FunctionT>* callbackPtr = wrapper.exchange(nullptr, std::memory_order_acq_rel);
        if (callbackPtr) {
            invokeCallback(*callbackPtr, std::forward<ArgsT>(args)...);
            delete callbackPtr;
   d6a82:	2110      	movs	r1, #16
   d6a84:	4630      	mov	r0, r6
   d6a86:	f001 f8b2 	bl	d7bee <_ZdlPvj>
    explicit PromiseBase(detail::FutureImplPtr<ResultT, ContextT> ptr) :
            p_(std::move(ptr)) {
    }

    void setError(Error error) {
        p_->setError(std::move(error));
   d6a8a:	4668      	mov	r0, sp
   d6a8c:	f7ff fea7 	bl	d67de <_ZN8particle5ErrorD1Ev>
    }
   d6a90:	b009      	add	sp, #36	; 0x24
   d6a92:	bdf0      	pop	{r4, r5, r6, r7, pc}
   d6a94:	000d6947 	.word	0x000d6947
   d6a98:	000d6bbd 	.word	0x000d6bbd
   d6a9c:	000d572d 	.word	0x000d572d

000d6aa0 <_ZN10CloudClass13publish_eventEPKcS1_iN8particle5FlagsI15PublishFlagTypehEE>:

Future<bool> CloudClass::publish_event(const char *eventName, const char *eventData, int ttl, PublishFlags flags) {
   d6aa0:	e92d 4ff0 	stmdb	sp!, {r4, r5, r6, r7, r8, r9, sl, fp, lr}
   d6aa4:	b08b      	sub	sp, #44	; 0x2c
   d6aa6:	4606      	mov	r6, r0
   d6aa8:	460f      	mov	r7, r1
   d6aaa:	4690      	mov	r8, r2
   d6aac:	4699      	mov	r9, r3
   d6aae:	f89d a050 	ldrb.w	sl, [sp, #80]	; 0x50
    static void sleep(Spark_Sleep_TypeDef sleepMode, long seconds=0) __attribute__ ((deprecated("Please use System.sleep() instead.")))
    { SystemClass::sleep(sleepMode, seconds); }
    static void sleep(uint16_t wakeUpPin, InterruptMode edgeTriggerMode, long seconds=0) __attribute__ ((deprecated("Please use System.sleep() instead.")))
    { SystemClass::sleep(wakeUpPin, edgeTriggerMode, seconds); }

    static bool connected(void) { return spark_cloud_flag_connected(); }
   d6ab2:	f7fe fd57 	bl	d5564 <spark_cloud_flag_connected>
   d6ab6:	ad07      	add	r5, sp, #28
#ifndef SPARK_NO_CLOUD
    if (!connected()) {
   d6ab8:	4683      	mov	fp, r0
   d6aba:	bb30      	cbnz	r0, d6b0a <_ZN10CloudClass13publish_eventEPKcS1_iN8particle5FlagsI15PublishFlagTypehEE+0x6a>

} // namespace particle

inline particle::Error::Error(Type type) :
        msg_(nullptr),
        type_(type) {
   d6abc:	f64f 732e 	movw	r3, #65326	; 0xff2e
   d6ac0:	9005      	str	r0, [sp, #20]
    typedef typename detail::FutureImpl<ResultT, ContextT>::OnSuccessCallback OnSuccessCallback;
    typedef typename detail::FutureImpl<ResultT, ContextT>::OnErrorCallback OnErrorCallback;

    // Construct failed future
    explicit FutureBase(Error error) :
            p_(new detail::FutureImpl<ResultT, ContextT>(std::move(error))) {
   d6ac2:	a905      	add	r1, sp, #20
   d6ac4:	4628      	mov	r0, r5
   d6ac6:	f8ad 3018 	strh.w	r3, [sp, #24]
   d6aca:	f7ff fe79 	bl	d67c0 <_ZN8particle5ErrorC1EOS0_>
   d6ace:	2014      	movs	r0, #20
   d6ad0:	f7fd fae1 	bl	d4096 <_Znwj>
   d6ad4:	4604      	mov	r4, r0
   d6ad6:	b158      	cbz	r0, d6af0 <_ZN10CloudClass13publish_eventEPKcS1_iN8particle5FlagsI15PublishFlagTypehEE+0x50>
      ~atomic() noexcept = default;
      atomic(const atomic&) = delete;
      atomic& operator=(const atomic&) = delete;
      atomic& operator=(const atomic&) volatile = delete;

      constexpr atomic(_Tp __i) noexcept : _M_i(__i) { }
   d6ad8:	2302      	movs	r3, #2
   d6ada:	7003      	strb	r3, [r0, #0]
      __atomic_base(const __atomic_base&) = delete;
      __atomic_base& operator=(const __atomic_base&) = delete;
      __atomic_base& operator=(const __atomic_base&) volatile = delete;

      // Requires __int_type convertible to _M_i.
      constexpr __atomic_base(__int_type __i) noexcept : _M_i (__i) { }
   d6adc:	2301      	movs	r3, #1
   d6ade:	7043      	strb	r3, [r0, #1]
      __atomic_base(const __atomic_base&) = delete;
      __atomic_base& operator=(const __atomic_base&) = delete;
      __atomic_base& operator=(const __atomic_base&) volatile = delete;

      // Requires __pointer_type convertible to _M_p.
      constexpr __atomic_base(__pointer_type __p) noexcept : _M_p (__p) { }
   d6ae0:	f8c0 b004 	str.w	fp, [r0, #4]
   d6ae4:	f8c0 b008 	str.w	fp, [r0, #8]
            result_(std::move(result)) {
    }

    explicit FutureImpl(Error error) :
            FutureImplBase<ResultT, ContextT>(State::FAILED),
            error_(std::move(error)) {
   d6ae8:	4629      	mov	r1, r5
   d6aea:	300c      	adds	r0, #12
   d6aec:	f7ff fe68 	bl	d67c0 <_ZN8particle5ErrorC1EOS0_>
      : _M_ptr(0), _M_refcount()
      { }

      template<typename _Tp1>
	explicit __shared_ptr(_Tp1* __p)
        : _M_ptr(__p), _M_refcount(__p)
   d6af0:	4630      	mov	r0, r6
   d6af2:	4621      	mov	r1, r4
   d6af4:	f840 4b04 	str.w	r4, [r0], #4
   d6af8:	f7ff ff08 	bl	d690c <_ZNSt14__shared_countILN9__gnu_cxx12_Lock_policyE0EEC1IPN8particle6detail10FutureImplIbNS5_13FutureContextEEEEET_>
    typedef typename detail::FutureImpl<ResultT, ContextT>::OnSuccessCallback OnSuccessCallback;
    typedef typename detail::FutureImpl<ResultT, ContextT>::OnErrorCallback OnErrorCallback;

    // Construct failed future
    explicit FutureBase(Error error) :
            p_(new detail::FutureImpl<ResultT, ContextT>(std::move(error))) {
   d6afc:	4628      	mov	r0, r5
   d6afe:	f7ff fe6e 	bl	d67de <_ZN8particle5ErrorD1Ev>
    }

    explicit FutureBase(Error::Type error) :
            FutureBase(Error(error)) {
   d6b02:	a805      	add	r0, sp, #20
   d6b04:	f7ff fe6b 	bl	d67de <_ZN8particle5ErrorD1Ev>
   d6b08:	e052      	b.n	d6bb0 <_ZN10CloudClass13publish_eventEPKcS1_iN8particle5FlagsI15PublishFlagTypehEE+0x110>
        return Future<bool>(Error::INVALID_STATE);
    }
    spark_send_event_data d = { sizeof(spark_send_event_data) };
   d6b0a:	2400      	movs	r4, #0
   d6b0c:	230c      	movs	r3, #12
// can be acquired via Future
template<typename ResultT, typename ContextT>
class PromiseBase {
public:
    PromiseBase() :
            p_(new detail::FutureImpl<ResultT, ContextT>(State::RUNNING)) {
   d6b0e:	2014      	movs	r0, #20
   d6b10:	606c      	str	r4, [r5, #4]
   d6b12:	60ac      	str	r4, [r5, #8]
   d6b14:	9307      	str	r3, [sp, #28]
   d6b16:	f7fd fabe 	bl	d4096 <_Znwj>
   d6b1a:	4601      	mov	r1, r0
   d6b1c:	b118      	cbz	r0, d6b26 <_ZN10CloudClass13publish_eventEPKcS1_iN8particle5FlagsI15PublishFlagTypehEE+0x86>
   d6b1e:	7004      	strb	r4, [r0, #0]
      __atomic_base(const __atomic_base&) = delete;
      __atomic_base& operator=(const __atomic_base&) = delete;
      __atomic_base& operator=(const __atomic_base&) volatile = delete;

      // Requires __int_type convertible to _M_i.
      constexpr __atomic_base(__int_type __i) noexcept : _M_i (__i) { }
   d6b20:	7044      	strb	r4, [r0, #1]
      __atomic_base(const __atomic_base&) = delete;
      __atomic_base& operator=(const __atomic_base&) = delete;
      __atomic_base& operator=(const __atomic_base&) volatile = delete;

      // Requires __pointer_type convertible to _M_p.
      constexpr __atomic_base(__pointer_type __p) noexcept : _M_p (__p) { }
   d6b22:	6044      	str	r4, [r0, #4]
   d6b24:	6084      	str	r4, [r0, #8]
   d6b26:	a804      	add	r0, sp, #16
   d6b28:	9103      	str	r1, [sp, #12]
   d6b2a:	f7ff feef 	bl	d690c <_ZNSt14__shared_countILN9__gnu_cxx12_Lock_policyE0EEC1IPN8particle6detail10FutureImplIbNS5_13FutureContextEEEEET_>

    // Completion handler
    Promise<bool> p;
    d.handler_callback = publishCompletionCallback;
   d6b2e:	4b22      	ldr	r3, [pc, #136]	; (d6bb8 <_ZN10CloudClass13publish_eventEPKcS1_iN8particle5FlagsI15PublishFlagTypehEE+0x118>)
   d6b30:	9308      	str	r3, [sp, #32]
    }

    // Wraps this promise into an object pointer that can be passed to a C function
    void* dataPtr() const {
        // TODO: Use custom reference counting object to avoid unnecessary memory allocation
        return new detail::FutureImplPtr<ResultT, ContextT>(p_);
   d6b32:	2008      	movs	r0, #8
   d6b34:	f7fd faaf 	bl	d4096 <_Znwj>
   d6b38:	4604      	mov	r4, r0
   d6b3a:	b128      	cbz	r0, d6b48 <_ZN10CloudClass13publish_eventEPKcS1_iN8particle5FlagsI15PublishFlagTypehEE+0xa8>
      template<typename _Tp1>
	__shared_ptr(const __shared_ptr<_Tp1, _Lp>& __r, _Tp* __p) noexcept
	: _M_ptr(__p), _M_refcount(__r._M_refcount) // never throws
	{ }

      __shared_ptr(const __shared_ptr&) noexcept = default;
   d6b3c:	9b03      	ldr	r3, [sp, #12]
   d6b3e:	f840 3b04 	str.w	r3, [r0], #4
   d6b42:	a904      	add	r1, sp, #16
   d6b44:	f7ff f955 	bl	d5df2 <_ZNSt14__shared_countILN9__gnu_cxx12_Lock_policyE0EEC1ERKS2_>
    d.handler_data = p.dataPtr();

    if (!spark_send_event(eventName, eventData, ttl, flags.value(), &d) && !p.isDone()) {
   d6b48:	9500      	str	r5, [sp, #0]
   d6b4a:	fa5f f38a 	uxtb.w	r3, sl
   d6b4e:	464a      	mov	r2, r9
   d6b50:	4641      	mov	r1, r8
   d6b52:	4638      	mov	r0, r7
    spark_send_event_data d = { sizeof(spark_send_event_data) };

    // Completion handler
    Promise<bool> p;
    d.handler_callback = publishCompletionCallback;
    d.handler_data = p.dataPtr();
   d6b54:	9409      	str	r4, [sp, #36]	; 0x24

    if (!spark_send_event(eventName, eventData, ttl, flags.value(), &d) && !p.isDone()) {
   d6b56:	f7fe fd0d 	bl	d5574 <spark_send_event>
   d6b5a:	b920      	cbnz	r0, d6b66 <_ZN10CloudClass13publish_eventEPKcS1_iN8particle5FlagsI15PublishFlagTypehEE+0xc6>
      {
       memory_order __b = __m & __memory_order_mask;
	__glibcxx_assert(__b != memory_order_release);
	__glibcxx_assert(__b != memory_order_acq_rel);

	return __atomic_load_n(&_M_i, __m);
   d6b5c:	9b03      	ldr	r3, [sp, #12]
   d6b5e:	785b      	ldrb	r3, [r3, #1]
   d6b60:	f003 02ff 	and.w	r2, r3, #255	; 0xff
   d6b64:	b183      	cbz	r3, d6b88 <_ZN10CloudClass13publish_eventEPKcS1_iN8particle5FlagsI15PublishFlagTypehEE+0xe8>
   d6b66:	9b03      	ldr	r3, [sp, #12]
   d6b68:	9305      	str	r3, [sp, #20]
   d6b6a:	a904      	add	r1, sp, #16
   d6b6c:	a806      	add	r0, sp, #24
   d6b6e:	f7ff f940 	bl	d5df2 <_ZNSt14__shared_countILN9__gnu_cxx12_Lock_policyE0EEC1ERKS2_>
    bool isDone() const {
        return p_->isDone();
    }

    Future<ResultT, ContextT> future() const {
        return Future<ResultT, ContextT>(p_);
   d6b72:	a905      	add	r1, sp, #20
   d6b74:	4630      	mov	r0, r6
   d6b76:	f7ff fe89 	bl	d688c <_ZN8particle6FutureIbNS_6detail13FutureContextEEC1ESt10shared_ptrINS1_10FutureImplIbS2_EEE>
      __shared_ptr& operator=(const __shared_ptr&) noexcept = default;
      ~__shared_ptr() = default;
   d6b7a:	a806      	add	r0, sp, #24
   d6b7c:	f7fd fb70 	bl	d4260 <_ZNSt14__shared_countILN9__gnu_cxx12_Lock_policyE0EED1Ev>
   d6b80:	a804      	add	r0, sp, #16
   d6b82:	f7fd fb6d 	bl	d4260 <_ZNSt14__shared_countILN9__gnu_cxx12_Lock_policyE0EED1Ev>
   d6b86:	e013      	b.n	d6bb0 <_ZN10CloudClass13publish_eventEPKcS1_iN8particle5FlagsI15PublishFlagTypehEE+0x110>
   d6b88:	f64f 739c 	movw	r3, #65436	; 0xff9c
        // Set generic error code in case completion callback wasn't invoked for some reason
        p.setError(Error::UNKNOWN);
   d6b8c:	a905      	add	r1, sp, #20
   d6b8e:	a803      	add	r0, sp, #12
   d6b90:	9205      	str	r2, [sp, #20]
   d6b92:	f8ad 3018 	strh.w	r3, [sp, #24]
   d6b96:	f7ff fefd 	bl	d6994 <_ZN8particle11PromiseBaseIbNS_6detail13FutureContextEE8setErrorENS_5ErrorE>
   d6b9a:	a805      	add	r0, sp, #20
   d6b9c:	f7ff fe1f 	bl	d67de <_ZN8particle5ErrorD1Ev>
        p.fromDataPtr(d.handler_data); // Free wrapper object
   d6ba0:	a805      	add	r0, sp, #20
   d6ba2:	9909      	ldr	r1, [sp, #36]	; 0x24
   d6ba4:	f7ff fe83 	bl	d68ae <_ZN8particle11PromiseBaseIbNS_6detail13FutureContextEE11fromDataPtrEPv>
   d6ba8:	a806      	add	r0, sp, #24
   d6baa:	f7fd fb59 	bl	d4260 <_ZNSt14__shared_countILN9__gnu_cxx12_Lock_policyE0EED1Ev>
   d6bae:	e7da      	b.n	d6b66 <_ZN10CloudClass13publish_eventEPKcS1_iN8particle5FlagsI15PublishFlagTypehEE+0xc6>

    return p.future();
#else
    return Future<bool>(Error::NOT_SUPPORTED);
#endif
}
   d6bb0:	4630      	mov	r0, r6
   d6bb2:	b00b      	add	sp, #44	; 0x2c
   d6bb4:	e8bd 8ff0 	ldmia.w	sp!, {r4, r5, r6, r7, r8, r9, sl, fp, pc}
   d6bb8:	000d6d2d 	.word	0x000d6d2d

000d6bbc <_ZNSt14_Function_base13_Base_managerISt5_BindIFSt8functionIFvRKN8particle5ErrorEEES4_EEE10_M_managerERSt9_Any_dataRKSC_St18_Manager_operation>:
      public:
	static bool
	_M_manager(_Any_data& __dest, const _Any_data& __source,
		   _Manager_operation __op)
	{
	  switch (__op)
   d6bbc:	2a02      	cmp	r2, #2
	  delete __victim._M_access<_Functor*>();
	}

      public:
	static bool
	_M_manager(_Any_data& __dest, const _Any_data& __source,
   d6bbe:	b5f8      	push	{r3, r4, r5, r6, r7, lr}
   d6bc0:	4604      	mov	r4, r0
		   _Manager_operation __op)
	{
	  switch (__op)
   d6bc2:	d006      	beq.n	d6bd2 <_ZNSt14_Function_base13_Base_managerISt5_BindIFSt8functionIFvRKN8particle5ErrorEEES4_EEE10_M_managerERSt9_Any_dataRKSC_St18_Manager_operation+0x16>
   d6bc4:	2a03      	cmp	r2, #3
   d6bc6:	d017      	beq.n	d6bf8 <_ZNSt14_Function_base13_Base_managerISt5_BindIFSt8functionIFvRKN8particle5ErrorEEES4_EEE10_M_managerERSt9_Any_dataRKSC_St18_Manager_operation+0x3c>
   d6bc8:	2a01      	cmp	r2, #1
   d6bca:	d122      	bne.n	d6c12 <_ZNSt14_Function_base13_Base_managerISt5_BindIFSt8functionIFvRKN8particle5ErrorEEES4_EEE10_M_managerERSt9_Any_dataRKSC_St18_Manager_operation+0x56>
	static _Functor*
	_M_get_pointer(const _Any_data& __source)
	{
	  const _Functor* __ptr =
	    __stored_locally? std::__addressof(__source._M_access<_Functor>())
	    /* have stored a pointer */ : __source._M_access<_Functor*>();
   d6bcc:	680b      	ldr	r3, [r1, #0]
	    case __get_type_info:
	      __dest._M_access<const type_info*>() = &typeid(_Functor);
	      break;
#endif
	    case __get_functor_ptr:
	      __dest._M_access<_Functor*>() = _M_get_pointer(__source);
   d6bce:	6003      	str	r3, [r0, #0]
	      break;
   d6bd0:	e01f      	b.n	d6c12 <_ZNSt14_Function_base13_Base_managerISt5_BindIFSt8functionIFvRKN8particle5ErrorEEES4_EEE10_M_managerERSt9_Any_dataRKSC_St18_Manager_operation+0x56>
	// Clone a function object that is not location-invariant or
	// that cannot fit into an _Any_data structure.
	static void
	_M_clone(_Any_data& __dest, const _Any_data& __source, false_type)
	{
	  __dest._M_access<_Functor*>() =
   d6bd2:	2018      	movs	r0, #24
   d6bd4:	680e      	ldr	r6, [r1, #0]
   d6bd6:	f7fd fa5e 	bl	d4096 <_Znwj>
   d6bda:	4605      	mov	r5, r0
   d6bdc:	b150      	cbz	r0, d6bf4 <_ZNSt14_Function_base13_Base_managerISt5_BindIFSt8functionIFvRKN8particle5ErrorEEES4_EEE10_M_managerERSt9_Any_dataRKSC_St18_Manager_operation+0x38>
      template<typename... _Args>
	explicit _Bind(_Functor&& __f, _Args&&... __args)
	: _M_f(std::move(__f)), _M_bound_args(std::forward<_Args>(__args)...)
	{ }

      _Bind(const _Bind&) = default;
   d6bde:	4631      	mov	r1, r6
   d6be0:	f7ff fec8 	bl	d6974 <_ZNSt8functionIFvRKN8particle5ErrorEEEC1ERKS5_>
inline particle::Error::Error(const char* msg) :
        Error(UNKNOWN, msg) {
}

inline particle::Error::Error(const Error& error) :
        Error(error.type_, error.msg_) {
   d6be4:	6930      	ldr	r0, [r6, #16]
   d6be6:	f9b6 7014 	ldrsh.w	r7, [r6, #20]
        type_(type) {
}

inline particle::Error::Error(Type type, const char* msg) :
        msg_(msg ? (const char*)strdup(msg) : nullptr),
        type_(type) {
   d6bea:	b108      	cbz	r0, d6bf0 <_ZNSt14_Function_base13_Base_managerISt5_BindIFSt8functionIFvRKN8particle5ErrorEEES4_EEE10_M_managerERSt9_Any_dataRKSC_St18_Manager_operation+0x34>
   d6bec:	f002 f848 	bl	d8c80 <strdup>
   d6bf0:	6128      	str	r0, [r5, #16]
   d6bf2:	82af      	strh	r7, [r5, #20]
	// Clone a function object that is not location-invariant or
	// that cannot fit into an _Any_data structure.
	static void
	_M_clone(_Any_data& __dest, const _Any_data& __source, false_type)
	{
	  __dest._M_access<_Functor*>() =
   d6bf4:	6025      	str	r5, [r4, #0]
   d6bf6:	e00c      	b.n	d6c12 <_ZNSt14_Function_base13_Base_managerISt5_BindIFSt8functionIFvRKN8particle5ErrorEEES4_EEE10_M_managerERSt9_Any_dataRKSC_St18_Manager_operation+0x56>

	// Destroying an object located on the heap.
	static void
	_M_destroy(_Any_data& __victim, false_type)
	{
	  delete __victim._M_access<_Functor*>();
   d6bf8:	6804      	ldr	r4, [r0, #0]
   d6bfa:	b154      	cbz	r4, d6c12 <_ZNSt14_Function_base13_Base_managerISt5_BindIFSt8functionIFvRKN8particle5ErrorEEES4_EEE10_M_managerERSt9_Any_dataRKSC_St18_Manager_operation+0x56>
   d6bfc:	f104 0010 	add.w	r0, r4, #16
   d6c00:	f7ff fded 	bl	d67de <_ZN8particle5ErrorD1Ev>
   *  @ingroup functors
   *
   *  Polymorphic function wrapper.
   */
  template<typename _Res, typename... _ArgTypes>
    class function<_Res(_ArgTypes...)>
   d6c04:	4620      	mov	r0, r4
   d6c06:	f7ff fdd2 	bl	d67ae <_ZNSt14_Function_baseD1Ev>

	// Destroying an object located on the heap.
	static void
	_M_destroy(_Any_data& __victim, false_type)
	{
	  delete __victim._M_access<_Functor*>();
   d6c0a:	2118      	movs	r1, #24
   d6c0c:	4620      	mov	r0, r4
   d6c0e:	f000 ffee 	bl	d7bee <_ZdlPvj>
	    case __destroy_functor:
	      _M_destroy(__dest, _Local_storage());
	      break;
	    }
	  return false;
	}
   d6c12:	2000      	movs	r0, #0
   d6c14:	bdf8      	pop	{r3, r4, r5, r6, r7, pc}

000d6c16 <_ZNSt8functionIFvRKbEEC1ERKS3_>:
      _Invoker_type _M_invoker;
  };

  // Out-of-line member definitions.
  template<typename _Res, typename... _ArgTypes>
    function<_Res(_ArgTypes...)>::
   d6c16:	b538      	push	{r3, r4, r5, lr}
	{
	  _Base::_M_init_functor(__functor, std::__addressof(__f.get()));
	}
      };

    _Function_base() : _M_manager(nullptr) { }
   d6c18:	2300      	movs	r3, #0
   d6c1a:	6083      	str	r3, [r0, #8]
   d6c1c:	688b      	ldr	r3, [r1, #8]
      _Invoker_type _M_invoker;
  };

  // Out-of-line member definitions.
  template<typename _Res, typename... _ArgTypes>
    function<_Res(_ArgTypes...)>::
   d6c1e:	4604      	mov	r4, r0
   d6c20:	460d      	mov	r5, r1
    function(const function& __x)
    : _Function_base()
    {
      if (static_cast<bool>(__x))
   d6c22:	b12b      	cbz	r3, d6c30 <_ZNSt8functionIFvRKbEEC1ERKS3_+0x1a>
	{
	  __x._M_manager(_M_functor, __x._M_functor, __clone_functor);
   d6c24:	2202      	movs	r2, #2
   d6c26:	4798      	blx	r3
	  _M_invoker = __x._M_invoker;
   d6c28:	68eb      	ldr	r3, [r5, #12]
   d6c2a:	60e3      	str	r3, [r4, #12]
	  _M_manager = __x._M_manager;
   d6c2c:	68ab      	ldr	r3, [r5, #8]
   d6c2e:	60a3      	str	r3, [r4, #8]
	}
    }
   d6c30:	4620      	mov	r0, r4
   d6c32:	bd38      	pop	{r3, r4, r5, pc}

000d6c34 <_ZNSt14_Function_base13_Base_managerISt5_BindIFSt8functionIFvRKbEEbEEE10_M_managerERSt9_Any_dataRKSA_St18_Manager_operation>:
      public:
	static bool
	_M_manager(_Any_data& __dest, const _Any_data& __source,
		   _Manager_operation __op)
	{
	  switch (__op)
   d6c34:	2a02      	cmp	r2, #2
	  delete __victim._M_access<_Functor*>();
	}

      public:
	static bool
	_M_manager(_Any_data& __dest, const _Any_data& __source,
   d6c36:	b570      	push	{r4, r5, r6, lr}
   d6c38:	4604      	mov	r4, r0
		   _Manager_operation __op)
	{
	  switch (__op)
   d6c3a:	d006      	beq.n	d6c4a <_ZNSt14_Function_base13_Base_managerISt5_BindIFSt8functionIFvRKbEEbEEE10_M_managerERSt9_Any_dataRKSA_St18_Manager_operation+0x16>
   d6c3c:	2a03      	cmp	r2, #3
   d6c3e:	d011      	beq.n	d6c64 <_ZNSt14_Function_base13_Base_managerISt5_BindIFSt8functionIFvRKbEEbEEE10_M_managerERSt9_Any_dataRKSA_St18_Manager_operation+0x30>
   d6c40:	2a01      	cmp	r2, #1
   d6c42:	d118      	bne.n	d6c76 <_ZNSt14_Function_base13_Base_managerISt5_BindIFSt8functionIFvRKbEEbEEE10_M_managerERSt9_Any_dataRKSA_St18_Manager_operation+0x42>
	static _Functor*
	_M_get_pointer(const _Any_data& __source)
	{
	  const _Functor* __ptr =
	    __stored_locally? std::__addressof(__source._M_access<_Functor>())
	    /* have stored a pointer */ : __source._M_access<_Functor*>();
   d6c44:	680b      	ldr	r3, [r1, #0]
	    case __get_type_info:
	      __dest._M_access<const type_info*>() = &typeid(_Functor);
	      break;
#endif
	    case __get_functor_ptr:
	      __dest._M_access<_Functor*>() = _M_get_pointer(__source);
   d6c46:	6003      	str	r3, [r0, #0]
	      break;
   d6c48:	e015      	b.n	d6c76 <_ZNSt14_Function_base13_Base_managerISt5_BindIFSt8functionIFvRKbEEbEEE10_M_managerERSt9_Any_dataRKSA_St18_Manager_operation+0x42>
	// Clone a function object that is not location-invariant or
	// that cannot fit into an _Any_data structure.
	static void
	_M_clone(_Any_data& __dest, const _Any_data& __source, false_type)
	{
	  __dest._M_access<_Functor*>() =
   d6c4a:	2014      	movs	r0, #20
   d6c4c:	680e      	ldr	r6, [r1, #0]
   d6c4e:	f7fd fa22 	bl	d4096 <_Znwj>
   d6c52:	4605      	mov	r5, r0
   d6c54:	b120      	cbz	r0, d6c60 <_ZNSt14_Function_base13_Base_managerISt5_BindIFSt8functionIFvRKbEEbEEE10_M_managerERSt9_Any_dataRKSA_St18_Manager_operation+0x2c>
      template<typename... _Args>
	explicit _Bind(_Functor&& __f, _Args&&... __args)
	: _M_f(std::move(__f)), _M_bound_args(std::forward<_Args>(__args)...)
	{ }

      _Bind(const _Bind&) = default;
   d6c56:	4631      	mov	r1, r6
   d6c58:	f7ff ffdd 	bl	d6c16 <_ZNSt8functionIFvRKbEEC1ERKS3_>
   d6c5c:	7c33      	ldrb	r3, [r6, #16]
   d6c5e:	742b      	strb	r3, [r5, #16]
	// Clone a function object that is not location-invariant or
	// that cannot fit into an _Any_data structure.
	static void
	_M_clone(_Any_data& __dest, const _Any_data& __source, false_type)
	{
	  __dest._M_access<_Functor*>() =
   d6c60:	6025      	str	r5, [r4, #0]
   d6c62:	e008      	b.n	d6c76 <_ZNSt14_Function_base13_Base_managerISt5_BindIFSt8functionIFvRKbEEbEEE10_M_managerERSt9_Any_dataRKSA_St18_Manager_operation+0x42>

	// Destroying an object located on the heap.
	static void
	_M_destroy(_Any_data& __victim, false_type)
	{
	  delete __victim._M_access<_Functor*>();
   d6c64:	6804      	ldr	r4, [r0, #0]
   d6c66:	b134      	cbz	r4, d6c76 <_ZNSt14_Function_base13_Base_managerISt5_BindIFSt8functionIFvRKbEEbEEE10_M_managerERSt9_Any_dataRKSA_St18_Manager_operation+0x42>
   *  @ingroup functors
   *
   *  Polymorphic function wrapper.
   */
  template<typename _Res, typename... _ArgTypes>
    class function<_Res(_ArgTypes...)>
   d6c68:	4620      	mov	r0, r4
   d6c6a:	f7ff fda0 	bl	d67ae <_ZNSt14_Function_baseD1Ev>

	// Destroying an object located on the heap.
	static void
	_M_destroy(_Any_data& __victim, false_type)
	{
	  delete __victim._M_access<_Functor*>();
   d6c6e:	2114      	movs	r1, #20
   d6c70:	4620      	mov	r0, r4
   d6c72:	f000 ffbc 	bl	d7bee <_ZdlPvj>
	    case __destroy_functor:
	      _M_destroy(__dest, _Local_storage());
	      break;
	    }
	  return false;
	}
   d6c76:	2000      	movs	r0, #0
   d6c78:	bd70      	pop	{r4, r5, r6, pc}
	...

000d6c7c <_ZN8particle6detail14FutureImplBaseIbNS0_13FutureContextEE14invokeCallbackIFvRKbEIRbEEEvRSt6atomicIPSt8functionIT_EEDpOT0_>:
        delete callbackPtr; // Delete old callback
    }

    // Takes a callback from its atomic wrapper and invokes it
    template<typename FunctionT, typename... ArgsT>
    static void invokeCallback(std::atomic<std::function<FunctionT>*>& wrapper, ArgsT&&... args) {
   d6c7c:	b5f0      	push	{r4, r5, r6, r7, lr}

      _GLIBCXX_ALWAYS_INLINE __pointer_type
      exchange(__pointer_type __p,
	       memory_order __m = memory_order_seq_cst) noexcept
      {
	return __atomic_exchange_n(&_M_p, __p, __m);
   d6c7e:	2300      	movs	r3, #0
   d6c80:	b087      	sub	sp, #28
   d6c82:	460c      	mov	r4, r1
   d6c84:	f3bf 8f5f 	dmb	sy
   d6c88:	e850 6f00 	ldrex	r6, [r0]
   d6c8c:	e840 3200 	strex	r2, r3, [r0]
   d6c90:	2a00      	cmp	r2, #0
   d6c92:	d1f9      	bne.n	d6c88 <_ZN8particle6detail14FutureImplBaseIbNS0_13FutureContextEE14invokeCallbackIFvRKbEIRbEEEvRSt6atomicIPSt8functionIT_EEDpOT0_+0xc>
   d6c94:	f3bf 8f5f 	dmb	sy
        std::function<FunctionT>* callbackPtr = wrapper.exchange(nullptr, std::memory_order_acq_rel);
        if (callbackPtr) {
   d6c98:	2e00      	cmp	r6, #0
   d6c9a:	d03f      	beq.n	d6d1c <_ZN8particle6detail14FutureImplBaseIbNS0_13FutureContextEE14invokeCallbackIFvRKbEIRbEEEvRSt6atomicIPSt8functionIT_EEDpOT0_+0xa0>
        return (application_thread_invoke(callback, data, nullptr) == 0);
    }

    // Returns true if current thread is the application thread
    static bool isApplicationThreadCurrent() {
        return (application_thread_current(nullptr) != 0);
   d6c9c:	4618      	mov	r0, r3
   d6c9e:	f7fe fc23 	bl	d54e8 <application_thread_current>
    }

    // Invokes std::function in the application context
    template<typename FunctionT, typename... ArgsT>
    static void invokeCallback(const std::function<FunctionT>& callback, ArgsT&&... args) {
        if (ContextT::isApplicationThreadCurrent()) {
   d6ca2:	4607      	mov	r7, r0
   d6ca4:	b120      	cbz	r0, d6cb0 <_ZN8particle6detail14FutureImplBaseIbNS0_13FutureContextEE14invokeCallbackIFvRKbEIRbEEEvRSt6atomicIPSt8functionIT_EEDpOT0_+0x34>
            callback(std::forward<ArgsT>(args)...); // Synchronous call
   d6ca6:	4621      	mov	r1, r4
   d6ca8:	4630      	mov	r0, r6
   d6caa:	f7ff fe53 	bl	d6954 <_ZNKSt8functionIFvRKbEEclES1_>
   d6cae:	e02e      	b.n	d6d0e <_ZN8particle6detail14FutureImplBaseIbNS0_13FutureContextEE14invokeCallbackIFvRKbEIRbEEEvRSt6atomicIPSt8functionIT_EEDpOT0_+0x92>
	}

     public:
      template<typename... _Args>
	explicit _Bind(const _Functor& __f, _Args&&... __args)
	: _M_f(__f), _M_bound_args(std::forward<_Args>(__args)...)
   d6cb0:	4631      	mov	r1, r6
   d6cb2:	a801      	add	r0, sp, #4
   d6cb4:	f7ff ffaf 	bl	d6c16 <_ZNSt8functionIFvRKbEEC1ERKS3_>
      constexpr _Head_base(const _Head_base&) = default;
      constexpr _Head_base(_Head_base&&) = default;

      template<typename _UHead>
        constexpr _Head_base(_UHead&& __h)
	: _M_head_impl(std::forward<_UHead>(__h)) { }
   d6cb8:	7823      	ldrb	r3, [r4, #0]
   d6cba:	f88d 3014 	strb.w	r3, [sp, #20]
        } else {
            // Bind all arguments and wrap resulting function into a pointer
            auto callbackPtr = new std::function<void()>(std::bind(callback, std::forward<ArgsT>(args)...));
   d6cbe:	2010      	movs	r0, #16
   d6cc0:	f7fd f9e9 	bl	d4096 <_Znwj>
   d6cc4:	4605      	mov	r5, r0
   d6cc6:	b1d0      	cbz	r0, d6cfe <_ZN8particle6detail14FutureImplBaseIbNS0_13FutureContextEE14invokeCallbackIFvRKbEIRbEEEvRSt6atomicIPSt8functionIT_EEDpOT0_+0x82>
	{
	  _Base::_M_init_functor(__functor, std::__addressof(__f.get()));
	}
      };

    _Function_base() : _M_manager(nullptr) { }
   d6cc8:	6087      	str	r7, [r0, #8]
	_M_init_functor(_Any_data& __functor, _Functor&& __f, true_type)
	{ new (__functor._M_access()) _Functor(std::move(__f)); }

	static void
	_M_init_functor(_Any_data& __functor, _Functor&& __f, false_type)
	{ __functor._M_access<_Functor*>() = new _Functor(std::move(__f)); }
   d6cca:	2014      	movs	r0, #20
   d6ccc:	f7fd f9e3 	bl	d4096 <_Znwj>
   d6cd0:	4604      	mov	r4, r0
   d6cd2:	b178      	cbz	r0, d6cf4 <_ZN8particle6detail14FutureImplBaseIbNS0_13FutureContextEE14invokeCallbackIFvRKbEIRbEEEvRSt6atomicIPSt8functionIT_EEDpOT0_+0x78>
	{
	  _Base::_M_init_functor(__functor, std::__addressof(__f.get()));
	}
      };

    _Function_base() : _M_manager(nullptr) { }
   d6cd4:	6087      	str	r7, [r0, #8]
       *  Swap the targets of @c this function object and @a __f. This
       *  function will not throw an %exception.
       */
      void swap(function& __x)
      {
	std::swap(_M_functor, __x._M_functor);
   d6cd6:	4601      	mov	r1, r0
   d6cd8:	a801      	add	r0, sp, #4
   d6cda:	f7ff fe06 	bl	d68ea <_ZSt4swapISt9_Any_dataEvRT_S2_>
#endif
    {
      // concept requirements
      __glibcxx_function_requires(_SGIAssignableConcept<_Tp>)

      _Tp __tmp = _GLIBCXX_MOVE(__a);
   d6cde:	9b03      	ldr	r3, [sp, #12]
      __a = _GLIBCXX_MOVE(__b);
   d6ce0:	68a2      	ldr	r2, [r4, #8]
      __b = _GLIBCXX_MOVE(__tmp);
   d6ce2:	60a3      	str	r3, [r4, #8]
#endif
    {
      // concept requirements
      __glibcxx_function_requires(_SGIAssignableConcept<_Tp>)

      _Tp __tmp = _GLIBCXX_MOVE(__a);
   d6ce4:	9b04      	ldr	r3, [sp, #16]
      __a = _GLIBCXX_MOVE(__b);
   d6ce6:	9203      	str	r2, [sp, #12]
   d6ce8:	68e2      	ldr	r2, [r4, #12]
      __b = _GLIBCXX_MOVE(__tmp);
   d6cea:	60e3      	str	r3, [r4, #12]
   d6cec:	f89d 3014 	ldrb.w	r3, [sp, #20]
    {
      // concept requirements
      __glibcxx_function_requires(_SGIAssignableConcept<_Tp>)

      _Tp __tmp = _GLIBCXX_MOVE(__a);
      __a = _GLIBCXX_MOVE(__b);
   d6cf0:	9204      	str	r2, [sp, #16]
   d6cf2:	7423      	strb	r3, [r4, #16]
	typedef _Function_handler<_Signature_type, _Functor> _My_handler;

	if (_My_handler::_M_not_empty_function(__f))
	  {
	    _My_handler::_M_init_functor(_M_functor, std::move(__f));
	    _M_invoker = &_My_handler::_M_invoke;
   d6cf4:	4b0a      	ldr	r3, [pc, #40]	; (d6d20 <_ZN8particle6detail14FutureImplBaseIbNS0_13FutureContextEE14invokeCallbackIFvRKbEIRbEEEvRSt6atomicIPSt8functionIT_EEDpOT0_+0xa4>)
   d6cf6:	60eb      	str	r3, [r5, #12]
	    _M_manager = &_My_handler::_M_manager;
   d6cf8:	4b0a      	ldr	r3, [pc, #40]	; (d6d24 <_ZN8particle6detail14FutureImplBaseIbNS0_13FutureContextEE14invokeCallbackIFvRKbEIRbEEEvRSt6atomicIPSt8functionIT_EEDpOT0_+0xa8>)
	_M_init_functor(_Any_data& __functor, _Functor&& __f, true_type)
	{ new (__functor._M_access()) _Functor(std::move(__f)); }

	static void
	_M_init_functor(_Any_data& __functor, _Functor&& __f, false_type)
	{ __functor._M_access<_Functor*>() = new _Functor(std::move(__f)); }
   d6cfa:	602c      	str	r4, [r5, #0]

	if (_My_handler::_M_not_empty_function(__f))
	  {
	    _My_handler::_M_init_functor(_M_functor, std::move(__f));
	    _M_invoker = &_My_handler::_M_invoke;
	    _M_manager = &_My_handler::_M_manager;
   d6cfc:	60ab      	str	r3, [r5, #8]
   *  @ingroup functors
   *
   *  Polymorphic function wrapper.
   */
  template<typename _Res, typename... _ArgTypes>
    class function<_Res(_ArgTypes...)>
   d6cfe:	a801      	add	r0, sp, #4
   d6d00:	f7ff fd55 	bl	d67ae <_ZNSt14_Function_baseD1Ev>
        spark_process();
    }

    // Asynchronously invokes a callback in the application context
    static bool invokeApplicationCallback(void (*callback)(void* data), void* data) {
        return (application_thread_invoke(callback, data, nullptr) == 0);
   d6d04:	2200      	movs	r2, #0
   d6d06:	4629      	mov	r1, r5
   d6d08:	4807      	ldr	r0, [pc, #28]	; (d6d28 <_ZN8particle6detail14FutureImplBaseIbNS0_13FutureContextEE14invokeCallbackIFvRKbEIRbEEEvRSt6atomicIPSt8functionIT_EEDpOT0_+0xac>)
   d6d0a:	f7fe fbf5 	bl	d54f8 <application_thread_invoke>
   d6d0e:	4630      	mov	r0, r6
   d6d10:	f7ff fd4d 	bl	d67ae <_ZNSt14_Function_baseD1Ev>
    template<typename FunctionT, typename... ArgsT>
    static void invokeCallback(std::atomic<std::function<FunctionT>*>& wrapper, ArgsT&&... args) {
        std::function<FunctionT>* callbackPtr = wrapper.exchange(nullptr, std::memory_order_acq_rel);
        if (callbackPtr) {
            invokeCallback(*callbackPtr, std::forward<ArgsT>(args)...);
            delete callbackPtr;
   d6d14:	2110      	movs	r1, #16
   d6d16:	4630      	mov	r0, r6
   d6d18:	f000 ff69 	bl	d7bee <_ZdlPvj>
        }
    }
   d6d1c:	b007      	add	sp, #28
   d6d1e:	bdf0      	pop	{r4, r5, r6, r7, pc}
   d6d20:	000d6967 	.word	0x000d6967
   d6d24:	000d6c35 	.word	0x000d6c35
   d6d28:	000d572d 	.word	0x000d572d

000d6d2c <_ZN12_GLOBAL__N_125publishCompletionCallbackEiPKvPvS2_>:
namespace {

using namespace particle;

#ifndef SPARK_NO_CLOUD
void publishCompletionCallback(int error, const void* data, void* callbackData, void* reserved) {
   d6d2c:	b530      	push	{r4, r5, lr}
   d6d2e:	b085      	sub	sp, #20
   d6d30:	4604      	mov	r4, r0
   d6d32:	460d      	mov	r5, r1
    auto p = Promise<bool>::fromDataPtr(callbackData);
   d6d34:	4668      	mov	r0, sp
   d6d36:	4611      	mov	r1, r2
   d6d38:	f7ff fdb9 	bl	d68ae <_ZN8particle11PromiseBaseIbNS_6detail13FutureContextEE11fromDataPtrEPv>
    if (error != Error::NONE) {
   d6d3c:	b17c      	cbz	r4, d6d5e <_ZN12_GLOBAL__N_125publishCompletionCallbackEiPKvPvS2_+0x32>
        p.setError(Error((Error::Type)error, (const char*)data));
   d6d3e:	b224      	sxth	r4, r4
   d6d40:	4628      	mov	r0, r5
   d6d42:	b10d      	cbz	r5, d6d48 <_ZN12_GLOBAL__N_125publishCompletionCallbackEiPKvPvS2_+0x1c>
   d6d44:	f001 ff9c 	bl	d8c80 <strdup>
   d6d48:	9002      	str	r0, [sp, #8]
   d6d4a:	a902      	add	r1, sp, #8
   d6d4c:	4668      	mov	r0, sp
   d6d4e:	f8ad 400c 	strh.w	r4, [sp, #12]
   d6d52:	f7ff fe1f 	bl	d6994 <_ZN8particle11PromiseBaseIbNS_6detail13FutureContextEE8setErrorENS_5ErrorE>
   d6d56:	a802      	add	r0, sp, #8
   d6d58:	f7ff fd41 	bl	d67de <_ZN8particle5ErrorD1Ev>
   d6d5c:	e01d      	b.n	d6d9a <_ZN12_GLOBAL__N_125publishCompletionCallbackEiPKvPvS2_+0x6e>
   d6d5e:	9800      	ldr	r0, [sp, #0]
            onSuccess_(nullptr),
            onError_(nullptr) {
    }

    bool changeState(State state) {
        State s = State::RUNNING; // Expected state
   d6d60:	f88d 4008 	strb.w	r4, [sp, #8]

      bool
      compare_exchange_strong(_Tp& __e, _Tp __i, memory_order __s, 
			      memory_order __f) noexcept
      {
	return __atomic_compare_exchange(&_M_i, &__e, &__i, false, __s, __f);
   d6d64:	f04f 0201 	mov.w	r2, #1
   d6d68:	e8d0 3f4f 	ldrexb	r3, [r0]
   d6d6c:	42a3      	cmp	r3, r4
   d6d6e:	d103      	bne.n	d6d78 <_ZN12_GLOBAL__N_125publishCompletionCallbackEiPKvPvS2_+0x4c>
   d6d70:	e8c0 2f41 	strexb	r1, r2, [r0]
   d6d74:	2900      	cmp	r1, #0
   d6d76:	d1f7      	bne.n	d6d68 <_ZN12_GLOBAL__N_125publishCompletionCallbackEiPKvPvS2_+0x3c>
   d6d78:	d002      	beq.n	d6d80 <_ZN12_GLOBAL__N_125publishCompletionCallbackEiPKvPvS2_+0x54>
   d6d7a:	f88d 3008 	strb.w	r3, [sp, #8]
   d6d7e:	e00c      	b.n	d6d9a <_ZN12_GLOBAL__N_125publishCompletionCallbackEiPKvPvS2_+0x6e>
        }
    }

    void setResult(ResultT result) {
        if (this->changeState(State::SUCCEEDED)) {
            new(&result_) ResultT(std::move(result));
   d6d80:	f110 010c 	adds.w	r1, r0, #12
   d6d84:	f04f 0301 	mov.w	r3, #1
   d6d88:	bf18      	it	ne
   d6d8a:	7303      	strbne	r3, [r0, #12]
        memory_order __b = __m & __memory_order_mask;
	__glibcxx_assert(__b != memory_order_acquire);
	__glibcxx_assert(__b != memory_order_acq_rel);
	__glibcxx_assert(__b != memory_order_consume);

	__atomic_store_n(&_M_i, __i, __m);
   d6d8c:	f3bf 8f5f 	dmb	sy
            this->releaseDone();
            this->invokeCallback(this->onSuccess_, result_);
   d6d90:	3004      	adds	r0, #4
   d6d92:	f800 3c03 	strb.w	r3, [r0, #-3]
   d6d96:	f7ff ff71 	bl	d6c7c <_ZN8particle6detail14FutureImplBaseIbNS0_13FutureContextEE14invokeCallbackIFvRKbEIRbEEEvRSt6atomicIPSt8functionIT_EEDpOT0_>
   d6d9a:	a801      	add	r0, sp, #4
   d6d9c:	f7fd fa60 	bl	d4260 <_ZNSt14__shared_countILN9__gnu_cxx12_Lock_policyE0EED1Ev>
    } else {
        p.setResult(true);
    }
}
   d6da0:	b005      	add	sp, #20
   d6da2:	bd30      	pop	{r4, r5, pc}

000d6da4 <_ZN5spark13EthernetClass9listeningEv>:
    uint16_t getListenTimeout(void) {
        return network_get_listen_timeout(*this, 0, NULL);
    }

    bool listening(void) {
        return network_listening(*this, 0, NULL);
   d6da4:	2200      	movs	r2, #0
   d6da6:	4611      	mov	r1, r2
   d6da8:	6840      	ldr	r0, [r0, #4]
   d6daa:	f7fe bc2b 	b.w	d5604 <network_listening>

000d6dae <_ZN5spark13EthernetClass16getListenTimeoutEv>:
    void setListenTimeout(uint16_t timeout) {
        network_set_listen_timeout(*this, timeout, NULL);
    }

    uint16_t getListenTimeout(void) {
        return network_get_listen_timeout(*this, 0, NULL);
   d6dae:	2200      	movs	r2, #0
   d6db0:	4611      	mov	r1, r2
   d6db2:	6840      	ldr	r0, [r0, #4]
   d6db4:	f7fe bc36 	b.w	d5624 <network_get_listen_timeout>

000d6db8 <_ZN5spark13EthernetClass16setListenTimeoutEt>:
    void listen(bool begin=true) {
        network_listen(*this, begin ? 0 : 1, NULL);
    }

    void setListenTimeout(uint16_t timeout) {
        network_set_listen_timeout(*this, timeout, NULL);
   d6db8:	2200      	movs	r2, #0
   d6dba:	6840      	ldr	r0, [r0, #4]
   d6dbc:	f7fe bc2a 	b.w	d5614 <network_set_listen_timeout>

000d6dc0 <_ZN5spark13EthernetClass6listenEb>:
    void disconnect() {
        network_disconnect(*this, NETWORK_DISCONNECT_REASON_USER, NULL);
    }

    void listen(bool begin=true) {
        network_listen(*this, begin ? 0 : 1, NULL);
   d6dc0:	2200      	movs	r2, #0
   d6dc2:	f081 0101 	eor.w	r1, r1, #1
   d6dc6:	6840      	ldr	r0, [r0, #4]
   d6dc8:	f7fe bc14 	b.w	d55f4 <network_listen>

000d6dcc <_ZN5spark13EthernetClass3offEv>:
    void on() {
        network_on(*this, 0, 0, NULL);
    }

    void off() {
        network_off(*this, 0, 0, NULL);
   d6dcc:	2300      	movs	r3, #0
   d6dce:	461a      	mov	r2, r3
   d6dd0:	4619      	mov	r1, r3
   d6dd2:	6840      	ldr	r0, [r0, #4]
   d6dd4:	f7fe bc06 	b.w	d55e4 <network_off>

000d6dd8 <_ZN5spark13EthernetClass2onEv>:
    EthernetClass() :
            NetworkClass(NETWORK_INTERFACE_ETHERNET) {
    }

    void on() {
        network_on(*this, 0, 0, NULL);
   d6dd8:	2300      	movs	r3, #0
   d6dda:	461a      	mov	r2, r3
   d6ddc:	4619      	mov	r1, r3
   d6dde:	6840      	ldr	r0, [r0, #4]
   d6de0:	f7fe bbf8 	b.w	d55d4 <network_on>

000d6de4 <_ZN5spark13EthernetClass5readyEv>:
    bool listening(void) {
        return network_listening(*this, 0, NULL);
    }

    bool ready() {
        return network_ready(*this, 0,  NULL);
   d6de4:	2200      	movs	r2, #0
   d6de6:	4611      	mov	r1, r2
   d6de8:	6840      	ldr	r0, [r0, #4]
   d6dea:	f7fe bbeb 	b.w	d55c4 <network_ready>

000d6dee <_ZN5spark13EthernetClass10connectingEv>:
    void connect(unsigned flags=0) {
        network_connect(*this, flags, 0, NULL);
    }

    bool connecting(void) {
        return network_connecting(*this, 0, NULL);
   d6dee:	2200      	movs	r2, #0
   d6df0:	4611      	mov	r1, r2
   d6df2:	6840      	ldr	r0, [r0, #4]
   d6df4:	f7fe bbd6 	b.w	d55a4 <network_connecting>

000d6df8 <_ZN5spark13EthernetClass10disconnectEv>:
    }

    void disconnect() {
        network_disconnect(*this, NETWORK_DISCONNECT_REASON_USER, NULL);
   d6df8:	2200      	movs	r2, #0
   d6dfa:	2102      	movs	r1, #2
   d6dfc:	6840      	ldr	r0, [r0, #4]
   d6dfe:	f7fe bbd9 	b.w	d55b4 <network_disconnect>

000d6e02 <_ZN5spark13EthernetClass7connectEj>:
    void off() {
        network_off(*this, 0, 0, NULL);
    }

    void connect(unsigned flags=0) {
        network_connect(*this, flags, 0, NULL);
   d6e02:	2300      	movs	r3, #0
   d6e04:	461a      	mov	r2, r3
   d6e06:	6840      	ldr	r0, [r0, #4]
   d6e08:	f7fe bbc4 	b.w	d5594 <network_connect>

000d6e0c <_GLOBAL__sub_I__ZN5spark8EthernetE>:
    static NetworkClass& from(network_interface_t nif);

    virtual IPAddress resolve(const char* name);

    explicit NetworkClass(network_interface_t iface)
            : iface_(iface) {
   d6e0c:	4b02      	ldr	r3, [pc, #8]	; (d6e18 <_GLOBAL__sub_I__ZN5spark8EthernetE+0xc>)
   d6e0e:	2203      	movs	r2, #3
   d6e10:	605a      	str	r2, [r3, #4]
    }

class EthernetClass : public NetworkClass {
public:
    EthernetClass() :
            NetworkClass(NETWORK_INTERFACE_ETHERNET) {
   d6e12:	4a02      	ldr	r2, [pc, #8]	; (d6e1c <_GLOBAL__sub_I__ZN5spark8EthernetE+0x10>)
   d6e14:	601a      	str	r2, [r3, #0]
   d6e16:	4770      	bx	lr
   d6e18:	2003e4cc 	.word	0x2003e4cc
   d6e1c:	000d90b4 	.word	0x000d90b4

000d6e20 <_ZN7TwoWireD1Ev>:
private:
  HAL_I2C_Interface _i2c;

public:
  TwoWire(HAL_I2C_Interface i2c);
  virtual ~TwoWire() {};
   d6e20:	4770      	bx	lr

000d6e22 <_ZN7TwoWire5writeEPKhj>:

// must be called in:
// slave tx event callback
// or after beginTransmission(address)
size_t TwoWire::write(const uint8_t *data, size_t quantity)
{
   d6e22:	b5f8      	push	{r3, r4, r5, r6, r7, lr}
   d6e24:	4606      	mov	r6, r0
   d6e26:	4615      	mov	r5, r2
   d6e28:	460c      	mov	r4, r1
   d6e2a:	188f      	adds	r7, r1, r2
  // in master/slave transmitter mode
  for(size_t i = 0; i < quantity; ++i)
   d6e2c:	42bc      	cmp	r4, r7
   d6e2e:	d006      	beq.n	d6e3e <_ZN7TwoWire5writeEPKhj+0x1c>
  {
    write(data[i]);
   d6e30:	6833      	ldr	r3, [r6, #0]
   d6e32:	f814 1b01 	ldrb.w	r1, [r4], #1
   d6e36:	689b      	ldr	r3, [r3, #8]
   d6e38:	4630      	mov	r0, r6
   d6e3a:	4798      	blx	r3
// slave tx event callback
// or after beginTransmission(address)
size_t TwoWire::write(const uint8_t *data, size_t quantity)
{
  // in master/slave transmitter mode
  for(size_t i = 0; i < quantity; ++i)
   d6e3c:	e7f6      	b.n	d6e2c <_ZN7TwoWire5writeEPKhj+0xa>
  {
    write(data[i]);
  }

  return quantity;
}
   d6e3e:	4628      	mov	r0, r5
   d6e40:	bdf8      	pop	{r3, r4, r5, r6, r7, pc}

000d6e42 <_ZN7TwoWire5writeEh>:
// must be called in:
// slave tx event callback
// or after beginTransmission(address)
size_t TwoWire::write(uint8_t data)
{
  return HAL_I2C_Write_Data(_i2c, data, NULL);
   d6e42:	2200      	movs	r2, #0
   d6e44:	7c00      	ldrb	r0, [r0, #16]
   d6e46:	f7fe ba4f 	b.w	d52e8 <HAL_I2C_Write_Data>

000d6e4a <_ZN7TwoWire9availableEv>:
// must be called in:
// slave rx event callback
// or after requestFrom(address, numBytes)
int TwoWire::available(void)
{
  return HAL_I2C_Available_Data(_i2c, NULL);
   d6e4a:	2100      	movs	r1, #0
   d6e4c:	7c00      	ldrb	r0, [r0, #16]
   d6e4e:	f7fe ba53 	b.w	d52f8 <HAL_I2C_Available_Data>

000d6e52 <_ZN7TwoWire4readEv>:
// must be called in:
// slave rx event callback
// or after requestFrom(address, numBytes)
int TwoWire::read(void)
{
  return HAL_I2C_Read_Data(_i2c, NULL);
   d6e52:	2100      	movs	r1, #0
   d6e54:	7c00      	ldrb	r0, [r0, #16]
   d6e56:	f7fe ba57 	b.w	d5308 <HAL_I2C_Read_Data>

000d6e5a <_ZN7TwoWire4peekEv>:
// must be called in:
// slave rx event callback
// or after requestFrom(address, numBytes)
int TwoWire::peek(void)
{
  return HAL_I2C_Peek_Data(_i2c, NULL);
   d6e5a:	2100      	movs	r1, #0
   d6e5c:	7c00      	ldrb	r0, [r0, #16]
   d6e5e:	f7fe ba5b 	b.w	d5318 <HAL_I2C_Peek_Data>

000d6e62 <_ZN7TwoWire5flushEv>:
}

void TwoWire::flush(void)
{
  HAL_I2C_Flush_Data(_i2c, NULL);
   d6e62:	2100      	movs	r1, #0
   d6e64:	7c00      	ldrb	r0, [r0, #16]
   d6e66:	f7fe ba5f 	b.w	d5328 <HAL_I2C_Flush_Data>

000d6e6a <_ZN7TwoWireD0Ev>:
   d6e6a:	b510      	push	{r4, lr}
   d6e6c:	2114      	movs	r1, #20
   d6e6e:	4604      	mov	r4, r0
   d6e70:	f000 febd 	bl	d7bee <_ZdlPvj>
   d6e74:	4620      	mov	r0, r4
   d6e76:	bd10      	pop	{r4, pc}

000d6e78 <_ZN7TwoWireC1E17HAL_I2C_Interface>:
#include "i2c_hal.h"
#include "spark_wiring_thread.h"

// Constructors ////////////////////////////////////////////////////////////////

TwoWire::TwoWire(HAL_I2C_Interface i2c)
   d6e78:	b510      	push	{r4, lr}
   d6e7a:	4604      	mov	r4, r0
    virtual int available() = 0;
    virtual int read() = 0;
    virtual int peek() = 0;
    virtual void flush() = 0;

    Stream() {_timeout=1000;}
   d6e7c:	f44f 737a 	mov.w	r3, #1000	; 0x3e8
   d6e80:	4608      	mov	r0, r1
   d6e82:	60a3      	str	r3, [r4, #8]
  protected:
    void setWriteError(int err = 1) { write_error = err; }
    size_t printf_impl(bool newline, const char* format, ...);

  public:
    Print() : write_error(0) {}
   d6e84:	2100      	movs	r1, #0
   d6e86:	4b04      	ldr	r3, [pc, #16]	; (d6e98 <_ZN7TwoWireC1E17HAL_I2C_Interface+0x20>)
{
  _i2c = i2c;
   d6e88:	7420      	strb	r0, [r4, #16]
   d6e8a:	6061      	str	r1, [r4, #4]
#include "i2c_hal.h"
#include "spark_wiring_thread.h"

// Constructors ////////////////////////////////////////////////////////////////

TwoWire::TwoWire(HAL_I2C_Interface i2c)
   d6e8c:	6023      	str	r3, [r4, #0]
{
  _i2c = i2c;
  HAL_I2C_Init(_i2c, NULL);
   d6e8e:	f7fe fa5b 	bl	d5348 <HAL_I2C_Init>

}
   d6e92:	4620      	mov	r0, r4
   d6e94:	bd10      	pop	{r4, pc}
   d6e96:	bf00      	nop
   d6e98:	000d90e8 	.word	0x000d90e8

000d6e9c <_ZN7TwoWire9isEnabledEv>:
  HAL_I2C_Set_Callback_On_Request(_i2c, function, NULL);
}

bool TwoWire::isEnabled()
{
  return HAL_I2C_Is_Enabled(_i2c, NULL);
   d6e9c:	2100      	movs	r1, #0
   d6e9e:	7c00      	ldrb	r0, [r0, #16]
   d6ea0:	f7fe ba4a 	b.w	d5338 <HAL_I2C_Is_Enabled>

000d6ea4 <_Z12noInterruptsv>:
 * Return         : None.
 *******************************************************************************/
void noInterrupts(void)
{
  //Only disable the interrupts that are exposed to the user
  HAL_Interrupts_Disable_All();
   d6ea4:	f7fe ba10 	b.w	d52c8 <HAL_Interrupts_Disable_All>

000d6ea8 <_Z10interruptsv>:
 * Return         : None.
 *******************************************************************************/
void interrupts(void)
{
  //Only enable the interrupts that are exposed to the user
  HAL_Interrupts_Enable_All();
   d6ea8:	f7fe ba06 	b.w	d52b8 <HAL_Interrupts_Enable_All>

000d6eac <_ZN9IPAddressD1Ev>:
    IPAddress(uint8_t first_octet, uint8_t second_octet, uint8_t third_octet, uint8_t fourth_octet);
    IPAddress(uint32_t address);
    IPAddress(const uint8_t* address);
    IPAddress(const HAL_IPAddress& address);

    virtual ~IPAddress() {}
   d6eac:	4770      	bx	lr

000d6eae <_ZN9IPAddressD0Ev>:
   d6eae:	b510      	push	{r4, lr}
   d6eb0:	2118      	movs	r1, #24
   d6eb2:	4604      	mov	r4, r0
   d6eb4:	f000 fe9b 	bl	d7bee <_ZdlPvj>
   d6eb8:	4620      	mov	r0, r4
   d6eba:	bd10      	pop	{r4, pc}

000d6ebc <_ZNK9IPAddress7printToER5Print>:
#endif // Wiring_IPv6
	return address.ipv4==that.address.ipv4;
}

size_t IPAddress::printTo(Print& p) const
{
   d6ebc:	b5f0      	push	{r4, r5, r6, r7, lr}
#if Wiring_IPv6
#if HAL_USE_INET_HAL_POSIX
	if (address.v==6) {
   d6ebe:	7d03      	ldrb	r3, [r0, #20]
   d6ec0:	2b06      	cmp	r3, #6
#endif // Wiring_IPv6
	return address.ipv4==that.address.ipv4;
}

size_t IPAddress::printTo(Print& p) const
{
   d6ec2:	b08d      	sub	sp, #52	; 0x34
   d6ec4:	460e      	mov	r6, r1
   d6ec6:	f100 0704 	add.w	r7, r0, #4
   d6eca:	f04f 0400 	mov.w	r4, #0
#if Wiring_IPv6
#if HAL_USE_INET_HAL_POSIX
	if (address.v==6) {
   d6ece:	d002      	beq.n	d6ed6 <_ZNK9IPAddress7printToER5Print+0x1a>
   d6ed0:	f100 0508 	add.w	r5, r0, #8
   d6ed4:	e018      	b.n	d6f08 <_ZNK9IPAddress7printToER5Print+0x4c>
		char buf[INET6_ADDRSTRLEN+1];
		buf[0] = 0;
   d6ed6:	ad0c      	add	r5, sp, #48	; 0x30
		inet_inet_ntop(AF_INET6, address.ipv6, buf, sizeof(buf));
   d6ed8:	4639      	mov	r1, r7
{
#if Wiring_IPv6
#if HAL_USE_INET_HAL_POSIX
	if (address.v==6) {
		char buf[INET6_ADDRSTRLEN+1];
		buf[0] = 0;
   d6eda:	f805 4d30 	strb.w	r4, [r5, #-48]!
		inet_inet_ntop(AF_INET6, address.ipv6, buf, sizeof(buf));
   d6ede:	232f      	movs	r3, #47	; 0x2f
   d6ee0:	462a      	mov	r2, r5
   d6ee2:	200a      	movs	r0, #10
   d6ee4:	f7fe fa38 	bl	d5358 <inet_inet_ntop>
    void clearWriteError() { setWriteError(0); }

    virtual size_t write(uint8_t) = 0;
    size_t write(const char *str) {
      if (str == NULL) return 0;
      return write((const uint8_t *)str, strlen(str));
   d6ee8:	4628      	mov	r0, r5
   d6eea:	f001 fee4 	bl	d8cb6 <strlen>
   d6eee:	6833      	ldr	r3, [r6, #0]
   d6ef0:	4602      	mov	r2, r0
   d6ef2:	68db      	ldr	r3, [r3, #12]
   d6ef4:	4629      	mov	r1, r5
   d6ef6:	4630      	mov	r0, r6
   d6ef8:	4798      	blx	r3
   d6efa:	e00f      	b.n	d6f1c <_ZNK9IPAddress7printToER5Print+0x60>
#endif // HAL_USE_INET_HAL_POSIX
#endif // Wiring_IPv6
    size_t n = 0;
    for (int i = 0; i < 4; i++)
    {
        if (n)
   d6efc:	b124      	cbz	r4, d6f08 <_ZNK9IPAddress7printToER5Print+0x4c>
            n += p.print('.');
   d6efe:	212e      	movs	r1, #46	; 0x2e
   d6f00:	4630      	mov	r0, r6
   d6f02:	f000 f9cd 	bl	d72a0 <_ZN5Print5printEc>
   d6f06:	4404      	add	r4, r0
        n += p.print((*this)[i], DEC);
   d6f08:	f815 1d01 	ldrb.w	r1, [r5, #-1]!
   d6f0c:	220a      	movs	r2, #10
   d6f0e:	4630      	mov	r0, r6
   d6f10:	f000 fa02 	bl	d7318 <_ZN5Print5printEhi>
#else
#pragma message "HAL_USE_INET_HAL_POSIX is required for IPv6 support in IPAddress::printTo()"
#endif // HAL_USE_INET_HAL_POSIX
#endif // Wiring_IPv6
    size_t n = 0;
    for (int i = 0; i < 4; i++)
   d6f14:	42bd      	cmp	r5, r7
    {
        if (n)
            n += p.print('.');
        n += p.print((*this)[i], DEC);
   d6f16:	4404      	add	r4, r0
#else
#pragma message "HAL_USE_INET_HAL_POSIX is required for IPv6 support in IPAddress::printTo()"
#endif // HAL_USE_INET_HAL_POSIX
#endif // Wiring_IPv6
    size_t n = 0;
    for (int i = 0; i < 4; i++)
   d6f18:	d1f0      	bne.n	d6efc <_ZNK9IPAddress7printToER5Print+0x40>
    {
        if (n)
            n += p.print('.');
        n += p.print((*this)[i], DEC);
   d6f1a:	4620      	mov	r0, r4
    }
    return n;
}
   d6f1c:	b00d      	add	sp, #52	; 0x34
   d6f1e:	bdf0      	pop	{r4, r5, r6, r7, pc}

000d6f20 <_ZN9IPAddressC1Ev>:

#if HAL_USE_INET_HAL_POSIX
#include <arpa/inet.h>
#endif // HAL_USE_INET_HAL_POSIX

IPAddress::IPAddress()
   d6f20:	b510      	push	{r4, lr}
   d6f22:	4b05      	ldr	r3, [pc, #20]	; (d6f38 <_ZN9IPAddressC1Ev+0x18>)
   d6f24:	4604      	mov	r4, r0
        return address;
    }

    virtual size_t printTo(Print& p) const;

    void clear() { memset(&address, 0, sizeof (address)); }
   d6f26:	2211      	movs	r2, #17
   d6f28:	f840 3b04 	str.w	r3, [r0], #4
   d6f2c:	2100      	movs	r1, #0
   d6f2e:	f001 fe68 	bl	d8c02 <memset>
{
    clear();
}
   d6f32:	4620      	mov	r0, r4
   d6f34:	bd10      	pop	{r4, pc}
   d6f36:	bf00      	nop
   d6f38:	000d9110 	.word	0x000d9110

000d6f3c <_ZN9IPAddressC1ERK16_HAL_IPAddress_t>:

IPAddress::IPAddress(const HAL_IPAddress& address)
   d6f3c:	4603      	mov	r3, r0
   d6f3e:	4a07      	ldr	r2, [pc, #28]	; (d6f5c <_ZN9IPAddressC1ERK16_HAL_IPAddress_t+0x20>)
   d6f40:	b510      	push	{r4, lr}
   d6f42:	f843 2b04 	str.w	r2, [r3], #4
{
    memcpy(&this->address, &address, sizeof(address));
   d6f46:	f101 0210 	add.w	r2, r1, #16
   d6f4a:	f851 4b04 	ldr.w	r4, [r1], #4
   d6f4e:	f843 4b04 	str.w	r4, [r3], #4
   d6f52:	4291      	cmp	r1, r2
   d6f54:	d1f9      	bne.n	d6f4a <_ZN9IPAddressC1ERK16_HAL_IPAddress_t+0xe>
   d6f56:	780a      	ldrb	r2, [r1, #0]
   d6f58:	701a      	strb	r2, [r3, #0]
}
   d6f5a:	bd10      	pop	{r4, pc}
   d6f5c:	000d9110 	.word	0x000d9110

000d6f60 <_ZN9IPAddress8set_ipv4Ehhhh>:
    return address.ipv4!=0;
#endif
}

void IPAddress::set_ipv4(uint8_t b0, uint8_t b1, uint8_t b2, uint8_t b3)
{
   d6f60:	b510      	push	{r4, lr}
    address.ipv4 = b0<<24 | b1 << 16 | b2 << 8 | b3;
   d6f62:	f89d 4008 	ldrb.w	r4, [sp, #8]
   d6f66:	ea44 2303 	orr.w	r3, r4, r3, lsl #8
   d6f6a:	ea43 4202 	orr.w	r2, r3, r2, lsl #16
   d6f6e:	ea42 6101 	orr.w	r1, r2, r1, lsl #24
        return &address;
    }

    inline void setVersion(uint8_t version) {
#if HAL_IPv6
        address.v = version;
   d6f72:	2304      	movs	r3, #4
   d6f74:	6041      	str	r1, [r0, #4]
   d6f76:	7503      	strb	r3, [r0, #20]
   d6f78:	bd10      	pop	{r4, pc}

000d6f7a <_ZN9IPAddressaSEPKh>:
    setVersion(4);
}

IPAddress& IPAddress::operator=(const uint8_t* address)
{
   d6f7a:	b537      	push	{r0, r1, r2, r4, r5, lr}
    set_ipv4(address[0], address[1], address[2], address[3]);
   d6f7c:	780d      	ldrb	r5, [r1, #0]
   d6f7e:	788b      	ldrb	r3, [r1, #2]
   d6f80:	784a      	ldrb	r2, [r1, #1]
   d6f82:	78c9      	ldrb	r1, [r1, #3]
   d6f84:	9100      	str	r1, [sp, #0]
   d6f86:	4629      	mov	r1, r5
   d6f88:	f7ff ffea 	bl	d6f60 <_ZN9IPAddress8set_ipv4Ehhhh>
    return *this;
}
   d6f8c:	b003      	add	sp, #12
   d6f8e:	bd30      	pop	{r4, r5, pc}

000d6f90 <_GLOBAL__sub_I__ZN5spark3LogE>:
    // This handler doesn't support direct logging
}

// spark::Logger
inline spark::Logger::Logger(const char *name) :
        name_(name) {
   d6f90:	4b01      	ldr	r3, [pc, #4]	; (d6f98 <_GLOBAL__sub_I__ZN5spark3LogE+0x8>)
   d6f92:	4a02      	ldr	r2, [pc, #8]	; (d6f9c <_GLOBAL__sub_I__ZN5spark3LogE+0xc>)
   d6f94:	601a      	str	r2, [r3, #0]
   d6f96:	4770      	bx	lr
   d6f98:	2003e4d4 	.word	0x2003e4d4
   d6f9c:	000d91cf 	.word	0x000d91cf

000d6fa0 <_ZN5spark9MeshClass9listeningEv>:
    uint16_t getListenTimeout(void) {
        return network_get_listen_timeout(*this, 0, NULL);
    }

    bool listening(void) {
        return network_listening(*this, 0, NULL);
   d6fa0:	2200      	movs	r2, #0
   d6fa2:	4611      	mov	r1, r2
   d6fa4:	6840      	ldr	r0, [r0, #4]
   d6fa6:	f7fe bb2d 	b.w	d5604 <network_listening>

000d6faa <_ZN5spark9MeshClass16getListenTimeoutEv>:
    void setListenTimeout(uint16_t timeout) {
        network_set_listen_timeout(*this, timeout, NULL);
    }

    uint16_t getListenTimeout(void) {
        return network_get_listen_timeout(*this, 0, NULL);
   d6faa:	2200      	movs	r2, #0
   d6fac:	4611      	mov	r1, r2
   d6fae:	6840      	ldr	r0, [r0, #4]
   d6fb0:	f7fe bb38 	b.w	d5624 <network_get_listen_timeout>

000d6fb4 <_ZN5spark9MeshClass16setListenTimeoutEt>:
    void listen(bool begin=true) {
        network_listen(*this, begin ? 0 : 1, NULL);
    }

    void setListenTimeout(uint16_t timeout) {
        network_set_listen_timeout(*this, timeout, NULL);
   d6fb4:	2200      	movs	r2, #0
   d6fb6:	6840      	ldr	r0, [r0, #4]
   d6fb8:	f7fe bb2c 	b.w	d5614 <network_set_listen_timeout>

000d6fbc <_ZN5spark9MeshClass6listenEb>:
    void disconnect() {
        network_disconnect(*this, NETWORK_DISCONNECT_REASON_USER, NULL);
    }

    void listen(bool begin=true) {
        network_listen(*this, begin ? 0 : 1, NULL);
   d6fbc:	2200      	movs	r2, #0
   d6fbe:	f081 0101 	eor.w	r1, r1, #1
   d6fc2:	6840      	ldr	r0, [r0, #4]
   d6fc4:	f7fe bb16 	b.w	d55f4 <network_listen>

000d6fc8 <_ZN5spark9MeshClass3offEv>:
    void on() {
        network_on(*this, 0, 0, NULL);
    }

    void off() {
        network_off(*this, 1, 0, NULL);
   d6fc8:	2300      	movs	r3, #0
   d6fca:	461a      	mov	r2, r3
   d6fcc:	2101      	movs	r1, #1
   d6fce:	6840      	ldr	r0, [r0, #4]
   d6fd0:	f7fe bb08 	b.w	d55e4 <network_off>

000d6fd4 <_ZN5spark9MeshClass2onEv>:
    MeshClass() :
            NetworkClass(NETWORK_INTERFACE_MESH) {
    }

    void on() {
        network_on(*this, 0, 0, NULL);
   d6fd4:	2300      	movs	r3, #0
   d6fd6:	461a      	mov	r2, r3
   d6fd8:	4619      	mov	r1, r3
   d6fda:	6840      	ldr	r0, [r0, #4]
   d6fdc:	f7fe bafa 	b.w	d55d4 <network_on>

000d6fe0 <_ZN5spark9MeshClass5readyEv>:
    bool listening(void) {
        return network_listening(*this, 0, NULL);
    }

    bool ready() {
        return network_ready(*this, 0,  NULL);
   d6fe0:	2200      	movs	r2, #0
   d6fe2:	4611      	mov	r1, r2
   d6fe4:	6840      	ldr	r0, [r0, #4]
   d6fe6:	f7fe baed 	b.w	d55c4 <network_ready>

000d6fea <_ZN5spark9MeshClass10connectingEv>:
    void connect(unsigned flags=0) {
        network_connect(*this, flags, 0, NULL);
    }

    bool connecting(void) {
        return network_connecting(*this, 0, NULL);
   d6fea:	2200      	movs	r2, #0
   d6fec:	4611      	mov	r1, r2
   d6fee:	6840      	ldr	r0, [r0, #4]
   d6ff0:	f7fe bad8 	b.w	d55a4 <network_connecting>

000d6ff4 <_ZN5spark9MeshClass10disconnectEv>:
    }

    void disconnect() {
        network_disconnect(*this, NETWORK_DISCONNECT_REASON_USER, NULL);
   d6ff4:	2200      	movs	r2, #0
   d6ff6:	2102      	movs	r1, #2
   d6ff8:	6840      	ldr	r0, [r0, #4]
   d6ffa:	f7fe badb 	b.w	d55b4 <network_disconnect>

000d6ffe <_ZN5spark9MeshClass7connectEj>:
    void off() {
        network_off(*this, 1, 0, NULL);
    }

    void connect(unsigned flags=0) {
        network_connect(*this, flags, 0, NULL);
   d6ffe:	2300      	movs	r3, #0
   d7000:	461a      	mov	r2, r3
   d7002:	6840      	ldr	r0, [r0, #4]
   d7004:	f7fe bac6 	b.w	d5594 <network_connect>

000d7008 <_ZNKSt14default_deleteIN6Thread4DataEEclEPS1_.isra.6>:
	       enable_if<is_convertible<_Up*, _Tp*>::value>::type>
        default_delete(const default_delete<_Up>&) noexcept { }

      /// Calls @c delete @p __ptr
      void
      operator()(_Tp* __ptr) const
   d7008:	b538      	push	{r3, r4, r5, lr}
      {
	static_assert(!is_void<_Tp>::value,
		      "can't delete pointer to incomplete type");
	static_assert(sizeof(_Tp)>0,
		      "can't delete pointer to incomplete type");
	delete __ptr;
   d700a:	4605      	mov	r5, r0
   d700c:	b188      	cbz	r0, d7032 <_ZNKSt14default_deleteIN6Thread4DataEEclEPS1_.isra.6+0x2a>

      /// Destructor, invokes the deleter if the stored pointer is not null.
      ~unique_ptr() noexcept
      {
	auto& __ptr = std::get<0>(_M_t);
	if (__ptr != nullptr)
   d700e:	6804      	ldr	r4, [r0, #0]
   d7010:	b14c      	cbz	r4, d7026 <_ZNKSt14default_deleteIN6Thread4DataEEclEPS1_.isra.6+0x1e>

    _Function_base() : _M_manager(nullptr) { }

    ~_Function_base()
    {
      if (_M_manager)
   d7012:	68a3      	ldr	r3, [r4, #8]
   d7014:	b11b      	cbz	r3, d701e <_ZNKSt14default_deleteIN6Thread4DataEEclEPS1_.isra.6+0x16>
	_M_manager(_M_functor, _M_functor, __destroy_functor);
   d7016:	2203      	movs	r2, #3
   d7018:	4621      	mov	r1, r4
   d701a:	4620      	mov	r0, r4
   d701c:	4798      	blx	r3
      {
	static_assert(!is_void<_Tp>::value,
		      "can't delete pointer to incomplete type");
	static_assert(sizeof(_Tp)>0,
		      "can't delete pointer to incomplete type");
	delete __ptr;
   d701e:	2110      	movs	r1, #16
   d7020:	4620      	mov	r0, r4
   d7022:	f000 fde4 	bl	d7bee <_ZdlPvj>
   d7026:	4628      	mov	r0, r5
   d7028:	2114      	movs	r1, #20
      }
   d702a:	e8bd 4038 	ldmia.w	sp!, {r3, r4, r5, lr}
      {
	static_assert(!is_void<_Tp>::value,
		      "can't delete pointer to incomplete type");
	static_assert(sizeof(_Tp)>0,
		      "can't delete pointer to incomplete type");
	delete __ptr;
   d702e:	f000 bdde 	b.w	d7bee <_ZdlPvj>
   d7032:	bd38      	pop	{r3, r4, r5, pc}

000d7034 <_ZNKSt14default_deleteI3UDPEclEPS0_.isra.8.constprop.13>:
   d7034:	b110      	cbz	r0, d703c <_ZNKSt14default_deleteI3UDPEclEPS0_.isra.8.constprop.13+0x8>
   d7036:	6803      	ldr	r3, [r0, #0]
   d7038:	685b      	ldr	r3, [r3, #4]
   d703a:	4718      	bx	r3
   d703c:	4770      	bx	lr

000d703e <_ZN6ThreadD1Ev>:
    Thread(Thread&& thread)
        : d_(std::move(thread.d_))
    {
    }

    ~Thread()
   d703e:	b510      	push	{r4, lr}
      }

      /// Return the stored pointer.
      pointer
      get() const noexcept
      { return std::get<0>(_M_t); }
   d7040:	6803      	ldr	r3, [r0, #0]
   d7042:	4604      	mov	r4, r0
        dispose();
    }

    void dispose()
    {
        if (!isValid())
   d7044:	b1bb      	cbz	r3, d7076 <_ZN6ThreadD1Ev+0x38>
        return isCurrent();
    }

    bool isCurrent() const
    {
        return isValid() && os_thread_is_current(d_->handle);
   d7046:	6858      	ldr	r0, [r3, #4]
   d7048:	f7fe f8be 	bl	d51c8 <os_thread_is_current>
   d704c:	b978      	cbnz	r0, d706e <_ZN6ThreadD1Ev+0x30>
   d704e:	6823      	ldr	r3, [r4, #0]

        // We shouldn't dispose of current thread
        if (isCurrent())
            return;

        if (!d_->exited) {
   d7050:	7c5a      	ldrb	r2, [r3, #17]
   d7052:	b912      	cbnz	r2, d705a <_ZN6ThreadD1Ev+0x1c>
        d_.reset();
    }

    bool join()
    {
        return isValid() && os_thread_join(d_->handle)==0;
   d7054:	6858      	ldr	r0, [r3, #4]
   d7056:	f7fe f8bf 	bl	d51d8 <os_thread_join>

        if (!d_->exited) {
            join();
        }

        os_thread_cleanup(d_->handle);
   d705a:	6823      	ldr	r3, [r4, #0]
   d705c:	6858      	ldr	r0, [r3, #4]
   d705e:	f7fe f8c3 	bl	d51e8 <os_thread_cleanup>
#endif
    {
      // concept requirements
      __glibcxx_function_requires(_SGIAssignableConcept<_Tp>)

      _Tp __tmp = _GLIBCXX_MOVE(__a);
   d7062:	6820      	ldr	r0, [r4, #0]
      __a = _GLIBCXX_MOVE(__b);
   d7064:	2300      	movs	r3, #0
   d7066:	6023      	str	r3, [r4, #0]
      void
      reset(pointer __p = pointer()) noexcept
      {
	using std::swap;
	swap(std::get<0>(_M_t), __p);
	if (__p != pointer())
   d7068:	b128      	cbz	r0, d7076 <_ZN6ThreadD1Ev+0x38>
	  get_deleter()(__p);
   d706a:	f7ff ffcd 	bl	d7008 <_ZNKSt14default_deleteIN6Thread4DataEEclEPS1_.isra.6>

      /// Destructor, invokes the deleter if the stored pointer is not null.
      ~unique_ptr() noexcept
      {
	auto& __ptr = std::get<0>(_M_t);
	if (__ptr != nullptr)
   d706e:	6820      	ldr	r0, [r4, #0]
   d7070:	b108      	cbz	r0, d7076 <_ZN6ThreadD1Ev+0x38>
	  get_deleter()(__ptr);
   d7072:	f7ff ffc9 	bl	d7008 <_ZNKSt14default_deleteIN6Thread4DataEEclEPS1_.isra.6>
    }

    ~Thread()
    {
        dispose();
    }
   d7076:	4620      	mov	r0, r4
   d7078:	bd10      	pop	{r4, pc}
	...

000d707c <_ZN5spark9MeshClassD1Ev>:
    RecursiveMutex mutex_;
    std::unique_ptr<uint8_t[]> buffer_;
    std::atomic_bool exit_;
};

class MeshClass : public NetworkClass, public MeshPublish {
   d707c:	b538      	push	{r3, r4, r5, lr}
   d707e:	4b0c      	ldr	r3, [pc, #48]	; (d70b0 <_ZN5spark9MeshClassD1Ev+0x34>)
   d7080:	6003      	str	r3, [r0, #0]
   d7082:	4604      	mov	r4, r0

      /// Destructor, invokes the deleter if the stored pointer is not null.
      ~unique_ptr()
      {
	auto& __ptr = std::get<0>(_M_t);
	if (__ptr != nullptr)
   d7084:	f8d0 01cc 	ldr.w	r0, [r0, #460]	; 0x1cc
   d7088:	b108      	cbz	r0, d708e <_ZN5spark9MeshClassD1Ev+0x12>
      void
      operator()(_Tp* __ptr) const
      {
	static_assert(sizeof(_Tp)>0,
		      "can't delete pointer to incomplete type");
	delete [] __ptr;
   d708a:	f7fd f808 	bl	d409e <_ZdaPv>

      /// Destructor, invokes the deleter if the stored pointer is not null.
      ~unique_ptr() noexcept
      {
	auto& __ptr = std::get<0>(_M_t);
	if (__ptr != nullptr)
   d708e:	f8d4 51c4 	ldr.w	r5, [r4, #452]	; 0x1c4
   d7092:	b135      	cbz	r5, d70a2 <_ZN5spark9MeshClassD1Ev+0x26>
      {
	static_assert(!is_void<_Tp>::value,
		      "can't delete pointer to incomplete type");
	static_assert(sizeof(_Tp)>0,
		      "can't delete pointer to incomplete type");
	delete __ptr;
   d7094:	4628      	mov	r0, r5
   d7096:	f7ff ffd2 	bl	d703e <_ZN6ThreadD1Ev>
   d709a:	2104      	movs	r1, #4
   d709c:	4628      	mov	r0, r5
   d709e:	f000 fda6 	bl	d7bee <_ZdlPvj>

      /// Destructor, invokes the deleter if the stored pointer is not null.
      ~unique_ptr() noexcept
      {
	auto& __ptr = std::get<0>(_M_t);
	if (__ptr != nullptr)
   d70a2:	68a0      	ldr	r0, [r4, #8]
   d70a4:	b108      	cbz	r0, d70aa <_ZN5spark9MeshClassD1Ev+0x2e>
	  get_deleter()(__ptr);
   d70a6:	f7ff ffc5 	bl	d7034 <_ZNKSt14default_deleteI3UDPEclEPS0_.isra.8.constprop.13>
   d70aa:	4620      	mov	r0, r4
   d70ac:	bd38      	pop	{r3, r4, r5, pc}
   d70ae:	bf00      	nop
   d70b0:	000d9200 	.word	0x000d9200

000d70b4 <_GLOBAL__sub_I__ZN5spark11MeshPublish13Subscriptions20event_handler_existsEPKcPFvS3_S3_EPvN17SubscriptionScope4EnumES3_>:

    return addr;
}

MeshClass Mesh;
} // namespace spark
   d70b4:	b538      	push	{r3, r4, r5, lr}
   d70b6:	4c0e      	ldr	r4, [pc, #56]	; (d70f0 <_GLOBAL__sub_I__ZN5spark11MeshPublish13Subscriptions20event_handler_existsEPKcPFvS3_S3_EPvN17SubscriptionScope4EnumES3_+0x3c>)
   d70b8:	4b0e      	ldr	r3, [pc, #56]	; (d70f4 <_GLOBAL__sub_I__ZN5spark11MeshPublish13Subscriptions20event_handler_existsEPKcPFvS3_S3_EPvN17SubscriptionScope4EnumES3_+0x40>)
   d70ba:	6023      	str	r3, [r4, #0]

  template<std::size_t _Idx, typename _Head>
    struct _Head_base<_Idx, _Head, false>
    {
      constexpr _Head_base()
      : _M_head_impl() { }
   d70bc:	2500      	movs	r5, #0
   d70be:	2302      	movs	r3, #2
     */
    RecursiveMutex(os_mutex_recursive_t handle) : handle_(handle) {}

    RecursiveMutex() : handle_(nullptr)
    {
        os_mutex_recursive_create(&handle_);
   d70c0:	f504 70e4 	add.w	r0, r4, #456	; 0x1c8
   d70c4:	6063      	str	r3, [r4, #4]
   d70c6:	60a5      	str	r5, [r4, #8]
   d70c8:	f8c4 51c4 	str.w	r5, [r4, #452]	; 0x1c4
    /**
     * Creates a shared mutex.
     */
    RecursiveMutex(os_mutex_recursive_t handle) : handle_(handle) {}

    RecursiveMutex() : handle_(nullptr)
   d70cc:	f8c4 51c8 	str.w	r5, [r4, #456]	; 0x1c8
    {
        os_mutex_recursive_create(&handle_);
   d70d0:	f7fe f89a 	bl	d5208 <os_mutex_recursive_create>
public:
    MeshClass() :
            NetworkClass(NETWORK_INTERFACE_MESH) {
   d70d4:	4b08      	ldr	r3, [pc, #32]	; (d70f8 <_GLOBAL__sub_I__ZN5spark11MeshPublish13Subscriptions20event_handler_existsEPKcPFvS3_S3_EPvN17SubscriptionScope4EnumES3_+0x44>)
   d70d6:	f8c4 51cc 	str.w	r5, [r4, #460]	; 0x1cc
      __atomic_base(const __atomic_base&) = delete;
      __atomic_base& operator=(const __atomic_base&) = delete;
      __atomic_base& operator=(const __atomic_base&) volatile = delete;

      // Requires __int_type convertible to _M_i.
      constexpr __atomic_base(__int_type __i) noexcept : _M_i (__i) { }
   d70da:	f884 51d0 	strb.w	r5, [r4, #464]	; 0x1d0
   d70de:	6023      	str	r3, [r4, #0]
    }

    return addr;
}

MeshClass Mesh;
   d70e0:	4620      	mov	r0, r4
   d70e2:	4a06      	ldr	r2, [pc, #24]	; (d70fc <_GLOBAL__sub_I__ZN5spark11MeshPublish13Subscriptions20event_handler_existsEPKcPFvS3_S3_EPvN17SubscriptionScope4EnumES3_+0x48>)
   d70e4:	4906      	ldr	r1, [pc, #24]	; (d7100 <_GLOBAL__sub_I__ZN5spark11MeshPublish13Subscriptions20event_handler_existsEPKcPFvS3_S3_EPvN17SubscriptionScope4EnumES3_+0x4c>)
} // namespace spark
   d70e6:	e8bd 4038 	ldmia.w	sp!, {r3, r4, r5, lr}
    }

    return addr;
}

MeshClass Mesh;
   d70ea:	f000 bd7b 	b.w	d7be4 <__aeabi_atexit>
   d70ee:	bf00      	nop
   d70f0:	2003e4d8 	.word	0x2003e4d8
   d70f4:	000d9234 	.word	0x000d9234
   d70f8:	000d9200 	.word	0x000d9200
   d70fc:	2003e450 	.word	0x2003e450
   d7100:	000d707d 	.word	0x000d707d

000d7104 <_ZN5spark12NetworkClass7connectEj>:
        return Network;
    }
}

void NetworkClass::connect(unsigned flags) {
    network_connect(*this, flags, 0, nullptr);
   d7104:	2300      	movs	r3, #0
   d7106:	461a      	mov	r2, r3
   d7108:	6840      	ldr	r0, [r0, #4]
   d710a:	f7fe ba43 	b.w	d5594 <network_connect>

000d710e <_ZN5spark12NetworkClass10disconnectEv>:
}

void NetworkClass::disconnect() {
    network_disconnect(*this, NETWORK_DISCONNECT_REASON_USER, nullptr);
   d710e:	2200      	movs	r2, #0
   d7110:	2102      	movs	r1, #2
   d7112:	6840      	ldr	r0, [r0, #4]
   d7114:	f7fe ba4e 	b.w	d55b4 <network_disconnect>

000d7118 <_ZN5spark12NetworkClass10connectingEv>:
}

bool NetworkClass::connecting() {
    return network_connecting(*this, 0, nullptr);
   d7118:	2200      	movs	r2, #0
   d711a:	4611      	mov	r1, r2
   d711c:	6840      	ldr	r0, [r0, #4]
   d711e:	f7fe ba41 	b.w	d55a4 <network_connecting>

000d7122 <_ZN5spark12NetworkClass5readyEv>:
}

bool NetworkClass::ready() {
    return network_ready(*this, 0, nullptr);
   d7122:	2200      	movs	r2, #0
   d7124:	4611      	mov	r1, r2
   d7126:	6840      	ldr	r0, [r0, #4]
   d7128:	f7fe ba4c 	b.w	d55c4 <network_ready>

000d712c <_ZN5spark12NetworkClass2onEv>:
}

void NetworkClass::on() {
    network_on(*this, 0, 0, nullptr);
   d712c:	2300      	movs	r3, #0
   d712e:	461a      	mov	r2, r3
   d7130:	4619      	mov	r1, r3
   d7132:	6840      	ldr	r0, [r0, #4]
   d7134:	f7fe ba4e 	b.w	d55d4 <network_on>

000d7138 <_ZN5spark12NetworkClass3offEv>:
}

void NetworkClass::off() {
    network_off(*this, 0, 0, nullptr);
   d7138:	2300      	movs	r3, #0
   d713a:	461a      	mov	r2, r3
   d713c:	4619      	mov	r1, r3
   d713e:	6840      	ldr	r0, [r0, #4]
   d7140:	f7fe ba50 	b.w	d55e4 <network_off>

000d7144 <_ZN5spark12NetworkClass6listenEb>:
}

void NetworkClass::listen(bool begin) {
    network_listen(*this, begin ? 0 : 1, nullptr);
   d7144:	2200      	movs	r2, #0
   d7146:	f081 0101 	eor.w	r1, r1, #1
   d714a:	6840      	ldr	r0, [r0, #4]
   d714c:	f7fe ba52 	b.w	d55f4 <network_listen>

000d7150 <_ZN5spark12NetworkClass16setListenTimeoutEt>:
}

void NetworkClass::setListenTimeout(uint16_t timeout) {
    network_set_listen_timeout(*this, timeout, nullptr);
   d7150:	2200      	movs	r2, #0
   d7152:	6840      	ldr	r0, [r0, #4]
   d7154:	f7fe ba5e 	b.w	d5614 <network_set_listen_timeout>

000d7158 <_ZN5spark12NetworkClass16getListenTimeoutEv>:
}

uint16_t NetworkClass::getListenTimeout() {
    return network_get_listen_timeout(*this, 0, nullptr);
   d7158:	2200      	movs	r2, #0
   d715a:	4611      	mov	r1, r2
   d715c:	6840      	ldr	r0, [r0, #4]
   d715e:	f7fe ba61 	b.w	d5624 <network_get_listen_timeout>

000d7162 <_ZN5spark12NetworkClass9listeningEv>:
}

bool NetworkClass::listening() {
    return network_listening(*this, 0, nullptr);
   d7162:	2200      	movs	r2, #0
   d7164:	4611      	mov	r1, r2
   d7166:	6840      	ldr	r0, [r0, #4]
   d7168:	f7fe ba4c 	b.w	d5604 <network_listening>

000d716c <_ZN5spark12NetworkClass7resolveEPKc>:
}

IPAddress NetworkClass::resolve(const char* name) {
   d716c:	e92d 43f0 	stmdb	sp!, {r4, r5, r6, r7, r8, r9, lr}
    IPAddress addr;
#if HAL_USE_INET_HAL_POSIX
    struct addrinfo *ai = nullptr;
   d7170:	2400      	movs	r4, #0

bool NetworkClass::listening() {
    return network_listening(*this, 0, nullptr);
}

IPAddress NetworkClass::resolve(const char* name) {
   d7172:	b095      	sub	sp, #84	; 0x54
   d7174:	4616      	mov	r6, r2
   d7176:	460d      	mov	r5, r1
   d7178:	4607      	mov	r7, r0
    IPAddress addr;
   d717a:	f7ff fed1 	bl	d6f20 <_ZN9IPAddressC1Ev>
#if HAL_USE_INET_HAL_POSIX
    struct addrinfo *ai = nullptr;
    struct addrinfo hints = {};
   d717e:	4621      	mov	r1, r4
   d7180:	2220      	movs	r2, #32
   d7182:	a80c      	add	r0, sp, #48	; 0x30
}

IPAddress NetworkClass::resolve(const char* name) {
    IPAddress addr;
#if HAL_USE_INET_HAL_POSIX
    struct addrinfo *ai = nullptr;
   d7184:	9400      	str	r4, [sp, #0]
    struct addrinfo hints = {};
   d7186:	f001 fd3c 	bl	d8c02 <memset>
    hints.ai_flags = AI_ADDRCONFIG;
   d718a:	2340      	movs	r3, #64	; 0x40
   d718c:	930c      	str	r3, [sp, #48]	; 0x30
    hints.ai_family = AF_UNSPEC;
    const int r = getaddrinfo(name, nullptr, &hints, &ai);
   d718e:	4621      	mov	r1, r4
   d7190:	466b      	mov	r3, sp
   d7192:	aa0c      	add	r2, sp, #48	; 0x30
   d7194:	4630      	mov	r0, r6
   d7196:	f7fe f8ef 	bl	d5378 <netdb_getaddrinfo>
    if (!r) {
   d719a:	4604      	mov	r4, r0
   d719c:	2800      	cmp	r0, #0
   d719e:	d144      	bne.n	d722a <_ZN5spark12NetworkClass7resolveEPKc+0xbe>
        bool ok = false;
        // This is not really needed if AI_ADDRCONFIG is properly supported
        bool ipv4 = network_ready(*this, NETWORK_READY_TYPE_IPV4, nullptr);
   d71a0:	4602      	mov	r2, r0
   d71a2:	2101      	movs	r1, #1
   d71a4:	6868      	ldr	r0, [r5, #4]
   d71a6:	f7fe fa0d 	bl	d55c4 <network_ready>
        bool ipv6 = network_ready(*this, NETWORK_READY_TYPE_IPV6, nullptr);
   d71aa:	2102      	movs	r1, #2
    hints.ai_family = AF_UNSPEC;
    const int r = getaddrinfo(name, nullptr, &hints, &ai);
    if (!r) {
        bool ok = false;
        // This is not really needed if AI_ADDRCONFIG is properly supported
        bool ipv4 = network_ready(*this, NETWORK_READY_TYPE_IPV4, nullptr);
   d71ac:	4680      	mov	r8, r0
        bool ipv6 = network_ready(*this, NETWORK_READY_TYPE_IPV6, nullptr);
   d71ae:	4622      	mov	r2, r4
   d71b0:	6868      	ldr	r0, [r5, #4]
   d71b2:	f7fe fa07 	bl	d55c4 <network_ready>
        for (auto cur = ai; cur != nullptr && !ok; cur = cur->ai_next) {
   d71b6:	9e00      	ldr	r6, [sp, #0]
    const int r = getaddrinfo(name, nullptr, &hints, &ai);
    if (!r) {
        bool ok = false;
        // This is not really needed if AI_ADDRCONFIG is properly supported
        bool ipv4 = network_ready(*this, NETWORK_READY_TYPE_IPV4, nullptr);
        bool ipv6 = network_ready(*this, NETWORK_READY_TYPE_IPV6, nullptr);
   d71b8:	4681      	mov	r9, r0
    struct addrinfo hints = {};
    hints.ai_flags = AI_ADDRCONFIG;
    hints.ai_family = AF_UNSPEC;
    const int r = getaddrinfo(name, nullptr, &hints, &ai);
    if (!r) {
        bool ok = false;
   d71ba:	4621      	mov	r1, r4
        // This is not really needed if AI_ADDRCONFIG is properly supported
        bool ipv4 = network_ready(*this, NETWORK_READY_TYPE_IPV4, nullptr);
        bool ipv6 = network_ready(*this, NETWORK_READY_TYPE_IPV6, nullptr);
        for (auto cur = ai; cur != nullptr && !ok; cur = cur->ai_next) {
   d71bc:	2e00      	cmp	r6, #0
   d71be:	d034      	beq.n	d722a <_ZN5spark12NetworkClass7resolveEPKc+0xbe>
   d71c0:	2900      	cmp	r1, #0
   d71c2:	d132      	bne.n	d722a <_ZN5spark12NetworkClass7resolveEPKc+0xbe>
            // NOTE: using only the first entry that matches the current state of IPv4/IPv6 connectivity
            switch (cur->ai_family) {
   d71c4:	6873      	ldr	r3, [r6, #4]
   d71c6:	2b02      	cmp	r3, #2
   d71c8:	d002      	beq.n	d71d0 <_ZN5spark12NetworkClass7resolveEPKc+0x64>
   d71ca:	2b0a      	cmp	r3, #10
   d71cc:	d009      	beq.n	d71e2 <_ZN5spark12NetworkClass7resolveEPKc+0x76>
   d71ce:	e02a      	b.n	d7226 <_ZN5spark12NetworkClass7resolveEPKc+0xba>
                case AF_INET: {
                    if (!ipv4) {
   d71d0:	f1b8 0f00 	cmp.w	r8, #0
   d71d4:	d027      	beq.n	d7226 <_ZN5spark12NetworkClass7resolveEPKc+0xba>
                        continue;
                    }
                    // NOTE: HAL_IPAddress is little-endian
                    auto in = (struct sockaddr_in*)cur->ai_addr;
                    addr = (const uint8_t*)(&in->sin_addr.s_addr);
   d71d6:	6971      	ldr	r1, [r6, #20]
   d71d8:	4638      	mov	r0, r7
   d71da:	3104      	adds	r1, #4
   d71dc:	f7ff fecd 	bl	d6f7a <_ZN9IPAddressaSEPKh>
   d71e0:	e020      	b.n	d7224 <_ZN5spark12NetworkClass7resolveEPKc+0xb8>
                    ok = true;
                    break;
                }
                case AF_INET6: {
                    if (!ipv6) {
   d71e2:	f1b9 0f00 	cmp.w	r9, #0
   d71e6:	d01e      	beq.n	d7226 <_ZN5spark12NetworkClass7resolveEPKc+0xba>
                        continue;
                    }
                    auto in6 = (struct sockaddr_in6*)cur->ai_addr;
   d71e8:	6974      	ldr	r4, [r6, #20]
                    HAL_IPAddress a = {};
   d71ea:	2211      	movs	r2, #17
   d71ec:	a801      	add	r0, sp, #4
   d71ee:	f001 fd08 	bl	d8c02 <memset>
                    a.v = 6;
   d71f2:	2306      	movs	r3, #6
   d71f4:	f88d 3014 	strb.w	r3, [sp, #20]
                    memcpy(a.ipv6, in6->sin6_addr.s6_addr, sizeof(a.ipv6));
   d71f8:	ad01      	add	r5, sp, #4
   d71fa:	f104 0308 	add.w	r3, r4, #8
   d71fe:	3418      	adds	r4, #24
   d7200:	6818      	ldr	r0, [r3, #0]
   d7202:	6859      	ldr	r1, [r3, #4]
   d7204:	462a      	mov	r2, r5
   d7206:	c203      	stmia	r2!, {r0, r1}
   d7208:	3308      	adds	r3, #8
   d720a:	42a3      	cmp	r3, r4
   d720c:	4615      	mov	r5, r2
   d720e:	d1f7      	bne.n	d7200 <_ZN5spark12NetworkClass7resolveEPKc+0x94>
                    addr = IPAddress(a);
   d7210:	a901      	add	r1, sp, #4
   d7212:	a806      	add	r0, sp, #24

/**
 * The IP address stored in host order.
 *
 */
class IPAddress : public Printable {
   d7214:	ad07      	add	r5, sp, #28
   d7216:	f7ff fe91 	bl	d6f3c <_ZN9IPAddressC1ERK16_HAL_IPAddress_t>
   d721a:	cd0f      	ldmia	r5!, {r0, r1, r2, r3}
   d721c:	1d3c      	adds	r4, r7, #4
   d721e:	c40f      	stmia	r4!, {r0, r1, r2, r3}
   d7220:	682b      	ldr	r3, [r5, #0]
   d7222:	7023      	strb	r3, [r4, #0]
                    ok = true;
   d7224:	2101      	movs	r1, #1
    if (!r) {
        bool ok = false;
        // This is not really needed if AI_ADDRCONFIG is properly supported
        bool ipv4 = network_ready(*this, NETWORK_READY_TYPE_IPV4, nullptr);
        bool ipv6 = network_ready(*this, NETWORK_READY_TYPE_IPV6, nullptr);
        for (auto cur = ai; cur != nullptr && !ok; cur = cur->ai_next) {
   d7226:	69f6      	ldr	r6, [r6, #28]
   d7228:	e7c8      	b.n	d71bc <_ZN5spark12NetworkClass7resolveEPKc+0x50>
                    break;
                }
            }
        }
    }
    freeaddrinfo(ai);
   d722a:	9800      	ldr	r0, [sp, #0]
   d722c:	f7fe f89c 	bl	d5368 <netdb_freeaddrinfo>
    return Cellular.resolve(name);
#endif // Wiring_Cellular

#endif // HAL_USE_INET_HAL_POSIX
    return addr;
}
   d7230:	4638      	mov	r0, r7
   d7232:	b015      	add	sp, #84	; 0x54
   d7234:	e8bd 83f0 	ldmia.w	sp!, {r4, r5, r6, r7, r8, r9, pc}

000d7238 <_GLOBAL__sub_I__ZN5spark7NetworkE>:
   d7238:	4b02      	ldr	r3, [pc, #8]	; (d7244 <_GLOBAL__sub_I__ZN5spark7NetworkE+0xc>)
   d723a:	4a03      	ldr	r2, [pc, #12]	; (d7248 <_GLOBAL__sub_I__ZN5spark7NetworkE+0x10>)
   d723c:	601a      	str	r2, [r3, #0]
   d723e:	2200      	movs	r2, #0
   d7240:	605a      	str	r2, [r3, #4]
   d7242:	4770      	bx	lr
   d7244:	2003e6ac 	.word	0x2003e6ac
   d7248:	000d9234 	.word	0x000d9234

000d724c <_ZN5Print5writeEPKhj>:

// Public Methods //////////////////////////////////////////////////////////////

/* default implementation: may be overridden */
size_t Print::write(const uint8_t *buffer, size_t size)
{
   d724c:	b5f8      	push	{r3, r4, r5, r6, r7, lr}
   d724e:	4606      	mov	r6, r0
   d7250:	460d      	mov	r5, r1
   d7252:	188f      	adds	r7, r1, r2
  size_t n = 0;
   d7254:	2400      	movs	r4, #0
  while (size--) {
   d7256:	42bd      	cmp	r5, r7
   d7258:	d00c      	beq.n	d7274 <_ZN5Print5writeEPKhj+0x28>
     int chunk = write(*buffer++);
   d725a:	6833      	ldr	r3, [r6, #0]
   d725c:	f815 1b01 	ldrb.w	r1, [r5], #1
   d7260:	689b      	ldr	r3, [r3, #8]
   d7262:	4630      	mov	r0, r6
   d7264:	4798      	blx	r3
     if (chunk>=0)
   d7266:	2800      	cmp	r0, #0
   d7268:	db01      	blt.n	d726e <_ZN5Print5writeEPKhj+0x22>
         n += chunk;
   d726a:	4404      	add	r4, r0

/* default implementation: may be overridden */
size_t Print::write(const uint8_t *buffer, size_t size)
{
  size_t n = 0;
  while (size--) {
   d726c:	e7f3      	b.n	d7256 <_ZN5Print5writeEPKhj+0xa>
     int chunk = write(*buffer++);
   d726e:	2c00      	cmp	r4, #0
   d7270:	bf08      	it	eq
   d7272:	4604      	moveq	r4, r0
             n = chunk;
         break;
     }
  }
  return n;
}
   d7274:	4620      	mov	r0, r4
   d7276:	bdf8      	pop	{r3, r4, r5, r6, r7, pc}

000d7278 <_ZN5Print5writeEPKc>:

    int getWriteError() { return write_error; }
    void clearWriteError() { setWriteError(0); }

    virtual size_t write(uint8_t) = 0;
    size_t write(const char *str) {
   d7278:	b570      	push	{r4, r5, r6, lr}
   d727a:	4605      	mov	r5, r0
      if (str == NULL) return 0;
   d727c:	460c      	mov	r4, r1
      return write((const uint8_t *)str, strlen(str));
    }
   d727e:	4608      	mov	r0, r1
    int getWriteError() { return write_error; }
    void clearWriteError() { setWriteError(0); }

    virtual size_t write(uint8_t) = 0;
    size_t write(const char *str) {
      if (str == NULL) return 0;
   d7280:	b149      	cbz	r1, d7296 <_ZN5Print5writeEPKc+0x1e>
      return write((const uint8_t *)str, strlen(str));
   d7282:	f001 fd18 	bl	d8cb6 <strlen>
   d7286:	682b      	ldr	r3, [r5, #0]
   d7288:	4602      	mov	r2, r0
   d728a:	4621      	mov	r1, r4
   d728c:	4628      	mov	r0, r5
   d728e:	68db      	ldr	r3, [r3, #12]
    }
   d7290:	e8bd 4070 	ldmia.w	sp!, {r4, r5, r6, lr}
    void clearWriteError() { setWriteError(0); }

    virtual size_t write(uint8_t) = 0;
    size_t write(const char *str) {
      if (str == NULL) return 0;
      return write((const uint8_t *)str, strlen(str));
   d7294:	4718      	bx	r3
    }
   d7296:	bd70      	pop	{r4, r5, r6, pc}

000d7298 <_ZN5Print5printEPKc>:
   d7298:	b508      	push	{r3, lr}
   d729a:	f7ff ffed 	bl	d7278 <_ZN5Print5writeEPKc>
   d729e:	bd08      	pop	{r3, pc}

000d72a0 <_ZN5Print5printEc>:
  return write(str);
}

size_t Print::print(char c)
{
  return write(c);
   d72a0:	6803      	ldr	r3, [r0, #0]
   d72a2:	689b      	ldr	r3, [r3, #8]
   d72a4:	4718      	bx	r3

000d72a6 <_ZN5Print7printlnEv>:
{
  return print(reinterpret_cast<const char*>(str));
}

size_t Print::println(void)
{
   d72a6:	b538      	push	{r3, r4, r5, lr}
  size_t n = print('\r');
   d72a8:	210d      	movs	r1, #13
{
  return print(reinterpret_cast<const char*>(str));
}

size_t Print::println(void)
{
   d72aa:	4605      	mov	r5, r0
  size_t n = print('\r');
   d72ac:	f7ff fff8 	bl	d72a0 <_ZN5Print5printEc>
  n += print('\n');
   d72b0:	210a      	movs	r1, #10
  return print(reinterpret_cast<const char*>(str));
}

size_t Print::println(void)
{
  size_t n = print('\r');
   d72b2:	4604      	mov	r4, r0
  n += print('\n');
   d72b4:	4628      	mov	r0, r5
   d72b6:	f7ff fff3 	bl	d72a0 <_ZN5Print5printEc>
  return n;
}
   d72ba:	4420      	add	r0, r4
   d72bc:	bd38      	pop	{r3, r4, r5, pc}

000d72be <_ZN5Print11printNumberEmh>:
  return println(reinterpret_cast<const char*>(str));
}

// Private Methods /////////////////////////////////////////////////////////////

size_t Print::printNumber(unsigned long n, uint8_t base) {
   d72be:	b530      	push	{r4, r5, lr}
   d72c0:	b08b      	sub	sp, #44	; 0x2c
   d72c2:	460b      	mov	r3, r1
  char buf[8 * sizeof(long) + 1]; // Assumes 8-bit chars plus zero byte.
  char *str = &buf[sizeof(buf) - 1];

  *str = '\0';
   d72c4:	2100      	movs	r1, #0
   d72c6:	f88d 1024 	strb.w	r1, [sp, #36]	; 0x24

  // prevent crash if called with base == 1
  if (base < 2) base = 10;
   d72ca:	2a01      	cmp	r2, #1
   d72cc:	bf98      	it	ls
   d72ce:	220a      	movls	r2, #10
   d72d0:	f10d 0423 	add.w	r4, sp, #35	; 0x23

  do {
    unsigned long m = n;
    n /= base;
   d72d4:	fbb3 f5f2 	udiv	r5, r3, r2
    char c = m - base * n;
   d72d8:	fb05 3312 	mls	r3, r5, r2, r3
   d72dc:	f003 03ff 	and.w	r3, r3, #255	; 0xff
    *--str = c < 10 ? c + '0' : c + 'A' - 10;
   d72e0:	2b09      	cmp	r3, #9
   d72e2:	bf94      	ite	ls
   d72e4:	3330      	addls	r3, #48	; 0x30
   d72e6:	3337      	addhi	r3, #55	; 0x37
   d72e8:	b2db      	uxtb	r3, r3
   d72ea:	4621      	mov	r1, r4
   d72ec:	f804 3901 	strb.w	r3, [r4], #-1
   d72f0:	462b      	mov	r3, r5
  *str = '\0';

  // prevent crash if called with base == 1
  if (base < 2) base = 10;

  do {
   d72f2:	2d00      	cmp	r5, #0
   d72f4:	d1ee      	bne.n	d72d4 <_ZN5Print11printNumberEmh+0x16>
    n /= base;
    char c = m - base * n;
    *--str = c < 10 ? c + '0' : c + 'A' - 10;
  } while(n);

  return write(str);
   d72f6:	f7ff ffbf 	bl	d7278 <_ZN5Print5writeEPKc>
}
   d72fa:	b00b      	add	sp, #44	; 0x2c
   d72fc:	bd30      	pop	{r4, r5, pc}

000d72fe <_ZN5Print5printEmi>:
    return printNumber(n, base);
  }
}

size_t Print::print(unsigned long n, int base)
{
   d72fe:	b410      	push	{r4}
  if (base == 0) return write(n);
   d7300:	b92a      	cbnz	r2, d730e <_ZN5Print5printEmi+0x10>
   d7302:	6803      	ldr	r3, [r0, #0]
  else return printNumber(n, base);
}
   d7304:	f85d 4b04 	ldr.w	r4, [sp], #4
  }
}

size_t Print::print(unsigned long n, int base)
{
  if (base == 0) return write(n);
   d7308:	689b      	ldr	r3, [r3, #8]
   d730a:	b2c9      	uxtb	r1, r1
   d730c:	4718      	bx	r3
  else return printNumber(n, base);
   d730e:	b2d2      	uxtb	r2, r2
}
   d7310:	f85d 4b04 	ldr.w	r4, [sp], #4
}

size_t Print::print(unsigned long n, int base)
{
  if (base == 0) return write(n);
  else return printNumber(n, base);
   d7314:	f7ff bfd3 	b.w	d72be <_ZN5Print11printNumberEmh>

000d7318 <_ZN5Print5printEhi>:
  return write(c);
}

size_t Print::print(unsigned char b, int base)
{
  return print((unsigned long) b, base);
   d7318:	f7ff bff1 	b.w	d72fe <_ZN5Print5printEmi>

000d731c <_ZN5Print7printlnEhi>:
  n += println();
  return n;
}

size_t Print::println(unsigned char b, int base)
{
   d731c:	b538      	push	{r3, r4, r5, lr}
   d731e:	4605      	mov	r5, r0
  return write(c);
}

size_t Print::print(unsigned char b, int base)
{
  return print((unsigned long) b, base);
   d7320:	f7ff ffed 	bl	d72fe <_ZN5Print5printEmi>
   d7324:	4604      	mov	r4, r0
}

size_t Print::println(unsigned char b, int base)
{
  size_t n = print(b, base);
  n += println();
   d7326:	4628      	mov	r0, r5
   d7328:	f7ff ffbd 	bl	d72a6 <_ZN5Print7printlnEv>
  return n;
}
   d732c:	4420      	add	r0, r4
   d732e:	bd38      	pop	{r3, r4, r5, pc}

000d7330 <_ZN5Print5printEli>:
{
  return print((unsigned long) n, base);
}

size_t Print::print(long n, int base)
{
   d7330:	e92d 41f0 	stmdb	sp!, {r4, r5, r6, r7, r8, lr}
   d7334:	4607      	mov	r7, r0
   d7336:	460e      	mov	r6, r1
  if (base == 0) {
   d7338:	4615      	mov	r5, r2
   d733a:	b92a      	cbnz	r2, d7348 <_ZN5Print5printEli+0x18>
    return write(n);
   d733c:	6803      	ldr	r3, [r0, #0]
   d733e:	b2c9      	uxtb	r1, r1
   d7340:	689b      	ldr	r3, [r3, #8]
    }
    return printNumber(n, 10);
  } else {
    return printNumber(n, base);
  }
}
   d7342:	e8bd 41f0 	ldmia.w	sp!, {r4, r5, r6, r7, r8, lr}
}

size_t Print::print(long n, int base)
{
  if (base == 0) {
    return write(n);
   d7346:	4718      	bx	r3
  } else if (base == 10) {
   d7348:	2a0a      	cmp	r2, #10
   d734a:	d102      	bne.n	d7352 <_ZN5Print5printEli+0x22>
    if (n < 0) {
   d734c:	2900      	cmp	r1, #0
   d734e:	da01      	bge.n	d7354 <_ZN5Print5printEli+0x24>
   d7350:	e004      	b.n	d735c <_ZN5Print5printEli+0x2c>
      n = -n;
      return printNumber(n, 10) + t;
    }
    return printNumber(n, 10);
  } else {
    return printNumber(n, base);
   d7352:	b2d2      	uxtb	r2, r2
  }
}
   d7354:	e8bd 41f0 	ldmia.w	sp!, {r4, r5, r6, r7, r8, lr}
      n = -n;
      return printNumber(n, 10) + t;
    }
    return printNumber(n, 10);
  } else {
    return printNumber(n, base);
   d7358:	f7ff bfb1 	b.w	d72be <_ZN5Print11printNumberEmh>
{
  if (base == 0) {
    return write(n);
  } else if (base == 10) {
    if (n < 0) {
      int t = print('-');
   d735c:	212d      	movs	r1, #45	; 0x2d
   d735e:	f7ff ff9f 	bl	d72a0 <_ZN5Print5printEc>
      n = -n;
      return printNumber(n, 10) + t;
   d7362:	462a      	mov	r2, r5
{
  if (base == 0) {
    return write(n);
  } else if (base == 10) {
    if (n < 0) {
      int t = print('-');
   d7364:	4604      	mov	r4, r0
      n = -n;
      return printNumber(n, 10) + t;
   d7366:	4271      	negs	r1, r6
   d7368:	4638      	mov	r0, r7
   d736a:	f7ff ffa8 	bl	d72be <_ZN5Print11printNumberEmh>
   d736e:	4420      	add	r0, r4
    }
    return printNumber(n, 10);
  } else {
    return printNumber(n, base);
  }
}
   d7370:	e8bd 81f0 	ldmia.w	sp!, {r4, r5, r6, r7, r8, pc}

000d7374 <_ZN5Print7printlnEli>:
  n += println();
  return n;
}

size_t Print::println(long num, int base)
{
   d7374:	b538      	push	{r3, r4, r5, lr}
   d7376:	4605      	mov	r5, r0
  size_t n = print(num, base);
   d7378:	f7ff ffda 	bl	d7330 <_ZN5Print5printEli>
   d737c:	4604      	mov	r4, r0
  n += println();
   d737e:	4628      	mov	r0, r5
   d7380:	f7ff ff91 	bl	d72a6 <_ZN5Print7printlnEv>
  return n;
}
   d7384:	4420      	add	r0, r4
   d7386:	bd38      	pop	{r3, r4, r5, pc}

000d7388 <_ZN5Print11printf_implEbPKcz>:

  return n;
}

size_t Print::printf_impl(bool newline, const char* format, ...)
{
   d7388:	b40c      	push	{r2, r3}
   d738a:	e92d 43f0 	stmdb	sp!, {r4, r5, r6, r7, r8, r9, lr}
   d738e:	b087      	sub	sp, #28
   d7390:	af00      	add	r7, sp, #0
   d7392:	f107 0438 	add.w	r4, r7, #56	; 0x38
   d7396:	4605      	mov	r5, r0
   d7398:	f854 9b04 	ldr.w	r9, [r4], #4
    const int bufsize = 20;
    char test[bufsize];
    va_list marker;
    va_start(marker, format);
   d739c:	603c      	str	r4, [r7, #0]

  return n;
}

size_t Print::printf_impl(bool newline, const char* format, ...)
{
   d739e:	460e      	mov	r6, r1
    const int bufsize = 20;
    char test[bufsize];
    va_list marker;
    va_start(marker, format);
    size_t n = vsnprintf(test, bufsize, format, marker);
   d73a0:	4623      	mov	r3, r4
   d73a2:	464a      	mov	r2, r9
   d73a4:	2114      	movs	r1, #20
   d73a6:	1d38      	adds	r0, r7, #4
   d73a8:	f7fe f95c 	bl	d5664 <vsnprintf>
    va_end(marker);

    if (n<bufsize)
   d73ac:	2813      	cmp	r0, #19
   d73ae:	d805      	bhi.n	d73bc <_ZN5Print11printf_implEbPKcz+0x34>
  return n;
}

size_t Print::print(const char str[])
{
  return write(str);
   d73b0:	1d39      	adds	r1, r7, #4
   d73b2:	4628      	mov	r0, r5
   d73b4:	f7ff ff60 	bl	d7278 <_ZN5Print5writeEPKc>
   d73b8:	4604      	mov	r4, r0
   d73ba:	e013      	b.n	d73e4 <_ZN5Print11printf_implEbPKcz+0x5c>
    {
        n = print(test);
    }
    else
    {
        char bigger[n+1];
   d73bc:	f100 0308 	add.w	r3, r0, #8
   d73c0:	f023 0307 	bic.w	r3, r3, #7
        va_start(marker, format);
        n = vsnprintf(bigger, n+1, format, marker);
        va_end(marker);
        n = print(bigger);
   d73c4:	46e8      	mov	r8, sp
    {
        n = print(test);
    }
    else
    {
        char bigger[n+1];
   d73c6:	ebad 0d03 	sub.w	sp, sp, r3
        va_start(marker, format);
        n = vsnprintf(bigger, n+1, format, marker);
   d73ca:	1c41      	adds	r1, r0, #1
   d73cc:	4623      	mov	r3, r4
   d73ce:	464a      	mov	r2, r9
   d73d0:	4668      	mov	r0, sp
        n = print(test);
    }
    else
    {
        char bigger[n+1];
        va_start(marker, format);
   d73d2:	603c      	str	r4, [r7, #0]
        n = vsnprintf(bigger, n+1, format, marker);
   d73d4:	f7fe f946 	bl	d5664 <vsnprintf>
  return n;
}

size_t Print::print(const char str[])
{
  return write(str);
   d73d8:	4669      	mov	r1, sp
   d73da:	4628      	mov	r0, r5
   d73dc:	f7ff ff4c 	bl	d7278 <_ZN5Print5writeEPKc>
   d73e0:	4604      	mov	r4, r0
   d73e2:	46c5      	mov	sp, r8
        va_start(marker, format);
        n = vsnprintf(bigger, n+1, format, marker);
        va_end(marker);
        n = print(bigger);
    }
    if (newline)
   d73e4:	b11e      	cbz	r6, d73ee <_ZN5Print11printf_implEbPKcz+0x66>
        n += println();
   d73e6:	4628      	mov	r0, r5
   d73e8:	f7ff ff5d 	bl	d72a6 <_ZN5Print7printlnEv>
   d73ec:	4404      	add	r4, r0
    return n;
}
   d73ee:	4620      	mov	r0, r4
   d73f0:	371c      	adds	r7, #28
   d73f2:	46bd      	mov	sp, r7
   d73f4:	e8bd 43f0 	ldmia.w	sp!, {r4, r5, r6, r7, r8, r9, lr}
   d73f8:	b002      	add	sp, #8
   d73fa:	4770      	bx	lr

000d73fc <_ZN8RGBClassD1Ev>:
#include "rgbled.h"

typedef void (raw_rgb_change_handler_t)(uint8_t, uint8_t, uint8_t);
typedef std::function<raw_rgb_change_handler_t> wiring_rgb_change_handler_t;

class RGBClass {
   d73fc:	b510      	push	{r4, lr}
   d73fe:	4604      	mov	r4, r0
   *  @ingroup functors
   *
   *  Polymorphic function wrapper.
   */
  template<typename _Res, typename... _ArgTypes>
    class function<_Res(_ArgTypes...)>
   d7400:	f7ff f9d5 	bl	d67ae <_ZNSt14_Function_baseD1Ev>
   d7404:	4620      	mov	r0, r4
   d7406:	bd10      	pop	{r4, pc}

000d7408 <_GLOBAL__sub_I_RGB>:
	{
	  _Base::_M_init_functor(__functor, std::__addressof(__f.get()));
	}
      };

    _Function_base() : _M_manager(nullptr) { }
   d7408:	4803      	ldr	r0, [pc, #12]	; (d7418 <_GLOBAL__sub_I_RGB+0x10>)
#include "spark_wiring_rgb.h"
#include "spark_wiring_interrupts.h"

#include "core_hal.h"

RGBClass RGB;
   d740a:	4a04      	ldr	r2, [pc, #16]	; (d741c <_GLOBAL__sub_I_RGB+0x14>)
   d740c:	4904      	ldr	r1, [pc, #16]	; (d7420 <_GLOBAL__sub_I_RGB+0x18>)
   d740e:	2300      	movs	r3, #0
   d7410:	6083      	str	r3, [r0, #8]
   d7412:	f000 bbe7 	b.w	d7be4 <__aeabi_atexit>
   d7416:	bf00      	nop
   d7418:	2003e6b4 	.word	0x2003e6b4
   d741c:	2003e450 	.word	0x2003e450
   d7420:	000d73fd 	.word	0x000d73fd

000d7424 <_ZN8SPIClassD1Ev>:
  Mutex mutex_;
#endif

public:
  SPIClass(HAL_SPI_Interface spi);
  virtual ~SPIClass() {};
   d7424:	4770      	bx	lr

000d7426 <_ZN8SPIClassD0Ev>:
   d7426:	b510      	push	{r4, lr}
   d7428:	2110      	movs	r1, #16
   d742a:	4604      	mov	r4, r0
   d742c:	f000 fbdf 	bl	d7bee <_ZdlPvj>
   d7430:	4620      	mov	r0, r4
   d7432:	bd10      	pop	{r4, pc}

000d7434 <_ZN8SPIClassC1E17HAL_SPI_Interface>:
  if (!info->enabled || info->default_settings)
    return particle::__SPISettings();
  return particle::__SPISettings(info->clock, info->bit_order, info->data_mode);
}

SPIClass::SPIClass(HAL_SPI_Interface spi)
   d7434:	b570      	push	{r4, r5, r6, lr}
   d7436:	4b08      	ldr	r3, [pc, #32]	; (d7458 <_ZN8SPIClassC1E17HAL_SPI_Interface+0x24>)
   d7438:	6003      	str	r3, [r0, #0]
   d743a:	4604      	mov	r4, r0
    Mutex(os_mutex_t handle) : handle_(handle) {}

    /**
     * Creates a new mutex.
     */
    Mutex() : handle_(nullptr)
   d743c:	2500      	movs	r5, #0
   d743e:	460e      	mov	r6, r1
   d7440:	f840 5f0c 	str.w	r5, [r0, #12]!
    {
        os_mutex_create(&handle_);
   d7444:	f7fd fed8 	bl	d51f8 <os_mutex_create>
{
  _spi = spi;
  HAL_SPI_Init(_spi);
   d7448:	4630      	mov	r0, r6
  return particle::__SPISettings(info->clock, info->bit_order, info->data_mode);
}

SPIClass::SPIClass(HAL_SPI_Interface spi)
{
  _spi = spi;
   d744a:	7126      	strb	r6, [r4, #4]
  HAL_SPI_Init(_spi);
   d744c:	f7fd ff9c 	bl	d5388 <HAL_SPI_Init>
  dividerReference = SPI_CLK_SYSTEM;     // 0 indicates the system clock
   d7450:	60a5      	str	r5, [r4, #8]
}
   d7452:	4620      	mov	r0, r4
   d7454:	bd70      	pop	{r4, r5, r6, pc}
   d7456:	bf00      	nop
   d7458:	000d9268 	.word	0x000d9268

000d745c <_ZN8SPIClass9isEnabledEv>:
  //To Do
}

bool SPIClass::isEnabled()
{
  return HAL_SPI_Is_Enabled(_spi);
   d745c:	7900      	ldrb	r0, [r0, #4]
   d745e:	f7fd bf9b 	b.w	d5398 <HAL_SPI_Is_Enabled>
	...

000d7464 <_Z4dtoadhPc>:
#include "string_convert.h"

//These are very crude implementations - will refine later
//------------------------------------------------------------------------------------------

void dtoa (double val, unsigned char prec, char *sout) {
   d7464:	e92d 4ff1 	stmdb	sp!, {r0, r4, r5, r6, r7, r8, r9, sl, fp, lr}
   d7468:	ec59 8b10 	vmov	r8, r9, d0
   d746c:	4607      	mov	r7, r0
   d746e:	460e      	mov	r6, r1
    bool negative = val<0;
    if (negative) {
   d7470:	2200      	movs	r2, #0
   d7472:	2300      	movs	r3, #0
   d7474:	ee10 0a10 	vmov	r0, s0
   d7478:	4649      	mov	r1, r9
   d747a:	f001 f92f 	bl	d86dc <__aeabi_dcmplt>
   d747e:	b128      	cbz	r0, d748c <_Z4dtoadhPc+0x28>
        val = -val;
   d7480:	f109 4300 	add.w	r3, r9, #2147483648	; 0x80000000
   d7484:	4699      	mov	r9, r3
        *sout++ = '-';
   d7486:	232d      	movs	r3, #45	; 0x2d
   d7488:	7033      	strb	r3, [r6, #0]
   d748a:	3601      	adds	r6, #1
   d748c:	2300      	movs	r3, #0
    }
    long scale = 1;
   d748e:	2401      	movs	r4, #1
    for (uint8_t i=0; i<prec; i++)
        scale *= 10;
   d7490:	220a      	movs	r2, #10
    if (negative) {
        val = -val;
        *sout++ = '-';
    }
    long scale = 1;
    for (uint8_t i=0; i<prec; i++)
   d7492:	b2d9      	uxtb	r1, r3
   d7494:	428f      	cmp	r7, r1
   d7496:	d902      	bls.n	d749e <_Z4dtoadhPc+0x3a>
        scale *= 10;
   d7498:	4354      	muls	r4, r2
   d749a:	3301      	adds	r3, #1
    if (negative) {
        val = -val;
        *sout++ = '-';
    }
    long scale = 1;
    for (uint8_t i=0; i<prec; i++)
   d749c:	e7f9      	b.n	d7492 <_Z4dtoadhPc+0x2e>
        scale *= 10;
    val *= scale;   // capture all the significant digits
   d749e:	4620      	mov	r0, r4
   d74a0:	f000 fe44 	bl	d812c <__aeabi_i2d>
   d74a4:	4642      	mov	r2, r8
   d74a6:	464b      	mov	r3, r9
   d74a8:	f000 fea6 	bl	d81f8 <__aeabi_dmul>
   d74ac:	4682      	mov	sl, r0
   d74ae:	468b      	mov	fp, r1
    uint64_t fixed = uint64_t(val);
   d74b0:	f001 f9c4 	bl	d883c <__aeabi_d2ulz>
   d74b4:	4680      	mov	r8, r0
   d74b6:	4689      	mov	r9, r1
    if ((val-fixed)>=0.5)    // round last digit
   d74b8:	f000 fe68 	bl	d818c <__aeabi_ul2d>
   d74bc:	4602      	mov	r2, r0
   d74be:	460b      	mov	r3, r1
   d74c0:	4650      	mov	r0, sl
   d74c2:	4659      	mov	r1, fp
   d74c4:	f000 fce4 	bl	d7e90 <__aeabi_dsub>
   d74c8:	2200      	movs	r2, #0
   d74ca:	4b17      	ldr	r3, [pc, #92]	; (d7528 <_Z4dtoadhPc+0xc4>)
   d74cc:	f001 f91a 	bl	d8704 <__aeabi_dcmpge>
   d74d0:	b118      	cbz	r0, d74da <_Z4dtoadhPc+0x76>
        fixed++;
   d74d2:	f118 0801 	adds.w	r8, r8, #1
   d74d6:	f149 0900 	adc.w	r9, r9, #0

    unsigned long first = (unsigned long)(fixed / scale);
   d74da:	17e5      	asrs	r5, r4, #31
    unsigned long second = (unsigned long)(fixed % scale);

    ultoa(first, sout, 10, 1);
   d74dc:	4622      	mov	r2, r4
   d74de:	462b      	mov	r3, r5
   d74e0:	4640      	mov	r0, r8
   d74e2:	4649      	mov	r1, r9
   d74e4:	f001 f992 	bl	d880c <__aeabi_uldivmod>
   d74e8:	2301      	movs	r3, #1
   d74ea:	220a      	movs	r2, #10
   d74ec:	4631      	mov	r1, r6
   d74ee:	f000 fa3e 	bl	d796e <ultoa>
    if (prec) {
   d74f2:	b1af      	cbz	r7, d7520 <_Z4dtoadhPc+0xbc>
        sout += strlen(sout);
   d74f4:	4630      	mov	r0, r6
   d74f6:	f001 fbde 	bl	d8cb6 <strlen>
        *sout++ = '.';
   d74fa:	232e      	movs	r3, #46	; 0x2e
   d74fc:	5433      	strb	r3, [r6, r0]
        ultoa(second, sout, 10, prec);
   d74fe:	3001      	adds	r0, #1
   d7500:	4406      	add	r6, r0
   d7502:	4622      	mov	r2, r4
   d7504:	462b      	mov	r3, r5
   d7506:	4640      	mov	r0, r8
   d7508:	4649      	mov	r1, r9
   d750a:	f001 f97f 	bl	d880c <__aeabi_uldivmod>
   d750e:	463b      	mov	r3, r7
   d7510:	4610      	mov	r0, r2
   d7512:	4631      	mov	r1, r6
   d7514:	220a      	movs	r2, #10
    }
}
   d7516:	b001      	add	sp, #4
   d7518:	e8bd 4ff0 	ldmia.w	sp!, {r4, r5, r6, r7, r8, r9, sl, fp, lr}

    ultoa(first, sout, 10, 1);
    if (prec) {
        sout += strlen(sout);
        *sout++ = '.';
        ultoa(second, sout, 10, prec);
   d751c:	f000 ba27 	b.w	d796e <ultoa>
    }
}
   d7520:	b001      	add	sp, #4
   d7522:	e8bd 8ff0 	ldmia.w	sp!, {r4, r5, r6, r7, r8, r9, sl, fp, pc}
   d7526:	bf00      	nop
   d7528:	3fe00000 	.word	0x3fe00000

000d752c <_ZN6StringD1Ev>:
	init();
	char buf[33];
	dtoa(value, decimalPlaces, buf);
        *this = buf;
}
String::~String()
   d752c:	b510      	push	{r4, lr}
   d752e:	4604      	mov	r4, r0
{
	free(buffer);
   d7530:	6800      	ldr	r0, [r0, #0]
   d7532:	f7fe f887 	bl	d5644 <free>
}
   d7536:	4620      	mov	r0, r4
   d7538:	bd10      	pop	{r4, pc}

000d753a <_ZN6String10invalidateEv>:
	len = 0;
	flags = 0;
}

void String::invalidate(void)
{
   d753a:	b510      	push	{r4, lr}
   d753c:	4604      	mov	r4, r0
	if (buffer) free(buffer);
   d753e:	6800      	ldr	r0, [r0, #0]
   d7540:	b108      	cbz	r0, d7546 <_ZN6String10invalidateEv+0xc>
   d7542:	f7fe f87f 	bl	d5644 <free>
	buffer = NULL;
   d7546:	2300      	movs	r3, #0
   d7548:	6023      	str	r3, [r4, #0]
	capacity = len = 0;
   d754a:	60a3      	str	r3, [r4, #8]
   d754c:	6063      	str	r3, [r4, #4]
   d754e:	bd10      	pop	{r4, pc}

000d7550 <_ZN6String12changeBufferEj>:
	}
	return 0;
}

unsigned char String::changeBuffer(unsigned int maxStrLen)
{
   d7550:	b538      	push	{r3, r4, r5, lr}
   d7552:	4604      	mov	r4, r0
   d7554:	460d      	mov	r5, r1
	char *newbuffer = (char *)realloc(buffer, maxStrLen + 1);
   d7556:	6800      	ldr	r0, [r0, #0]
   d7558:	3101      	adds	r1, #1
   d755a:	f7fe f87b 	bl	d5654 <realloc>
	if (newbuffer) {
   d755e:	b110      	cbz	r0, d7566 <_ZN6String12changeBufferEj+0x16>
		buffer = newbuffer;
		capacity = maxStrLen;
   d7560:	e884 0021 	stmia.w	r4, {r0, r5}
		return 1;
   d7564:	2001      	movs	r0, #1
	}
	return 0;
}
   d7566:	bd38      	pop	{r3, r4, r5, pc}

000d7568 <_ZN6String7reserveEj>:
	buffer = NULL;
	capacity = len = 0;
}

unsigned char String::reserve(unsigned int size)
{
   d7568:	b510      	push	{r4, lr}
	if (buffer && capacity >= size) return 1;
   d756a:	6803      	ldr	r3, [r0, #0]
	buffer = NULL;
	capacity = len = 0;
}

unsigned char String::reserve(unsigned int size)
{
   d756c:	4604      	mov	r4, r0
	if (buffer && capacity >= size) return 1;
   d756e:	b113      	cbz	r3, d7576 <_ZN6String7reserveEj+0xe>
   d7570:	6843      	ldr	r3, [r0, #4]
   d7572:	428b      	cmp	r3, r1
   d7574:	d207      	bcs.n	d7586 <_ZN6String7reserveEj+0x1e>
	if (changeBuffer(size)) {
   d7576:	4620      	mov	r0, r4
   d7578:	f7ff ffea 	bl	d7550 <_ZN6String12changeBufferEj>
   d757c:	b120      	cbz	r0, d7588 <_ZN6String7reserveEj+0x20>
		if (len == 0) buffer[0] = 0;
   d757e:	68a3      	ldr	r3, [r4, #8]
   d7580:	b90b      	cbnz	r3, d7586 <_ZN6String7reserveEj+0x1e>
   d7582:	6822      	ldr	r2, [r4, #0]
   d7584:	7013      	strb	r3, [r2, #0]
   d7586:	2001      	movs	r0, #1
		return 1;
	}
	return 0;
}
   d7588:	bd10      	pop	{r4, pc}

000d758a <_ZN6String4copyEPKcj>:
/*********************************************/
/*  Copy and Move                            */
/*********************************************/

String & String::copy(const char *cstr, unsigned int length)
{
   d758a:	b570      	push	{r4, r5, r6, lr}
   d758c:	460e      	mov	r6, r1
	if (!reserve(length)) {
   d758e:	4611      	mov	r1, r2
/*********************************************/
/*  Copy and Move                            */
/*********************************************/

String & String::copy(const char *cstr, unsigned int length)
{
   d7590:	4604      	mov	r4, r0
   d7592:	4615      	mov	r5, r2
	if (!reserve(length)) {
   d7594:	f7ff ffe8 	bl	d7568 <_ZN6String7reserveEj>
   d7598:	b918      	cbnz	r0, d75a2 <_ZN6String4copyEPKcj+0x18>
		invalidate();
   d759a:	4620      	mov	r0, r4
   d759c:	f7ff ffcd 	bl	d753a <_ZN6String10invalidateEv>
		return *this;
   d75a0:	e009      	b.n	d75b6 <_ZN6String4copyEPKcj+0x2c>
	}
	len = length;
	memcpy(buffer, cstr, length);
   d75a2:	462a      	mov	r2, r5
   d75a4:	4631      	mov	r1, r6
{
	if (!reserve(length)) {
		invalidate();
		return *this;
	}
	len = length;
   d75a6:	60a5      	str	r5, [r4, #8]
	memcpy(buffer, cstr, length);
   d75a8:	6820      	ldr	r0, [r4, #0]
   d75aa:	f001 fb04 	bl	d8bb6 <memcpy>
	buffer[len] = 0;
   d75ae:	6822      	ldr	r2, [r4, #0]
   d75b0:	68a3      	ldr	r3, [r4, #8]
   d75b2:	2100      	movs	r1, #0
   d75b4:	54d1      	strb	r1, [r2, r3]
	return *this;
}
   d75b6:	4620      	mov	r0, r4
   d75b8:	bd70      	pop	{r4, r5, r6, pc}

000d75ba <_ZN6StringC1EPK19__FlashStringHelper>:
{
	init();
	*this = value;
}

String::String(const __FlashStringHelper *pstr)
   d75ba:	b538      	push	{r3, r4, r5, lr}
/*  Memory Management                        */
/*********************************************/

inline void String::init(void)
{
	buffer = NULL;
   d75bc:	2300      	movs	r3, #0
{
	init();
	*this = value;
}

String::String(const __FlashStringHelper *pstr)
   d75be:	4604      	mov	r4, r0
/*  Memory Management                        */
/*********************************************/

inline void String::init(void)
{
	buffer = NULL;
   d75c0:	6003      	str	r3, [r0, #0]
	capacity = 0;
   d75c2:	6043      	str	r3, [r0, #4]
	len = 0;
   d75c4:	6083      	str	r3, [r0, #8]
	flags = 0;
   d75c6:	7303      	strb	r3, [r0, #12]

String::String(const __FlashStringHelper *pstr)
{
	init();
	const char* cstr = reinterpret_cast<const char*>(pstr);
	if (cstr) copy(cstr, strlen(cstr));
   d75c8:	460d      	mov	r5, r1
   d75ca:	b139      	cbz	r1, d75dc <_ZN6StringC1EPK19__FlashStringHelper+0x22>
   d75cc:	4608      	mov	r0, r1
   d75ce:	f001 fb72 	bl	d8cb6 <strlen>
   d75d2:	4629      	mov	r1, r5
   d75d4:	4602      	mov	r2, r0
   d75d6:	4620      	mov	r0, r4
   d75d8:	f7ff ffd7 	bl	d758a <_ZN6String4copyEPKcj>
}
   d75dc:	4620      	mov	r0, r4
   d75de:	bd38      	pop	{r3, r4, r5, pc}

000d75e0 <_ZN6StringaSERKS_>:
}
#endif

String & String::operator = (const String &rhs)
{
	if (this == &rhs) return *this;
   d75e0:	4288      	cmp	r0, r1
	rhs.len = 0;
}
#endif

String & String::operator = (const String &rhs)
{
   d75e2:	b510      	push	{r4, lr}
   d75e4:	460b      	mov	r3, r1
   d75e6:	4604      	mov	r4, r0
	if (this == &rhs) return *this;
   d75e8:	d007      	beq.n	d75fa <_ZN6StringaSERKS_+0x1a>

	if (rhs.buffer) copy(rhs.buffer, rhs.len);
   d75ea:	6809      	ldr	r1, [r1, #0]
   d75ec:	b119      	cbz	r1, d75f6 <_ZN6StringaSERKS_+0x16>
   d75ee:	689a      	ldr	r2, [r3, #8]
   d75f0:	f7ff ffcb 	bl	d758a <_ZN6String4copyEPKcj>
   d75f4:	e001      	b.n	d75fa <_ZN6StringaSERKS_+0x1a>
	else invalidate();
   d75f6:	f7ff ffa0 	bl	d753a <_ZN6String10invalidateEv>

	return *this;
}
   d75fa:	4620      	mov	r0, r4
   d75fc:	bd10      	pop	{r4, pc}

000d75fe <_ZN6StringC1ERKS_>:
{
	init();
	if (cstr) copy(cstr, length);
}

String::String(const String &value)
   d75fe:	b510      	push	{r4, lr}
/*  Memory Management                        */
/*********************************************/

inline void String::init(void)
{
	buffer = NULL;
   d7600:	2300      	movs	r3, #0
{
	init();
	if (cstr) copy(cstr, length);
}

String::String(const String &value)
   d7602:	4604      	mov	r4, r0
/*  Memory Management                        */
/*********************************************/

inline void String::init(void)
{
	buffer = NULL;
   d7604:	6003      	str	r3, [r0, #0]
	capacity = 0;
   d7606:	6043      	str	r3, [r0, #4]
	len = 0;
   d7608:	6083      	str	r3, [r0, #8]
	flags = 0;
   d760a:	7303      	strb	r3, [r0, #12]
}

String::String(const String &value)
{
	init();
	*this = value;
   d760c:	f7ff ffe8 	bl	d75e0 <_ZN6StringaSERKS_>
}
   d7610:	4620      	mov	r0, r4
   d7612:	bd10      	pop	{r4, pc}

000d7614 <_ZN6StringaSEPKc>:
	return *this;
}
#endif

String & String::operator = (const char *cstr)
{
   d7614:	b538      	push	{r3, r4, r5, lr}
   d7616:	4605      	mov	r5, r0
	if (cstr) copy(cstr, strlen(cstr));
   d7618:	460c      	mov	r4, r1
   d761a:	b141      	cbz	r1, d762e <_ZN6StringaSEPKc+0x1a>
   d761c:	4608      	mov	r0, r1
   d761e:	f001 fb4a 	bl	d8cb6 <strlen>
   d7622:	4621      	mov	r1, r4
   d7624:	4602      	mov	r2, r0
   d7626:	4628      	mov	r0, r5
   d7628:	f7ff ffaf 	bl	d758a <_ZN6String4copyEPKcj>
   d762c:	e001      	b.n	d7632 <_ZN6StringaSEPKc+0x1e>
	else invalidate();
   d762e:	f7ff ff84 	bl	d753a <_ZN6String10invalidateEv>

	return *this;
}
   d7632:	4628      	mov	r0, r5
   d7634:	bd38      	pop	{r3, r4, r5, pc}

000d7636 <_ZN6StringC1Edi>:
	char buf[33];
	dtoa(value, decimalPlaces, buf);
        *this = buf;
}

String::String(double value, int decimalPlaces)
   d7636:	b510      	push	{r4, lr}
/*  Memory Management                        */
/*********************************************/

inline void String::init(void)
{
	buffer = NULL;
   d7638:	2300      	movs	r3, #0
	char buf[33];
	dtoa(value, decimalPlaces, buf);
        *this = buf;
}

String::String(double value, int decimalPlaces)
   d763a:	b08a      	sub	sp, #40	; 0x28
   d763c:	4604      	mov	r4, r0
/*  Memory Management                        */
/*********************************************/

inline void String::init(void)
{
	buffer = NULL;
   d763e:	6003      	str	r3, [r0, #0]
	capacity = 0;
   d7640:	6043      	str	r3, [r0, #4]
	len = 0;
   d7642:	6083      	str	r3, [r0, #8]
	flags = 0;
   d7644:	7303      	strb	r3, [r0, #12]

String::String(double value, int decimalPlaces)
{
	init();
	char buf[33];
	dtoa(value, decimalPlaces, buf);
   d7646:	b2c8      	uxtb	r0, r1
   d7648:	a901      	add	r1, sp, #4
   d764a:	f7ff ff0b 	bl	d7464 <_Z4dtoadhPc>
        *this = buf;
   d764e:	a901      	add	r1, sp, #4
   d7650:	4620      	mov	r0, r4
   d7652:	f7ff ffdf 	bl	d7614 <_ZN6StringaSEPKc>
}
   d7656:	4620      	mov	r0, r4
   d7658:	b00a      	add	sp, #40	; 0x28
   d765a:	bd10      	pop	{r4, pc}

000d765c <_GLOBAL__sub_I_System>:
    WAKEUP_REASON_RTC = 2,
    WAKEUP_REASON_PIN_OR_RTC = 3
};

struct SleepResult {
    SleepResult() {}
   d765c:	4b04      	ldr	r3, [pc, #16]	; (d7670 <_GLOBAL__sub_I_System+0x14>)
   d765e:	2000      	movs	r0, #0
   d7660:	f64f 72ff 	movw	r2, #65535	; 0xffff
   d7664:	7018      	strb	r0, [r3, #0]
   d7666:	8058      	strh	r0, [r3, #2]
   d7668:	809a      	strh	r2, [r3, #4]

class SystemClass {
public:

    SystemClass(System_Mode_TypeDef mode = DEFAULT) {
        set_system_mode(mode);
   d766a:	f7fd bf25 	b.w	d54b8 <set_system_mode>
   d766e:	bf00      	nop
   d7670:	2003e6c4 	.word	0x2003e6c4

000d7674 <_GLOBAL__sub_I_TIME_FORMAT_DEFAULT>:
            calendar_time_cache = Convert_UnixTime_To_CalendarTime(unix_time);
            unix_time_cache = unix_time;
    }
}

const char* TimeClass::format_spec = TIME_FORMAT_DEFAULT;
   d7674:	4b02      	ldr	r3, [pc, #8]	; (d7680 <_GLOBAL__sub_I_TIME_FORMAT_DEFAULT+0xc>)
   d7676:	681a      	ldr	r2, [r3, #0]
   d7678:	4b02      	ldr	r3, [pc, #8]	; (d7684 <_GLOBAL__sub_I_TIME_FORMAT_DEFAULT+0x10>)
   d767a:	601a      	str	r2, [r3, #0]
   d767c:	4770      	bx	lr
   d767e:	bf00      	nop
   d7680:	2003e3e8 	.word	0x2003e3e8
   d7684:	2003e6cc 	.word	0x2003e6cc

000d7688 <_ZN11USARTSerialD1Ev>:
private:
  HAL_USART_Serial _serial;
  bool _blocking;
public:
  USARTSerial(HAL_USART_Serial serial, Ring_Buffer *rx_buffer, Ring_Buffer *tx_buffer);
  virtual ~USARTSerial() {};
   d7688:	4770      	bx	lr

000d768a <_ZN11USARTSerial14blockOnOverrunEb>:
    HAL_USART_Half_Duplex(_serial, Enable);
}

void USARTSerial::blockOnOverrun(bool block)
{
  _blocking = block;
   d768a:	7441      	strb	r1, [r0, #17]
   d768c:	4770      	bx	lr

000d768e <_ZN11USARTSerial17availableForWriteEv>:
}


int USARTSerial::availableForWrite(void)
{
   d768e:	b508      	push	{r3, lr}
  return std::max(0, (int)HAL_USART_Available_Data_For_Write(_serial));
   d7690:	7c00      	ldrb	r0, [r0, #16]
   d7692:	f7fd fec1 	bl	d5418 <HAL_USART_Available_Data_For_Write>
}
   d7696:	ea20 70e0 	bic.w	r0, r0, r0, asr #31
   d769a:	bd08      	pop	{r3, pc}

000d769c <_ZN11USARTSerial9availableEv>:

int USARTSerial::available(void)
{
   d769c:	b508      	push	{r3, lr}
  return std::max(0, (int)HAL_USART_Available_Data(_serial));
   d769e:	7c00      	ldrb	r0, [r0, #16]
   d76a0:	f7fd fe92 	bl	d53c8 <HAL_USART_Available_Data>
}
   d76a4:	ea20 70e0 	bic.w	r0, r0, r0, asr #31
   d76a8:	bd08      	pop	{r3, pc}

000d76aa <_ZN11USARTSerial4peekEv>:

int USARTSerial::peek(void)
{
   d76aa:	b508      	push	{r3, lr}
  return std::max(-1, (int)HAL_USART_Peek_Data(_serial));
   d76ac:	7c00      	ldrb	r0, [r0, #16]
   d76ae:	f7fd fe9b 	bl	d53e8 <HAL_USART_Peek_Data>
}
   d76b2:	ea30 0020 	bics.w	r0, r0, r0, asr #32
   d76b6:	bf28      	it	cs
   d76b8:	f04f 30ff 	movcs.w	r0, #4294967295	; 0xffffffff
   d76bc:	bd08      	pop	{r3, pc}

000d76be <_ZN11USARTSerial4readEv>:

int USARTSerial::read(void)
{
   d76be:	b508      	push	{r3, lr}
  return std::max(-1, (int)HAL_USART_Read_Data(_serial));
   d76c0:	7c00      	ldrb	r0, [r0, #16]
   d76c2:	f7fd fe89 	bl	d53d8 <HAL_USART_Read_Data>
}
   d76c6:	ea30 0020 	bics.w	r0, r0, r0, asr #32
   d76ca:	bf28      	it	cs
   d76cc:	f04f 30ff 	movcs.w	r0, #4294967295	; 0xffffffff
   d76d0:	bd08      	pop	{r3, pc}

000d76d2 <_ZN11USARTSerial5flushEv>:

void USARTSerial::flush()
{
  HAL_USART_Flush_Data(_serial);
   d76d2:	7c00      	ldrb	r0, [r0, #16]
   d76d4:	f7fd be90 	b.w	d53f8 <HAL_USART_Flush_Data>

000d76d8 <_ZN11USARTSerialD0Ev>:
   d76d8:	b510      	push	{r4, lr}
   d76da:	2114      	movs	r1, #20
   d76dc:	4604      	mov	r4, r0
   d76de:	f000 fa86 	bl	d7bee <_ZdlPvj>
   d76e2:	4620      	mov	r0, r4
   d76e4:	bd10      	pop	{r4, pc}

000d76e6 <_ZN11USARTSerial5writeEh>:
}

size_t USARTSerial::write(uint8_t c)
{
   d76e6:	b570      	push	{r4, r5, r6, lr}
  // attempt a write if blocking, or for non-blocking if there is room.
  if (_blocking || HAL_USART_Available_Data_For_Write(_serial) > 0) {
   d76e8:	7c45      	ldrb	r5, [r0, #17]
{
  HAL_USART_Flush_Data(_serial);
}

size_t USARTSerial::write(uint8_t c)
{
   d76ea:	4604      	mov	r4, r0
   d76ec:	460e      	mov	r6, r1
  // attempt a write if blocking, or for non-blocking if there is room.
  if (_blocking || HAL_USART_Available_Data_For_Write(_serial) > 0) {
   d76ee:	b925      	cbnz	r5, d76fa <_ZN11USARTSerial5writeEh+0x14>
   d76f0:	7c00      	ldrb	r0, [r0, #16]
   d76f2:	f7fd fe91 	bl	d5418 <HAL_USART_Available_Data_For_Write>
   d76f6:	2800      	cmp	r0, #0
   d76f8:	dd05      	ble.n	d7706 <_ZN11USARTSerial5writeEh+0x20>
    // the HAL always blocks.
	  return HAL_USART_Write_Data(_serial, c);
   d76fa:	4631      	mov	r1, r6
   d76fc:	7c20      	ldrb	r0, [r4, #16]
  }
  return 0;
}
   d76fe:	e8bd 4070 	ldmia.w	sp!, {r4, r5, r6, lr}
size_t USARTSerial::write(uint8_t c)
{
  // attempt a write if blocking, or for non-blocking if there is room.
  if (_blocking || HAL_USART_Available_Data_For_Write(_serial) > 0) {
    // the HAL always blocks.
	  return HAL_USART_Write_Data(_serial, c);
   d7702:	f7fd be59 	b.w	d53b8 <HAL_USART_Write_Data>
  }
  return 0;
}
   d7706:	4628      	mov	r0, r5
   d7708:	bd70      	pop	{r4, r5, r6, pc}
	...

000d770c <_ZN11USARTSerialC1E16HAL_USART_SerialP11Ring_BufferS2_>:
#include "spark_wiring_constants.h"
#include "module_info.h"

// Constructors ////////////////////////////////////////////////////////////////

USARTSerial::USARTSerial(HAL_USART_Serial serial, Ring_Buffer *rx_buffer, Ring_Buffer *tx_buffer)
   d770c:	b510      	push	{r4, lr}
   d770e:	4604      	mov	r4, r0
   d7710:	4608      	mov	r0, r1
   d7712:	4611      	mov	r1, r2
  protected:
    void setWriteError(int err = 1) { write_error = err; }
    size_t printf_impl(bool newline, const char* format, ...);

  public:
    Print() : write_error(0) {}
   d7714:	2200      	movs	r2, #0
   d7716:	6062      	str	r2, [r4, #4]
   d7718:	f44f 727a 	mov.w	r2, #1000	; 0x3e8
   d771c:	60a2      	str	r2, [r4, #8]
   d771e:	4a05      	ldr	r2, [pc, #20]	; (d7734 <_ZN11USARTSerialC1E16HAL_USART_SerialP11Ring_BufferS2_+0x28>)
   d7720:	6022      	str	r2, [r4, #0]
{
  _serial = serial;
  // Default is blocking mode
  _blocking = true;
   d7722:	2201      	movs	r2, #1

// Constructors ////////////////////////////////////////////////////////////////

USARTSerial::USARTSerial(HAL_USART_Serial serial, Ring_Buffer *rx_buffer, Ring_Buffer *tx_buffer)
{
  _serial = serial;
   d7724:	7420      	strb	r0, [r4, #16]
  // Default is blocking mode
  _blocking = true;
   d7726:	7462      	strb	r2, [r4, #17]
  HAL_USART_Init(serial, rx_buffer, tx_buffer);
   d7728:	461a      	mov	r2, r3
   d772a:	f7fd fe3d 	bl	d53a8 <HAL_USART_Init>
}
   d772e:	4620      	mov	r0, r4
   d7730:	bd10      	pop	{r4, pc}
   d7732:	bf00      	nop
   d7734:	000d92a4 	.word	0x000d92a4

000d7738 <_ZN11USARTSerial9isEnabledEv>:
USARTSerial::operator bool() {
  return true;
}

bool USARTSerial::isEnabled() {
  return HAL_USART_Is_Enabled(_serial);
   d7738:	7c00      	ldrb	r0, [r0, #16]
   d773a:	f7fd be65 	b.w	d5408 <HAL_USART_Is_Enabled>
	...

000d7740 <_Z22__fetch_global_Serial1v>:
static Ring_Buffer* serial1_rx_buffer = NULL;
static Ring_Buffer* serial1_tx_buffer = NULL;
#endif

USARTSerial& __fetch_global_Serial1()
{
   d7740:	b5f8      	push	{r3, r4, r5, r6, r7, lr}
#if ((MODULE_FUNCTION == MOD_FUNC_USER_PART) || (MODULE_FUNCTION == MOD_FUNC_MONO_FIRMWARE))
	static USARTSerial serial1(HAL_USART_SERIAL1, &serial1_rx_buffer, &serial1_tx_buffer);
#else
  if (!serial1_rx_buffer) {
   d7742:	4c19      	ldr	r4, [pc, #100]	; (d77a8 <_Z22__fetch_global_Serial1v+0x68>)
   d7744:	6825      	ldr	r5, [r4, #0]
   d7746:	b94d      	cbnz	r5, d775c <_Z22__fetch_global_Serial1v+0x1c>
    serial1_rx_buffer = new Ring_Buffer();
   d7748:	2084      	movs	r0, #132	; 0x84
   d774a:	f7fc fca4 	bl	d4096 <_Znwj>
   d774e:	4606      	mov	r6, r0
   d7750:	b118      	cbz	r0, d775a <_Z22__fetch_global_Serial1v+0x1a>
   d7752:	2284      	movs	r2, #132	; 0x84
   d7754:	4629      	mov	r1, r5
   d7756:	f001 fa54 	bl	d8c02 <memset>
   d775a:	6026      	str	r6, [r4, #0]
  }
  if (!serial1_tx_buffer) {
   d775c:	4d13      	ldr	r5, [pc, #76]	; (d77ac <_Z22__fetch_global_Serial1v+0x6c>)
   d775e:	682e      	ldr	r6, [r5, #0]
   d7760:	b94e      	cbnz	r6, d7776 <_Z22__fetch_global_Serial1v+0x36>
    serial1_tx_buffer = new Ring_Buffer();
   d7762:	2084      	movs	r0, #132	; 0x84
   d7764:	f7fc fc97 	bl	d4096 <_Znwj>
   d7768:	4607      	mov	r7, r0
   d776a:	b118      	cbz	r0, d7774 <_Z22__fetch_global_Serial1v+0x34>
   d776c:	2284      	movs	r2, #132	; 0x84
   d776e:	4631      	mov	r1, r6
   d7770:	f001 fa47 	bl	d8c02 <memset>
   d7774:	602f      	str	r7, [r5, #0]
  }
  static USARTSerial serial1(HAL_USART_SERIAL1, serial1_rx_buffer, serial1_tx_buffer);
   d7776:	4f0e      	ldr	r7, [pc, #56]	; (d77b0 <_Z22__fetch_global_Serial1v+0x70>)
   d7778:	6839      	ldr	r1, [r7, #0]
   d777a:	f011 0601 	ands.w	r6, r1, #1
   d777e:	d111      	bne.n	d77a4 <_Z22__fetch_global_Serial1v+0x64>
   d7780:	4638      	mov	r0, r7
   d7782:	f7fc fc8e 	bl	d40a2 <__cxa_guard_acquire>
   d7786:	b168      	cbz	r0, d77a4 <_Z22__fetch_global_Serial1v+0x64>
   d7788:	6822      	ldr	r2, [r4, #0]
   d778a:	682b      	ldr	r3, [r5, #0]
   d778c:	4809      	ldr	r0, [pc, #36]	; (d77b4 <_Z22__fetch_global_Serial1v+0x74>)
   d778e:	4631      	mov	r1, r6
   d7790:	f7ff ffbc 	bl	d770c <_ZN11USARTSerialC1E16HAL_USART_SerialP11Ring_BufferS2_>
   d7794:	4638      	mov	r0, r7
   d7796:	f7fc fc89 	bl	d40ac <__cxa_guard_release>
   d779a:	4a07      	ldr	r2, [pc, #28]	; (d77b8 <_Z22__fetch_global_Serial1v+0x78>)
   d779c:	4907      	ldr	r1, [pc, #28]	; (d77bc <_Z22__fetch_global_Serial1v+0x7c>)
   d779e:	4805      	ldr	r0, [pc, #20]	; (d77b4 <_Z22__fetch_global_Serial1v+0x74>)
   d77a0:	f000 fa20 	bl	d7be4 <__aeabi_atexit>
#endif
	return serial1;
}
   d77a4:	4803      	ldr	r0, [pc, #12]	; (d77b4 <_Z22__fetch_global_Serial1v+0x74>)
   d77a6:	bdf8      	pop	{r3, r4, r5, r6, r7, pc}
   d77a8:	2003e6ec 	.word	0x2003e6ec
   d77ac:	2003e6e4 	.word	0x2003e6e4
   d77b0:	2003e6e8 	.word	0x2003e6e8
   d77b4:	2003e6d0 	.word	0x2003e6d0
   d77b8:	2003e450 	.word	0x2003e450
   d77bc:	000d7689 	.word	0x000d7689

000d77c0 <_ZN9USBSerial14blockOnOverrunEb>:
  HAL_USB_USART_Flush_Data(_serial);
}

void USBSerial::blockOnOverrun(bool block)
{
  _blocking = block;
   d77c0:	7441      	strb	r1, [r0, #17]
   d77c2:	4770      	bx	lr

000d77c4 <_ZN9USBSerialD1Ev>:
#include "usb_hal.h"
#include "system_task.h"
#include "spark_wiring_startup.h"
#include "concurrent_hal.h"

class USBSerial : public Stream
   d77c4:	4770      	bx	lr

000d77c6 <_ZN9USBSerial4readEv>:
}


// Read data from buffer
int USBSerial::read()
{
   d77c6:	b508      	push	{r3, lr}
	return std::max(-1, (int)HAL_USB_USART_Receive_Data(_serial, false));
   d77c8:	2100      	movs	r1, #0
   d77ca:	7c00      	ldrb	r0, [r0, #16]
   d77cc:	f7fd fe4c 	bl	d5468 <HAL_USB_USART_Receive_Data>
}
   d77d0:	ea30 0020 	bics.w	r0, r0, r0, asr #32
   d77d4:	bf28      	it	cs
   d77d6:	f04f 30ff 	movcs.w	r0, #4294967295	; 0xffffffff
   d77da:	bd08      	pop	{r3, pc}

000d77dc <_ZN9USBSerial4peekEv>:
{
  _blocking = block;
}

int USBSerial::peek()
{
   d77dc:	b508      	push	{r3, lr}
	return std::max(-1, (int)HAL_USB_USART_Receive_Data(_serial, true));
   d77de:	2101      	movs	r1, #1
   d77e0:	7c00      	ldrb	r0, [r0, #16]
   d77e2:	f7fd fe41 	bl	d5468 <HAL_USB_USART_Receive_Data>
}
   d77e6:	ea30 0020 	bics.w	r0, r0, r0, asr #32
   d77ea:	bf28      	it	cs
   d77ec:	f04f 30ff 	movcs.w	r0, #4294967295	; 0xffffffff
   d77f0:	bd08      	pop	{r3, pc}

000d77f2 <_ZN9USBSerial17availableForWriteEv>:
{
	return std::max(-1, (int)HAL_USB_USART_Receive_Data(_serial, false));
}

int USBSerial::availableForWrite()
{
   d77f2:	b508      	push	{r3, lr}
  return std::max(0, (int)HAL_USB_USART_Available_Data_For_Write(_serial));
   d77f4:	7c00      	ldrb	r0, [r0, #16]
   d77f6:	f7fd fe2f 	bl	d5458 <HAL_USB_USART_Available_Data_For_Write>
}
   d77fa:	ea20 70e0 	bic.w	r0, r0, r0, asr #31
   d77fe:	bd08      	pop	{r3, pc}

000d7800 <_ZN9USBSerial9availableEv>:

int USBSerial::available()
{
   d7800:	b508      	push	{r3, lr}
	return std::max(0, (int)HAL_USB_USART_Available_Data(_serial));
   d7802:	7c00      	ldrb	r0, [r0, #16]
   d7804:	f7fd fe20 	bl	d5448 <HAL_USB_USART_Available_Data>
}
   d7808:	ea20 70e0 	bic.w	r0, r0, r0, asr #31
   d780c:	bd08      	pop	{r3, pc}

000d780e <_ZN9USBSerial5flushEv>:
  return 0;
}

void USBSerial::flush()
{
  HAL_USB_USART_Flush_Data(_serial);
   d780e:	7c00      	ldrb	r0, [r0, #16]
   d7810:	f7fd be3a 	b.w	d5488 <HAL_USB_USART_Flush_Data>

000d7814 <_ZN9USBSerialD0Ev>:
   d7814:	b510      	push	{r4, lr}
   d7816:	2114      	movs	r1, #20
   d7818:	4604      	mov	r4, r0
   d781a:	f000 f9e8 	bl	d7bee <_ZdlPvj>
   d781e:	4620      	mov	r0, r4
   d7820:	bd10      	pop	{r4, pc}

000d7822 <_ZN9USBSerial5writeEh>:
{
	return std::max(0, (int)HAL_USB_USART_Available_Data(_serial));
}

size_t USBSerial::write(uint8_t byte)
{
   d7822:	b538      	push	{r3, r4, r5, lr}
   d7824:	4604      	mov	r4, r0
  if (HAL_USB_USART_Available_Data_For_Write(_serial) > 0 || _blocking) {
   d7826:	7c00      	ldrb	r0, [r0, #16]
{
	return std::max(0, (int)HAL_USB_USART_Available_Data(_serial));
}

size_t USBSerial::write(uint8_t byte)
{
   d7828:	460d      	mov	r5, r1
  if (HAL_USB_USART_Available_Data_For_Write(_serial) > 0 || _blocking) {
   d782a:	f7fd fe15 	bl	d5458 <HAL_USB_USART_Available_Data_For_Write>
   d782e:	2800      	cmp	r0, #0
   d7830:	dc01      	bgt.n	d7836 <_ZN9USBSerial5writeEh+0x14>
   d7832:	7c60      	ldrb	r0, [r4, #17]
   d7834:	b128      	cbz	r0, d7842 <_ZN9USBSerial5writeEh+0x20>
    return std::max(0, (int)HAL_USB_USART_Send_Data(_serial, byte));
   d7836:	4629      	mov	r1, r5
   d7838:	7c20      	ldrb	r0, [r4, #16]
   d783a:	f7fd fe1d 	bl	d5478 <HAL_USB_USART_Send_Data>
   d783e:	ea20 70e0 	bic.w	r0, r0, r0, asr #31
  }
  return 0;
}
   d7842:	bd38      	pop	{r3, r4, r5, pc}

000d7844 <_ZN9USBSerialC1E20HAL_USB_USART_SerialRK20HAL_USB_USART_Config>:

  HAL_USB_USART_Config conf = acquireSerialBuffer();
  HAL_USB_USART_Init(_serial, &conf);
}

USBSerial::USBSerial(HAL_USB_USART_Serial serial, const HAL_USB_USART_Config& conf)
   d7844:	b510      	push	{r4, lr}
   d7846:	4604      	mov	r4, r0
   d7848:	2300      	movs	r3, #0
   d784a:	6063      	str	r3, [r4, #4]
   d784c:	f44f 737a 	mov.w	r3, #1000	; 0x3e8
   d7850:	60a3      	str	r3, [r4, #8]
   d7852:	4b05      	ldr	r3, [pc, #20]	; (d7868 <_ZN9USBSerialC1E20HAL_USB_USART_SerialRK20HAL_USB_USART_Config+0x24>)
   d7854:	6023      	str	r3, [r4, #0]
{
  _serial = serial;
  _blocking = true;
   d7856:	2301      	movs	r3, #1

  HAL_USB_USART_Config conf = acquireSerialBuffer();
  HAL_USB_USART_Init(_serial, &conf);
}

USBSerial::USBSerial(HAL_USB_USART_Serial serial, const HAL_USB_USART_Config& conf)
   d7858:	4608      	mov	r0, r1
{
  _serial = serial;
   d785a:	7421      	strb	r1, [r4, #16]
  _blocking = true;
   d785c:	7463      	strb	r3, [r4, #17]

  HAL_USB_USART_Init(_serial, &conf);
   d785e:	4611      	mov	r1, r2
   d7860:	f7fd fde2 	bl	d5428 <HAL_USB_USART_Init>
}
   d7864:	4620      	mov	r0, r4
   d7866:	bd10      	pop	{r4, pc}
   d7868:	000d92d4 	.word	0x000d92d4

000d786c <_ZN9USBSerial5beginEl>:
// Public methods
//

void USBSerial::begin(long speed)
{
    HAL_USB_USART_Begin(_serial, speed, NULL);
   d786c:	2200      	movs	r2, #0
   d786e:	7c00      	ldrb	r0, [r0, #16]
   d7870:	f7fd bde2 	b.w	d5438 <HAL_USB_USART_Begin>

000d7874 <_Z19acquireSerialBufferv>:

// Preinstantiate Objects //////////////////////////////////////////////////////
#ifdef SPARK_USB_SERIAL

HAL_USB_USART_Config __attribute__((weak)) acquireSerialBuffer()
{
   d7874:	b510      	push	{r4, lr}
  HAL_USB_USART_Config conf = {0};
   d7876:	2214      	movs	r2, #20

// Preinstantiate Objects //////////////////////////////////////////////////////
#ifdef SPARK_USB_SERIAL

HAL_USB_USART_Config __attribute__((weak)) acquireSerialBuffer()
{
   d7878:	4604      	mov	r4, r0
  HAL_USB_USART_Config conf = {0};
   d787a:	2100      	movs	r1, #0
   d787c:	f001 f9c1 	bl	d8c02 <memset>
  conf.rx_buffer_size = USB_RX_BUFFER_SIZE;
  conf.tx_buffer_size = USB_TX_BUFFER_SIZE;
#endif

  return conf;
}
   d7880:	4620      	mov	r0, r4
   d7882:	bd10      	pop	{r4, pc}

000d7884 <_Z16_fetch_usbserialv>:

USBSerial& _fetch_usbserial()
{
   d7884:	b530      	push	{r4, r5, lr}
  HAL_USB_USART_Config conf = acquireSerialBuffer();
	static USBSerial _usbserial(HAL_USB_USART_SERIAL, conf);
   d7886:	4d0e      	ldr	r5, [pc, #56]	; (d78c0 <_Z16_fetch_usbserialv+0x3c>)

  return conf;
}

USBSerial& _fetch_usbserial()
{
   d7888:	b087      	sub	sp, #28
  HAL_USB_USART_Config conf = acquireSerialBuffer();
   d788a:	a801      	add	r0, sp, #4
   d788c:	f7ff fff2 	bl	d7874 <_Z19acquireSerialBufferv>
	static USBSerial _usbserial(HAL_USB_USART_SERIAL, conf);
   d7890:	6829      	ldr	r1, [r5, #0]
   d7892:	f011 0401 	ands.w	r4, r1, #1
   d7896:	d110      	bne.n	d78ba <_Z16_fetch_usbserialv+0x36>
   d7898:	4628      	mov	r0, r5
   d789a:	f7fc fc02 	bl	d40a2 <__cxa_guard_acquire>
   d789e:	b160      	cbz	r0, d78ba <_Z16_fetch_usbserialv+0x36>
   d78a0:	aa01      	add	r2, sp, #4
   d78a2:	4621      	mov	r1, r4
   d78a4:	4807      	ldr	r0, [pc, #28]	; (d78c4 <_Z16_fetch_usbserialv+0x40>)
   d78a6:	f7ff ffcd 	bl	d7844 <_ZN9USBSerialC1E20HAL_USB_USART_SerialRK20HAL_USB_USART_Config>
   d78aa:	4628      	mov	r0, r5
   d78ac:	f7fc fbfe 	bl	d40ac <__cxa_guard_release>
   d78b0:	4a05      	ldr	r2, [pc, #20]	; (d78c8 <_Z16_fetch_usbserialv+0x44>)
   d78b2:	4906      	ldr	r1, [pc, #24]	; (d78cc <_Z16_fetch_usbserialv+0x48>)
   d78b4:	4803      	ldr	r0, [pc, #12]	; (d78c4 <_Z16_fetch_usbserialv+0x40>)
   d78b6:	f000 f995 	bl	d7be4 <__aeabi_atexit>
	return _usbserial;
}
   d78ba:	4802      	ldr	r0, [pc, #8]	; (d78c4 <_Z16_fetch_usbserialv+0x40>)
   d78bc:	b007      	add	sp, #28
   d78be:	bd30      	pop	{r4, r5, pc}
   d78c0:	2003e6f0 	.word	0x2003e6f0
   d78c4:	2003e6f4 	.word	0x2003e6f4
   d78c8:	2003e450 	.word	0x2003e450
   d78cc:	000d77c5 	.word	0x000d77c5

000d78d0 <_ZN5spark9WiFiClass5readyEv>:
    bool connecting(void) {
        return network_connecting(*this, 0, NULL);
    }

    bool ready(void) {
        return network_ready(*this, 0, NULL);
   d78d0:	2200      	movs	r2, #0
   d78d2:	4611      	mov	r1, r2
   d78d4:	6840      	ldr	r0, [r0, #4]
   d78d6:	f7fd be75 	b.w	d55c4 <network_ready>

000d78da <_ZN5spark9WiFiClass9listeningEv>:
    uint16_t getListenTimeout(void) {
        return network_get_listen_timeout(*this, 0, NULL);
    }

    bool listening(void) {
        return network_listening(*this, 0, NULL);
   d78da:	2200      	movs	r2, #0
   d78dc:	4611      	mov	r1, r2
   d78de:	6840      	ldr	r0, [r0, #4]
   d78e0:	f7fd be90 	b.w	d5604 <network_listening>

000d78e4 <_ZN5spark9WiFiClass16getListenTimeoutEv>:
    void setListenTimeout(uint16_t timeout) {
        network_set_listen_timeout(*this, timeout, NULL);
    }

    uint16_t getListenTimeout(void) {
        return network_get_listen_timeout(*this, 0, NULL);
   d78e4:	2200      	movs	r2, #0
   d78e6:	4611      	mov	r1, r2
   d78e8:	6840      	ldr	r0, [r0, #4]
   d78ea:	f7fd be9b 	b.w	d5624 <network_get_listen_timeout>

000d78ee <_ZN5spark9WiFiClass16setListenTimeoutEt>:
    void listen(bool begin=true) {
        network_listen(*this, begin ? 0 : 1, NULL);
    }

    void setListenTimeout(uint16_t timeout) {
        network_set_listen_timeout(*this, timeout, NULL);
   d78ee:	2200      	movs	r2, #0
   d78f0:	6840      	ldr	r0, [r0, #4]
   d78f2:	f7fd be8f 	b.w	d5614 <network_set_listen_timeout>

000d78f6 <_ZN5spark9WiFiClass6listenEb>:
    void off(void) {
        network_off(*this, 0, 0, NULL);
    }

    void listen(bool begin=true) {
        network_listen(*this, begin ? 0 : 1, NULL);
   d78f6:	2200      	movs	r2, #0
   d78f8:	f081 0101 	eor.w	r1, r1, #1
   d78fc:	6840      	ldr	r0, [r0, #4]
   d78fe:	f7fd be79 	b.w	d55f4 <network_listen>

000d7902 <_ZN5spark9WiFiClass3offEv>:
    void on(void) {
        network_on(*this, 0, 0, NULL);
    }

    void off(void) {
        network_off(*this, 0, 0, NULL);
   d7902:	2300      	movs	r3, #0
   d7904:	461a      	mov	r2, r3
   d7906:	4619      	mov	r1, r3
   d7908:	6840      	ldr	r0, [r0, #4]
   d790a:	f7fd be6b 	b.w	d55e4 <network_off>

000d790e <_ZN5spark9WiFiClass2onEv>:
    bool ready(void) {
        return network_ready(*this, 0, NULL);
    }

    void on(void) {
        network_on(*this, 0, 0, NULL);
   d790e:	2300      	movs	r3, #0
   d7910:	461a      	mov	r2, r3
   d7912:	4619      	mov	r1, r3
   d7914:	6840      	ldr	r0, [r0, #4]
   d7916:	f7fd be5d 	b.w	d55d4 <network_on>

000d791a <_ZN5spark9WiFiClass10connectingEv>:
    void disconnect(void) {
        network_disconnect(*this, NETWORK_DISCONNECT_REASON_USER, NULL);
    }

    bool connecting(void) {
        return network_connecting(*this, 0, NULL);
   d791a:	2200      	movs	r2, #0
   d791c:	4611      	mov	r1, r2
   d791e:	6840      	ldr	r0, [r0, #4]
   d7920:	f7fd be40 	b.w	d55a4 <network_connecting>

000d7924 <_ZN5spark9WiFiClass10disconnectEv>:
    void connect(unsigned flags=0) {
        network_connect(*this, flags, 0, NULL);
    }

    void disconnect(void) {
        network_disconnect(*this, NETWORK_DISCONNECT_REASON_USER, NULL);
   d7924:	2200      	movs	r2, #0
   d7926:	2102      	movs	r1, #2
   d7928:	6840      	ldr	r0, [r0, #4]
   d792a:	f7fd be43 	b.w	d55b4 <network_disconnect>

000d792e <_ZN5spark9WiFiClass7connectEj>:
    uint32_t ping(IPAddress remoteIP, uint8_t nTries) {
        return inet_ping(&remoteIP.raw(), *this, nTries, NULL);
    }

    void connect(unsigned flags=0) {
        network_connect(*this, flags, 0, NULL);
   d792e:	2300      	movs	r3, #0
   d7930:	461a      	mov	r2, r3
   d7932:	6840      	ldr	r0, [r0, #4]
   d7934:	f7fd be2e 	b.w	d5594 <network_connect>

000d7938 <_GLOBAL__sub_I__ZN10WiFiSignalC2ERK21wlan_connected_info_t>:
   d7938:	4b02      	ldr	r3, [pc, #8]	; (d7944 <_GLOBAL__sub_I__ZN10WiFiSignalC2ERK21wlan_connected_info_t+0xc>)
   d793a:	2204      	movs	r2, #4
   d793c:	605a      	str	r2, [r3, #4]
        wlan_set_ipaddress_source(source, true, NULL);
    }

public:
    WiFiClass() :
            NetworkClass(NETWORK_INTERFACE_WIFI_STA) {
   d793e:	4a02      	ldr	r2, [pc, #8]	; (d7948 <_GLOBAL__sub_I__ZN10WiFiSignalC2ERK21wlan_connected_info_t+0x10>)
   d7940:	601a      	str	r2, [r3, #0]
   d7942:	4770      	bx	lr
   d7944:	2003e708 	.word	0x2003e708
   d7948:	000d9304 	.word	0x000d9304

000d794c <_Z11str_reversePc>:

//------------------------------------------------------------------------------------------
#define BUFSIZE (sizeof(long) * 8 + 1)

//utility function used by ultoa()
__attribute__((weak)) void str_reverse(char* buffer){
   d794c:	b510      	push	{r4, lr}
   d794e:	4604      	mov	r4, r0
	char *i, *j;
	char c;
	i=buffer;
	j=buffer + strlen(buffer)-1;
   d7950:	f001 f9b1 	bl	d8cb6 <strlen>
   d7954:	3801      	subs	r0, #1
   d7956:	1823      	adds	r3, r4, r0
   d7958:	4620      	mov	r0, r4
	while(i<j){
   d795a:	4298      	cmp	r0, r3
   d795c:	d206      	bcs.n	d796c <_Z11str_reversePc+0x20>
		c = *i;
   d795e:	7802      	ldrb	r2, [r0, #0]
		*i = *j;
   d7960:	7819      	ldrb	r1, [r3, #0]
   d7962:	f800 1b01 	strb.w	r1, [r0], #1
		*j = c;
   d7966:	f803 2901 	strb.w	r2, [r3], #-1
__attribute__((weak)) void str_reverse(char* buffer){
	char *i, *j;
	char c;
	i=buffer;
	j=buffer + strlen(buffer)-1;
	while(i<j){
   d796a:	e7f6      	b.n	d795a <_Z11str_reversePc+0xe>
   d796c:	bd10      	pop	{r4, pc}

000d796e <ultoa>:
      memcpy(head, ++tail, i);
      return str;
}

//convert unsigned long to string
__attribute__((weak)) char* ultoa(unsigned long a, char* buffer, int radix, char pad){
   d796e:	b570      	push	{r4, r5, r6, lr}
   d7970:	460c      	mov	r4, r1
	if(radix<2 || radix>36){
   d7972:	1e91      	subs	r1, r2, #2
   d7974:	2922      	cmp	r1, #34	; 0x22
   d7976:	d820      	bhi.n	d79ba <ultoa+0x4c>
   d7978:	4625      	mov	r5, r4
   d797a:	4629      	mov	r1, r5
		return NULL;
	}
	char* ptr=buffer;

	div_t result;
	while(a){
   d797c:	b910      	cbnz	r0, d7984 <ultoa+0x16>
                *ptr += 'a'-10;
            }
            ++ptr;
            a = result.quot;
	}
        while (ptr < buffer+pad)
   d797e:	4423      	add	r3, r4
            *ptr++ = '0';
   d7980:	2230      	movs	r2, #48	; 0x30
   d7982:	e00e      	b.n	d79a2 <ultoa+0x34>
	div_t result;
	while(a){
            /* toolchain bug??
            result = div(a, radix);
            */
            result.quot = a/radix;
   d7984:	fbb0 f6f2 	udiv	r6, r0, r2
            result.rem = a%radix;
   d7988:	fb02 0016 	mls	r0, r2, r6, r0
            *ptr = result.rem;
   d798c:	b2c1      	uxtb	r1, r0
   d798e:	f805 1b01 	strb.w	r1, [r5], #1
            if(result.rem<10){
   d7992:	2809      	cmp	r0, #9
                *ptr += '0';
   d7994:	bf94      	ite	ls
   d7996:	3130      	addls	r1, #48	; 0x30
            }else{
                *ptr += 'a'-10;
   d7998:	3157      	addhi	r1, #87	; 0x57
   d799a:	f805 1c01 	strb.w	r1, [r5, #-1]
            }
            ++ptr;
            a = result.quot;
   d799e:	4630      	mov	r0, r6
		return NULL;
	}
	char* ptr=buffer;

	div_t result;
	while(a){
   d79a0:	e7eb      	b.n	d797a <ultoa+0xc>
                *ptr += 'a'-10;
            }
            ++ptr;
            a = result.quot;
	}
        while (ptr < buffer+pad)
   d79a2:	4299      	cmp	r1, r3
   d79a4:	d202      	bcs.n	d79ac <ultoa+0x3e>
            *ptr++ = '0';
   d79a6:	f801 2b01 	strb.w	r2, [r1], #1
                *ptr += 'a'-10;
            }
            ++ptr;
            a = result.quot;
	}
        while (ptr < buffer+pad)
   d79aa:	e7fa      	b.n	d79a2 <ultoa+0x34>
            *ptr++ = '0';

	*ptr = '\0';
   d79ac:	2300      	movs	r3, #0
	str_reverse(buffer);
   d79ae:	4620      	mov	r0, r4
            a = result.quot;
	}
        while (ptr < buffer+pad)
            *ptr++ = '0';

	*ptr = '\0';
   d79b0:	700b      	strb	r3, [r1, #0]
	str_reverse(buffer);
   d79b2:	f7ff ffcb 	bl	d794c <_Z11str_reversePc>
	return buffer;
   d79b6:	4620      	mov	r0, r4
   d79b8:	bd70      	pop	{r4, r5, r6, pc}
}

//convert unsigned long to string
__attribute__((weak)) char* ultoa(unsigned long a, char* buffer, int radix, char pad){
	if(radix<2 || radix>36){
		return NULL;
   d79ba:	2000      	movs	r0, #0
            *ptr++ = '0';

	*ptr = '\0';
	str_reverse(buffer);
	return buffer;
}
   d79bc:	bd70      	pop	{r4, r5, r6, pc}
	...

000d79c0 <serialEventRun>:

/**
 * Provides background processing of serial data.
 */
void serialEventRun()
{
   d79c0:	b508      	push	{r3, lr}
    if (serialEvent && Serial.available()>0)
   d79c2:	4b0c      	ldr	r3, [pc, #48]	; (d79f4 <serialEventRun+0x34>)
   d79c4:	b133      	cbz	r3, d79d4 <serialEventRun+0x14>
   d79c6:	f7ff ff5d 	bl	d7884 <_Z16_fetch_usbserialv>
   d79ca:	6803      	ldr	r3, [r0, #0]
   d79cc:	691b      	ldr	r3, [r3, #16]
   d79ce:	4798      	blx	r3
   d79d0:	2800      	cmp	r0, #0
   d79d2:	dc09      	bgt.n	d79e8 <serialEventRun+0x28>
        serialEvent();

    if (serialEvent1 && Serial1.available()>0)
   d79d4:	4b08      	ldr	r3, [pc, #32]	; (d79f8 <serialEventRun+0x38>)
   d79d6:	b163      	cbz	r3, d79f2 <serialEventRun+0x32>
   d79d8:	f7ff feb2 	bl	d7740 <_Z22__fetch_global_Serial1v>
   d79dc:	6803      	ldr	r3, [r0, #0]
   d79de:	691b      	ldr	r3, [r3, #16]
   d79e0:	4798      	blx	r3
   d79e2:	2800      	cmp	r0, #0
   d79e4:	dc03      	bgt.n	d79ee <serialEventRun+0x2e>
   d79e6:	bd08      	pop	{r3, pc}
 * Provides background processing of serial data.
 */
void serialEventRun()
{
    if (serialEvent && Serial.available()>0)
        serialEvent();
   d79e8:	f3af 8000 	nop.w
   d79ec:	e7f2      	b.n	d79d4 <serialEventRun+0x14>

    if (serialEvent1 && Serial1.available()>0)
        serialEvent1();
   d79ee:	f3af 8000 	nop.w
   d79f2:	bd08      	pop	{r3, pc}
	...

000d79fc <_post_loop>:
#if Wiring_Serial5
void serialEvent5() __attribute__((weak));
#endif

void _post_loop()
{
   d79fc:	b508      	push	{r3, lr}
	serialEventRun();
   d79fe:	f7ff ffdf 	bl	d79c0 <serialEventRun>
		return !timeout_fn;
	}

	static inline system_tick_t current_time()
	{
		return HAL_Timer_Get_Milli_Seconds();
   d7a02:	f7fd fc29 	bl	d5258 <HAL_Timer_Get_Milli_Seconds>
	/**
	 * Lifesign that the application is still working normally.
	 */
	static void checkin()
	{
		last_checkin = current_time();
   d7a06:	4b01      	ldr	r3, [pc, #4]	; (d7a0c <_post_loop+0x10>)
   d7a08:	6018      	str	r0, [r3, #0]
   d7a0a:	bd08      	pop	{r3, pc}
   d7a0c:	2003e714 	.word	0x2003e714

000d7a10 <_Z27ctrl_request_custom_handlerP12ctrl_request>:
bool __backup_ram_was_valid() { return false; }

#endif

// Default handler for CTRL_REQUEST_APP_CUSTOM requests
void __attribute((weak)) ctrl_request_custom_handler(ctrl_request* req) {
   d7a10:	b507      	push	{r0, r1, r2, lr}
    system_ctrl_set_result(req, SYSTEM_ERROR_NOT_SUPPORTED, nullptr, nullptr, nullptr);
   d7a12:	2300      	movs	r3, #0
   d7a14:	9300      	str	r3, [sp, #0]
   d7a16:	461a      	mov	r2, r3
   d7a18:	f06f 0177 	mvn.w	r1, #119	; 0x77
   d7a1c:	f7fd fd88 	bl	d5530 <system_ctrl_set_result>
}
   d7a20:	b003      	add	sp, #12
   d7a22:	f85d fb04 	ldr.w	pc, [sp], #4
	...

000d7a28 <_ZL20ctrl_request_handlerP12ctrl_request>:
// Callback invoked to process a logging configuration request
void(*log_process_ctrl_request_callback)(ctrl_request* req) = nullptr;
#endif

// Application handler for control requests
static void ctrl_request_handler(ctrl_request* req) {
   d7a28:	b507      	push	{r0, r1, r2, lr}
    switch (req->type) {
   d7a2a:	8843      	ldrh	r3, [r0, #2]
   d7a2c:	2b0a      	cmp	r3, #10
   d7a2e:	d008      	beq.n	d7a42 <_ZL20ctrl_request_handlerP12ctrl_request+0x1a>
   d7a30:	2b50      	cmp	r3, #80	; 0x50
   d7a32:	d109      	bne.n	d7a48 <_ZL20ctrl_request_handlerP12ctrl_request+0x20>
#if Wiring_LogConfig
    case CTRL_REQUEST_LOG_CONFIG: {
        if (log_process_ctrl_request_callback) {
   d7a34:	4b09      	ldr	r3, [pc, #36]	; (d7a5c <_ZL20ctrl_request_handlerP12ctrl_request+0x34>)
   d7a36:	681b      	ldr	r3, [r3, #0]
   d7a38:	b13b      	cbz	r3, d7a4a <_ZL20ctrl_request_handlerP12ctrl_request+0x22>
    }
    default:
        system_ctrl_set_result(req, SYSTEM_ERROR_NOT_SUPPORTED, nullptr, nullptr, nullptr);
        break;
    }
}
   d7a3a:	b003      	add	sp, #12
   d7a3c:	f85d eb04 	ldr.w	lr, [sp], #4
static void ctrl_request_handler(ctrl_request* req) {
    switch (req->type) {
#if Wiring_LogConfig
    case CTRL_REQUEST_LOG_CONFIG: {
        if (log_process_ctrl_request_callback) {
            log_process_ctrl_request_callback(req);
   d7a40:	4718      	bx	r3
        }
        break;
    }
#endif
    case CTRL_REQUEST_APP_CUSTOM: {
        ctrl_request_custom_handler(req);
   d7a42:	f7ff ffe5 	bl	d7a10 <_Z27ctrl_request_custom_handlerP12ctrl_request>
        break;
   d7a46:	e006      	b.n	d7a56 <_ZL20ctrl_request_handlerP12ctrl_request+0x2e>
    }
    default:
        system_ctrl_set_result(req, SYSTEM_ERROR_NOT_SUPPORTED, nullptr, nullptr, nullptr);
   d7a48:	2300      	movs	r3, #0
   d7a4a:	9300      	str	r3, [sp, #0]
   d7a4c:	461a      	mov	r2, r3
   d7a4e:	f06f 0177 	mvn.w	r1, #119	; 0x77
   d7a52:	f7fd fd6d 	bl	d5530 <system_ctrl_set_result>
        break;
    }
}
   d7a56:	b003      	add	sp, #12
   d7a58:	f85d fb04 	ldr.w	pc, [sp], #4
   d7a5c:	2003e710 	.word	0x2003e710

000d7a60 <module_user_init_hook>:

void module_user_init_hook()
{
   d7a60:	b510      	push	{r4, lr}
    }
#endif

#if HAL_PLATFORM_RNG
    // Initialize the default stdlib PRNG using hardware RNG as a seed
    const uint32_t seed = HAL_RNG_GetRandomNumber();
   d7a62:	f7fd fbe9 	bl	d5238 <HAL_RNG_GetRandomNumber>
   d7a66:	4604      	mov	r4, r0
    srand(seed);
   d7a68:	f001 f8e2 	bl	d8c30 <srand>

    // If the user defines random_seed_from_cloud, call it with a seed value
    // generated by a hardware RNG as well.
    if (random_seed_from_cloud) {
   d7a6c:	4b07      	ldr	r3, [pc, #28]	; (d7a8c <module_user_init_hook+0x2c>)
   d7a6e:	b113      	cbz	r3, d7a76 <module_user_init_hook+0x16>
        random_seed_from_cloud(seed);
   d7a70:	4620      	mov	r0, r4
   d7a72:	f3af 8000 	nop.w
    }
#endif
    // Register the random_seed_from_cloud handler
    spark_set_random_seed_from_cloud_handler(&random_seed_from_cloud, nullptr);
   d7a76:	2100      	movs	r1, #0
   d7a78:	4804      	ldr	r0, [pc, #16]	; (d7a8c <module_user_init_hook+0x2c>)
   d7a7a:	f7fd fd83 	bl	d5584 <spark_set_random_seed_from_cloud_handler>

    // Register application handler for the control requests
    system_ctrl_set_app_request_handler(ctrl_request_handler, nullptr);
   d7a7e:	2100      	movs	r1, #0
   d7a80:	4803      	ldr	r0, [pc, #12]	; (d7a90 <module_user_init_hook+0x30>)
}
   d7a82:	e8bd 4010 	ldmia.w	sp!, {r4, lr}
#endif
    // Register the random_seed_from_cloud handler
    spark_set_random_seed_from_cloud_handler(&random_seed_from_cloud, nullptr);

    // Register application handler for the control requests
    system_ctrl_set_app_request_handler(ctrl_request_handler, nullptr);
   d7a86:	f7fd bd49 	b.w	d551c <system_ctrl_set_app_request_handler>
   d7a8a:	bf00      	nop
   d7a8c:	00000000 	.word	0x00000000
   d7a90:	000d7a29 	.word	0x000d7a29

000d7a94 <pinAvailable>:

/*
 * @brief Perform safety check on desired pin to see if it's already
 * being used.  Return 0 if used, otherwise return 1 if available.
 */
bool pinAvailable(uint16_t pin) {
   d7a94:	b510      	push	{r4, lr}
   d7a96:	4604      	mov	r4, r0

  // SPI safety check
#ifndef SPARK_WIRING_NO_SPI
  if(SPI.isEnabled() == true && (pin == SCK || pin == MOSI || pin == MISO))
   d7a98:	480f      	ldr	r0, [pc, #60]	; (d7ad8 <pinAvailable+0x44>)
   d7a9a:	f7ff fcdf 	bl	d745c <_ZN8SPIClass9isEnabledEv>
   d7a9e:	b128      	cbz	r0, d7aac <pinAvailable+0x18>
   d7aa0:	f1a4 030b 	sub.w	r3, r4, #11
   d7aa4:	2b02      	cmp	r3, #2
   d7aa6:	d801      	bhi.n	d7aac <pinAvailable+0x18>
  {
    return 0; // 'pin' is used
   d7aa8:	2000      	movs	r0, #0
   d7aaa:	bd10      	pop	{r4, pc}
  }
#endif
  // I2C safety check
#ifndef SPARK_WIRING_NO_I2C
  if(Wire.isEnabled() == true && (pin == SCL || pin == SDA))
   d7aac:	f000 f858 	bl	d7b60 <_Z19__fetch_global_Wirev>
   d7ab0:	f7ff f9f4 	bl	d6e9c <_ZN7TwoWire9isEnabledEv>
   d7ab4:	b108      	cbz	r0, d7aba <pinAvailable+0x26>
   d7ab6:	2c01      	cmp	r4, #1
   d7ab8:	d9f6      	bls.n	d7aa8 <pinAvailable+0x14>
    return 0; // 'pin' is used
  }
#endif
#ifndef SPARK_WIRING_NO_USART_SERIAL
  // Serial1 safety check
  if(Serial1.isEnabled() == true && (pin == RX || pin == TX))
   d7aba:	f7ff fe41 	bl	d7740 <_Z22__fetch_global_Serial1v>
   d7abe:	f7ff fe3b 	bl	d7738 <_ZN11USARTSerial9isEnabledEv>
   d7ac2:	b118      	cbz	r0, d7acc <pinAvailable+0x38>
   d7ac4:	f1a4 0309 	sub.w	r3, r4, #9
   d7ac8:	2b01      	cmp	r3, #1
   d7aca:	d9ed      	bls.n	d7aa8 <pinAvailable+0x14>
  {
    return 0; // 'pin' is used
  }
#endif

  if (pin >= TOTAL_PINS)
   d7acc:	2c23      	cmp	r4, #35	; 0x23
   d7ace:	bf8c      	ite	hi
   d7ad0:	2000      	movhi	r0, #0
   d7ad2:	2001      	movls	r0, #1
    return 0;
  else
    return 1; // 'pin' is available
}
   d7ad4:	bd10      	pop	{r4, pc}
   d7ad6:	bf00      	nop
   d7ad8:	2003e730 	.word	0x2003e730

000d7adc <pinMode>:
 * or INPUT_PULLDOWN
 */
void pinMode(uint16_t pin, PinMode setMode)
{

  if(pin >= TOTAL_PINS || setMode == PIN_MODE_NONE )
   d7adc:	2823      	cmp	r0, #35	; 0x23
/*
 * @brief Set the mode of the pin to OUTPUT, INPUT, INPUT_PULLUP,
 * or INPUT_PULLDOWN
 */
void pinMode(uint16_t pin, PinMode setMode)
{
   d7ade:	b538      	push	{r3, r4, r5, lr}
   d7ae0:	4604      	mov	r4, r0
   d7ae2:	460d      	mov	r5, r1

  if(pin >= TOTAL_PINS || setMode == PIN_MODE_NONE )
   d7ae4:	d80a      	bhi.n	d7afc <pinMode+0x20>
   d7ae6:	29ff      	cmp	r1, #255	; 0xff
   d7ae8:	d008      	beq.n	d7afc <pinMode+0x20>
  {
    return;
  }

  // Safety check
  if( !pinAvailable(pin) ) {
   d7aea:	f7ff ffd3 	bl	d7a94 <pinAvailable>
   d7aee:	b128      	cbz	r0, d7afc <pinMode+0x20>
    return;
  }

  HAL_Pin_Mode(pin, setMode);
   d7af0:	4629      	mov	r1, r5
   d7af2:	4620      	mov	r0, r4
}
   d7af4:	e8bd 4038 	ldmia.w	sp!, {r3, r4, r5, lr}
  // Safety check
  if( !pinAvailable(pin) ) {
    return;
  }

  HAL_Pin_Mode(pin, setMode);
   d7af8:	f7fd bbc6 	b.w	d5288 <HAL_Pin_Mode>
   d7afc:	bd38      	pop	{r3, r4, r5, pc}

000d7afe <digitalWrite>:

/*
 * @brief Sets a GPIO pin to HIGH or LOW.
 */
void digitalWrite(pin_t pin, uint8_t value)
{
   d7afe:	b538      	push	{r3, r4, r5, lr}
   d7b00:	4604      	mov	r4, r0
   d7b02:	460d      	mov	r5, r1
    PinMode mode = HAL_Get_Pin_Mode(pin);
   d7b04:	f7fd fbc8 	bl	d5298 <HAL_Get_Pin_Mode>
    if (mode==PIN_MODE_NONE || is_input_mode(mode))
   d7b08:	28ff      	cmp	r0, #255	; 0xff
   d7b0a:	d010      	beq.n	d7b2e <digitalWrite+0x30>
}

inline bool is_input_mode(PinMode mode) {
    return  mode == INPUT ||
            mode == INPUT_PULLUP ||
            mode == INPUT_PULLDOWN ||
   d7b0c:	2806      	cmp	r0, #6
   d7b0e:	d804      	bhi.n	d7b1a <digitalWrite+0x1c>
   d7b10:	234d      	movs	r3, #77	; 0x4d
   d7b12:	fa23 f000 	lsr.w	r0, r3, r0
   d7b16:	07c3      	lsls	r3, r0, #31
   d7b18:	d409      	bmi.n	d7b2e <digitalWrite+0x30>
{
    PinMode mode = HAL_Get_Pin_Mode(pin);
    if (mode==PIN_MODE_NONE || is_input_mode(mode))
        return;
  // Safety check
  if( !pinAvailable(pin) ) {
   d7b1a:	4620      	mov	r0, r4
   d7b1c:	f7ff ffba 	bl	d7a94 <pinAvailable>
   d7b20:	b128      	cbz	r0, d7b2e <digitalWrite+0x30>
    return;
  }

  HAL_GPIO_Write(pin, value);
   d7b22:	4629      	mov	r1, r5
   d7b24:	4620      	mov	r0, r4
}
   d7b26:	e8bd 4038 	ldmia.w	sp!, {r3, r4, r5, lr}
  // Safety check
  if( !pinAvailable(pin) ) {
    return;
  }

  HAL_GPIO_Write(pin, value);
   d7b2a:	f7fd bbbd 	b.w	d52a8 <HAL_GPIO_Write>
   d7b2e:	bd38      	pop	{r3, r4, r5, pc}

000d7b30 <analogRead>:
 * Note: ADC is 12-bit. Currently it returns 0-4095
 */
int32_t analogRead(pin_t pin)
{
  // Allow people to use 0-7 to define analog pins by checking to see if the values are too low.
  if(pin < FIRST_ANALOG_PIN)
   d7b30:	280d      	cmp	r0, #13
 * @brief Read the analog value of a pin.
 * Should return a 16-bit value, 0-65536 (0 = LOW, 65536 = HIGH)
 * Note: ADC is 12-bit. Currently it returns 0-4095
 */
int32_t analogRead(pin_t pin)
{
   d7b32:	b510      	push	{r4, lr}
   d7b34:	4604      	mov	r4, r0
  // Allow people to use 0-7 to define analog pins by checking to see if the values are too low.
  if(pin < FIRST_ANALOG_PIN)
  {
    pin = pin + FIRST_ANALOG_PIN;
   d7b36:	bf9c      	itt	ls
   d7b38:	340e      	addls	r4, #14
   d7b3a:	b2a4      	uxthls	r4, r4
  }

  // Safety check
  if( !pinAvailable(pin) ) {
   d7b3c:	4620      	mov	r0, r4
   d7b3e:	f7ff ffa9 	bl	d7a94 <pinAvailable>
   d7b42:	b150      	cbz	r0, d7b5a <analogRead+0x2a>
    return LOW;
  }

  if(HAL_Validate_Pin_Function(pin, PF_ADC)!=PF_ADC)
   d7b44:	2103      	movs	r1, #3
   d7b46:	4620      	mov	r0, r4
   d7b48:	f7fd fb96 	bl	d5278 <HAL_Validate_Pin_Function>
   d7b4c:	2803      	cmp	r0, #3
   d7b4e:	d104      	bne.n	d7b5a <analogRead+0x2a>
  {
    return LOW;
  }

  return HAL_ADC_Read(pin);
   d7b50:	4620      	mov	r0, r4
}
   d7b52:	e8bd 4010 	ldmia.w	sp!, {r4, lr}
  if(HAL_Validate_Pin_Function(pin, PF_ADC)!=PF_ADC)
  {
    return LOW;
  }

  return HAL_ADC_Read(pin);
   d7b56:	f7fd bbbf 	b.w	d52d8 <HAL_ADC_Read>
}
   d7b5a:	2000      	movs	r0, #0
   d7b5c:	bd10      	pop	{r4, pc}
	...

000d7b60 <_Z19__fetch_global_Wirev>:
#include "i2c_hal.h"

#ifndef SPARK_WIRING_NO_I2C

TwoWire& __fetch_global_Wire()
{
   d7b60:	b538      	push	{r3, r4, r5, lr}
	static TwoWire wire(HAL_I2C_INTERFACE1);
   d7b62:	4d0b      	ldr	r5, [pc, #44]	; (d7b90 <_Z19__fetch_global_Wirev+0x30>)
   d7b64:	6829      	ldr	r1, [r5, #0]
   d7b66:	f011 0401 	ands.w	r4, r1, #1
   d7b6a:	d10f      	bne.n	d7b8c <_Z19__fetch_global_Wirev+0x2c>
   d7b6c:	4628      	mov	r0, r5
   d7b6e:	f7fc fa98 	bl	d40a2 <__cxa_guard_acquire>
   d7b72:	b158      	cbz	r0, d7b8c <_Z19__fetch_global_Wirev+0x2c>
   d7b74:	4621      	mov	r1, r4
   d7b76:	4807      	ldr	r0, [pc, #28]	; (d7b94 <_Z19__fetch_global_Wirev+0x34>)
   d7b78:	f7ff f97e 	bl	d6e78 <_ZN7TwoWireC1E17HAL_I2C_Interface>
   d7b7c:	4628      	mov	r0, r5
   d7b7e:	f7fc fa95 	bl	d40ac <__cxa_guard_release>
   d7b82:	4a05      	ldr	r2, [pc, #20]	; (d7b98 <_Z19__fetch_global_Wirev+0x38>)
   d7b84:	4905      	ldr	r1, [pc, #20]	; (d7b9c <_Z19__fetch_global_Wirev+0x3c>)
   d7b86:	4803      	ldr	r0, [pc, #12]	; (d7b94 <_Z19__fetch_global_Wirev+0x34>)
   d7b88:	f000 f82c 	bl	d7be4 <__aeabi_atexit>
	return wire;
}
   d7b8c:	4801      	ldr	r0, [pc, #4]	; (d7b94 <_Z19__fetch_global_Wirev+0x34>)
   d7b8e:	bd38      	pop	{r3, r4, r5, pc}
   d7b90:	2003e718 	.word	0x2003e718
   d7b94:	2003e71c 	.word	0x2003e71c
   d7b98:	2003e450 	.word	0x2003e450
   d7b9c:	000d6e21 	.word	0x000d6e21

000d7ba0 <_GLOBAL__sub_I_SPI>:
#ifndef SPARK_WIRING_NO_SPI

SPIClass SPI(HAL_SPI_INTERFACE1);

#if Wiring_SPI1
SPIClass SPI1(HAL_SPI_INTERFACE2);
   d7ba0:	b570      	push	{r4, r5, r6, lr}
#include "core_hal.h"
#include "spark_macros.h"

#ifndef SPARK_WIRING_NO_SPI

SPIClass SPI(HAL_SPI_INTERFACE1);
   d7ba2:	4c0c      	ldr	r4, [pc, #48]	; (d7bd4 <_GLOBAL__sub_I_SPI+0x34>)
   d7ba4:	4e0c      	ldr	r6, [pc, #48]	; (d7bd8 <_GLOBAL__sub_I_SPI+0x38>)
   d7ba6:	4d0d      	ldr	r5, [pc, #52]	; (d7bdc <_GLOBAL__sub_I_SPI+0x3c>)
   d7ba8:	2100      	movs	r1, #0
   d7baa:	4620      	mov	r0, r4
   d7bac:	f7ff fc42 	bl	d7434 <_ZN8SPIClassC1E17HAL_SPI_Interface>
   d7bb0:	4620      	mov	r0, r4

#if Wiring_SPI1
SPIClass SPI1(HAL_SPI_INTERFACE2);
   d7bb2:	4c0b      	ldr	r4, [pc, #44]	; (d7be0 <_GLOBAL__sub_I_SPI+0x40>)
#include "core_hal.h"
#include "spark_macros.h"

#ifndef SPARK_WIRING_NO_SPI

SPIClass SPI(HAL_SPI_INTERFACE1);
   d7bb4:	4632      	mov	r2, r6
   d7bb6:	4629      	mov	r1, r5
   d7bb8:	f000 f814 	bl	d7be4 <__aeabi_atexit>

#if Wiring_SPI1
SPIClass SPI1(HAL_SPI_INTERFACE2);
   d7bbc:	2101      	movs	r1, #1
   d7bbe:	4620      	mov	r0, r4
   d7bc0:	f7ff fc38 	bl	d7434 <_ZN8SPIClassC1E17HAL_SPI_Interface>
   d7bc4:	4632      	mov	r2, r6
   d7bc6:	4629      	mov	r1, r5
   d7bc8:	4620      	mov	r0, r4
   d7bca:	e8bd 4070 	ldmia.w	sp!, {r4, r5, r6, lr}
   d7bce:	f000 b809 	b.w	d7be4 <__aeabi_atexit>
   d7bd2:	bf00      	nop
   d7bd4:	2003e730 	.word	0x2003e730
   d7bd8:	2003e450 	.word	0x2003e450
   d7bdc:	000d7425 	.word	0x000d7425
   d7be0:	2003e740 	.word	0x2003e740

000d7be4 <__aeabi_atexit>:
   d7be4:	460b      	mov	r3, r1
   d7be6:	4601      	mov	r1, r0
   d7be8:	4618      	mov	r0, r3
   d7bea:	f000 bfc7 	b.w	d8b7c <__cxa_atexit>

000d7bee <_ZdlPvj>:
   d7bee:	f7fc ba54 	b.w	d409a <_ZdlPv>

000d7bf2 <_ZSt25__throw_bad_function_callv>:
   d7bf2:	b508      	push	{r3, lr}
   d7bf4:	f7fd fd3e 	bl	d5674 <abort>

000d7bf8 <_GLOBAL__sub_I__ZNSt12ctype_bynameIwEC2ERKSsj>:
   d7bf8:	4b24      	ldr	r3, [pc, #144]	; (d7c8c <_GLOBAL__sub_I__ZNSt12ctype_bynameIwEC2ERKSsj+0x94>)
   d7bfa:	681a      	ldr	r2, [r3, #0]
   d7bfc:	07d0      	lsls	r0, r2, #31
   d7bfe:	bf5c      	itt	pl
   d7c00:	2201      	movpl	r2, #1
   d7c02:	601a      	strpl	r2, [r3, #0]
   d7c04:	4b22      	ldr	r3, [pc, #136]	; (d7c90 <_GLOBAL__sub_I__ZNSt12ctype_bynameIwEC2ERKSsj+0x98>)
   d7c06:	681a      	ldr	r2, [r3, #0]
   d7c08:	07d1      	lsls	r1, r2, #31
   d7c0a:	bf5c      	itt	pl
   d7c0c:	2201      	movpl	r2, #1
   d7c0e:	601a      	strpl	r2, [r3, #0]
   d7c10:	4b20      	ldr	r3, [pc, #128]	; (d7c94 <_GLOBAL__sub_I__ZNSt12ctype_bynameIwEC2ERKSsj+0x9c>)
   d7c12:	681a      	ldr	r2, [r3, #0]
   d7c14:	07d2      	lsls	r2, r2, #31
   d7c16:	bf5c      	itt	pl
   d7c18:	2201      	movpl	r2, #1
   d7c1a:	601a      	strpl	r2, [r3, #0]
   d7c1c:	4b1e      	ldr	r3, [pc, #120]	; (d7c98 <_GLOBAL__sub_I__ZNSt12ctype_bynameIwEC2ERKSsj+0xa0>)
   d7c1e:	681a      	ldr	r2, [r3, #0]
   d7c20:	07d0      	lsls	r0, r2, #31
   d7c22:	bf5c      	itt	pl
   d7c24:	2201      	movpl	r2, #1
   d7c26:	601a      	strpl	r2, [r3, #0]
   d7c28:	4b1c      	ldr	r3, [pc, #112]	; (d7c9c <_GLOBAL__sub_I__ZNSt12ctype_bynameIwEC2ERKSsj+0xa4>)
   d7c2a:	681a      	ldr	r2, [r3, #0]
   d7c2c:	07d1      	lsls	r1, r2, #31
   d7c2e:	bf5c      	itt	pl
   d7c30:	2201      	movpl	r2, #1
   d7c32:	601a      	strpl	r2, [r3, #0]
   d7c34:	4b1a      	ldr	r3, [pc, #104]	; (d7ca0 <_GLOBAL__sub_I__ZNSt12ctype_bynameIwEC2ERKSsj+0xa8>)
   d7c36:	681a      	ldr	r2, [r3, #0]
   d7c38:	07d2      	lsls	r2, r2, #31
   d7c3a:	bf5c      	itt	pl
   d7c3c:	2201      	movpl	r2, #1
   d7c3e:	601a      	strpl	r2, [r3, #0]
   d7c40:	4b18      	ldr	r3, [pc, #96]	; (d7ca4 <_GLOBAL__sub_I__ZNSt12ctype_bynameIwEC2ERKSsj+0xac>)
   d7c42:	681a      	ldr	r2, [r3, #0]
   d7c44:	07d0      	lsls	r0, r2, #31
   d7c46:	bf5c      	itt	pl
   d7c48:	2201      	movpl	r2, #1
   d7c4a:	601a      	strpl	r2, [r3, #0]
   d7c4c:	4b16      	ldr	r3, [pc, #88]	; (d7ca8 <_GLOBAL__sub_I__ZNSt12ctype_bynameIwEC2ERKSsj+0xb0>)
   d7c4e:	681a      	ldr	r2, [r3, #0]
   d7c50:	07d1      	lsls	r1, r2, #31
   d7c52:	bf5c      	itt	pl
   d7c54:	2201      	movpl	r2, #1
   d7c56:	601a      	strpl	r2, [r3, #0]
   d7c58:	4b14      	ldr	r3, [pc, #80]	; (d7cac <_GLOBAL__sub_I__ZNSt12ctype_bynameIwEC2ERKSsj+0xb4>)
   d7c5a:	681a      	ldr	r2, [r3, #0]
   d7c5c:	07d2      	lsls	r2, r2, #31
   d7c5e:	bf5c      	itt	pl
   d7c60:	2201      	movpl	r2, #1
   d7c62:	601a      	strpl	r2, [r3, #0]
   d7c64:	4b12      	ldr	r3, [pc, #72]	; (d7cb0 <_GLOBAL__sub_I__ZNSt12ctype_bynameIwEC2ERKSsj+0xb8>)
   d7c66:	681a      	ldr	r2, [r3, #0]
   d7c68:	07d0      	lsls	r0, r2, #31
   d7c6a:	bf5c      	itt	pl
   d7c6c:	2201      	movpl	r2, #1
   d7c6e:	601a      	strpl	r2, [r3, #0]
   d7c70:	4b10      	ldr	r3, [pc, #64]	; (d7cb4 <_GLOBAL__sub_I__ZNSt12ctype_bynameIwEC2ERKSsj+0xbc>)
   d7c72:	681a      	ldr	r2, [r3, #0]
   d7c74:	07d1      	lsls	r1, r2, #31
   d7c76:	bf5c      	itt	pl
   d7c78:	2201      	movpl	r2, #1
   d7c7a:	601a      	strpl	r2, [r3, #0]
   d7c7c:	4b0e      	ldr	r3, [pc, #56]	; (d7cb8 <_GLOBAL__sub_I__ZNSt12ctype_bynameIwEC2ERKSsj+0xc0>)
   d7c7e:	681a      	ldr	r2, [r3, #0]
   d7c80:	07d2      	lsls	r2, r2, #31
   d7c82:	bf5c      	itt	pl
   d7c84:	2201      	movpl	r2, #1
   d7c86:	601a      	strpl	r2, [r3, #0]
   d7c88:	4770      	bx	lr
   d7c8a:	bf00      	nop
   d7c8c:	2003e77c 	.word	0x2003e77c
   d7c90:	2003e778 	.word	0x2003e778
   d7c94:	2003e774 	.word	0x2003e774
   d7c98:	2003e770 	.word	0x2003e770
   d7c9c:	2003e76c 	.word	0x2003e76c
   d7ca0:	2003e768 	.word	0x2003e768
   d7ca4:	2003e764 	.word	0x2003e764
   d7ca8:	2003e760 	.word	0x2003e760
   d7cac:	2003e75c 	.word	0x2003e75c
   d7cb0:	2003e758 	.word	0x2003e758
   d7cb4:	2003e754 	.word	0x2003e754
   d7cb8:	2003e750 	.word	0x2003e750

000d7cbc <_GLOBAL__sub_I__ZNSt12ctype_bynameIcEC2ERKNSt7__cxx1112basic_stringIcSt11char_traitsIcESaIcEEEj>:
   d7cbc:	4b18      	ldr	r3, [pc, #96]	; (d7d20 <_GLOBAL__sub_I__ZNSt12ctype_bynameIcEC2ERKNSt7__cxx1112basic_stringIcSt11char_traitsIcESaIcEEEj+0x64>)
   d7cbe:	681a      	ldr	r2, [r3, #0]
   d7cc0:	07d1      	lsls	r1, r2, #31
   d7cc2:	bf5c      	itt	pl
   d7cc4:	2201      	movpl	r2, #1
   d7cc6:	601a      	strpl	r2, [r3, #0]
   d7cc8:	4b16      	ldr	r3, [pc, #88]	; (d7d24 <_GLOBAL__sub_I__ZNSt12ctype_bynameIcEC2ERKNSt7__cxx1112basic_stringIcSt11char_traitsIcESaIcEEEj+0x68>)
   d7cca:	681a      	ldr	r2, [r3, #0]
   d7ccc:	07d2      	lsls	r2, r2, #31
   d7cce:	bf5c      	itt	pl
   d7cd0:	2201      	movpl	r2, #1
   d7cd2:	601a      	strpl	r2, [r3, #0]
   d7cd4:	4b14      	ldr	r3, [pc, #80]	; (d7d28 <_GLOBAL__sub_I__ZNSt12ctype_bynameIcEC2ERKNSt7__cxx1112basic_stringIcSt11char_traitsIcESaIcEEEj+0x6c>)
   d7cd6:	681a      	ldr	r2, [r3, #0]
   d7cd8:	07d0      	lsls	r0, r2, #31
   d7cda:	bf5c      	itt	pl
   d7cdc:	2201      	movpl	r2, #1
   d7cde:	601a      	strpl	r2, [r3, #0]
   d7ce0:	4b12      	ldr	r3, [pc, #72]	; (d7d2c <_GLOBAL__sub_I__ZNSt12ctype_bynameIcEC2ERKNSt7__cxx1112basic_stringIcSt11char_traitsIcESaIcEEEj+0x70>)
   d7ce2:	681a      	ldr	r2, [r3, #0]
   d7ce4:	07d1      	lsls	r1, r2, #31
   d7ce6:	bf5c      	itt	pl
   d7ce8:	2201      	movpl	r2, #1
   d7cea:	601a      	strpl	r2, [r3, #0]
   d7cec:	4b10      	ldr	r3, [pc, #64]	; (d7d30 <_GLOBAL__sub_I__ZNSt12ctype_bynameIcEC2ERKNSt7__cxx1112basic_stringIcSt11char_traitsIcESaIcEEEj+0x74>)
   d7cee:	681a      	ldr	r2, [r3, #0]
   d7cf0:	07d2      	lsls	r2, r2, #31
   d7cf2:	bf5c      	itt	pl
   d7cf4:	2201      	movpl	r2, #1
   d7cf6:	601a      	strpl	r2, [r3, #0]
   d7cf8:	4b0e      	ldr	r3, [pc, #56]	; (d7d34 <_GLOBAL__sub_I__ZNSt12ctype_bynameIcEC2ERKNSt7__cxx1112basic_stringIcSt11char_traitsIcESaIcEEEj+0x78>)
   d7cfa:	681a      	ldr	r2, [r3, #0]
   d7cfc:	07d0      	lsls	r0, r2, #31
   d7cfe:	bf5c      	itt	pl
   d7d00:	2201      	movpl	r2, #1
   d7d02:	601a      	strpl	r2, [r3, #0]
   d7d04:	4b0c      	ldr	r3, [pc, #48]	; (d7d38 <_GLOBAL__sub_I__ZNSt12ctype_bynameIcEC2ERKNSt7__cxx1112basic_stringIcSt11char_traitsIcESaIcEEEj+0x7c>)
   d7d06:	681a      	ldr	r2, [r3, #0]
   d7d08:	07d1      	lsls	r1, r2, #31
   d7d0a:	bf5c      	itt	pl
   d7d0c:	2201      	movpl	r2, #1
   d7d0e:	601a      	strpl	r2, [r3, #0]
   d7d10:	4b0a      	ldr	r3, [pc, #40]	; (d7d3c <_GLOBAL__sub_I__ZNSt12ctype_bynameIcEC2ERKNSt7__cxx1112basic_stringIcSt11char_traitsIcESaIcEEEj+0x80>)
   d7d12:	681a      	ldr	r2, [r3, #0]
   d7d14:	07d2      	lsls	r2, r2, #31
   d7d16:	bf5c      	itt	pl
   d7d18:	2201      	movpl	r2, #1
   d7d1a:	601a      	strpl	r2, [r3, #0]
   d7d1c:	4770      	bx	lr
   d7d1e:	bf00      	nop
   d7d20:	2003e79c 	.word	0x2003e79c
   d7d24:	2003e798 	.word	0x2003e798
   d7d28:	2003e794 	.word	0x2003e794
   d7d2c:	2003e790 	.word	0x2003e790
   d7d30:	2003e78c 	.word	0x2003e78c
   d7d34:	2003e788 	.word	0x2003e788
   d7d38:	2003e784 	.word	0x2003e784
   d7d3c:	2003e780 	.word	0x2003e780

000d7d40 <_GLOBAL__sub_I__ZNSt12ctype_bynameIwEC2ERKNSt7__cxx1112basic_stringIcSt11char_traitsIcESaIcEEEj>:
   d7d40:	4b18      	ldr	r3, [pc, #96]	; (d7da4 <_GLOBAL__sub_I__ZNSt12ctype_bynameIwEC2ERKNSt7__cxx1112basic_stringIcSt11char_traitsIcESaIcEEEj+0x64>)
   d7d42:	681a      	ldr	r2, [r3, #0]
   d7d44:	07d1      	lsls	r1, r2, #31
   d7d46:	bf5c      	itt	pl
   d7d48:	2201      	movpl	r2, #1
   d7d4a:	601a      	strpl	r2, [r3, #0]
   d7d4c:	4b16      	ldr	r3, [pc, #88]	; (d7da8 <_GLOBAL__sub_I__ZNSt12ctype_bynameIwEC2ERKNSt7__cxx1112basic_stringIcSt11char_traitsIcESaIcEEEj+0x68>)
   d7d4e:	681a      	ldr	r2, [r3, #0]
   d7d50:	07d2      	lsls	r2, r2, #31
   d7d52:	bf5c      	itt	pl
   d7d54:	2201      	movpl	r2, #1
   d7d56:	601a      	strpl	r2, [r3, #0]
   d7d58:	4b14      	ldr	r3, [pc, #80]	; (d7dac <_GLOBAL__sub_I__ZNSt12ctype_bynameIwEC2ERKNSt7__cxx1112basic_stringIcSt11char_traitsIcESaIcEEEj+0x6c>)
   d7d5a:	681a      	ldr	r2, [r3, #0]
   d7d5c:	07d0      	lsls	r0, r2, #31
   d7d5e:	bf5c      	itt	pl
   d7d60:	2201      	movpl	r2, #1
   d7d62:	601a      	strpl	r2, [r3, #0]
   d7d64:	4b12      	ldr	r3, [pc, #72]	; (d7db0 <_GLOBAL__sub_I__ZNSt12ctype_bynameIwEC2ERKNSt7__cxx1112basic_stringIcSt11char_traitsIcESaIcEEEj+0x70>)
   d7d66:	681a      	ldr	r2, [r3, #0]
   d7d68:	07d1      	lsls	r1, r2, #31
   d7d6a:	bf5c      	itt	pl
   d7d6c:	2201      	movpl	r2, #1
   d7d6e:	601a      	strpl	r2, [r3, #0]
   d7d70:	4b10      	ldr	r3, [pc, #64]	; (d7db4 <_GLOBAL__sub_I__ZNSt12ctype_bynameIwEC2ERKNSt7__cxx1112basic_stringIcSt11char_traitsIcESaIcEEEj+0x74>)
   d7d72:	681a      	ldr	r2, [r3, #0]
   d7d74:	07d2      	lsls	r2, r2, #31
   d7d76:	bf5c      	itt	pl
   d7d78:	2201      	movpl	r2, #1
   d7d7a:	601a      	strpl	r2, [r3, #0]
   d7d7c:	4b0e      	ldr	r3, [pc, #56]	; (d7db8 <_GLOBAL__sub_I__ZNSt12ctype_bynameIwEC2ERKNSt7__cxx1112basic_stringIcSt11char_traitsIcESaIcEEEj+0x78>)
   d7d7e:	681a      	ldr	r2, [r3, #0]
   d7d80:	07d0      	lsls	r0, r2, #31
   d7d82:	bf5c      	itt	pl
   d7d84:	2201      	movpl	r2, #1
   d7d86:	601a      	strpl	r2, [r3, #0]
   d7d88:	4b0c      	ldr	r3, [pc, #48]	; (d7dbc <_GLOBAL__sub_I__ZNSt12ctype_bynameIwEC2ERKNSt7__cxx1112basic_stringIcSt11char_traitsIcESaIcEEEj+0x7c>)
   d7d8a:	681a      	ldr	r2, [r3, #0]
   d7d8c:	07d1      	lsls	r1, r2, #31
   d7d8e:	bf5c      	itt	pl
   d7d90:	2201      	movpl	r2, #1
   d7d92:	601a      	strpl	r2, [r3, #0]
   d7d94:	4b0a      	ldr	r3, [pc, #40]	; (d7dc0 <_GLOBAL__sub_I__ZNSt12ctype_bynameIwEC2ERKNSt7__cxx1112basic_stringIcSt11char_traitsIcESaIcEEEj+0x80>)
   d7d96:	681a      	ldr	r2, [r3, #0]
   d7d98:	07d2      	lsls	r2, r2, #31
   d7d9a:	bf5c      	itt	pl
   d7d9c:	2201      	movpl	r2, #1
   d7d9e:	601a      	strpl	r2, [r3, #0]
   d7da0:	4770      	bx	lr
   d7da2:	bf00      	nop
   d7da4:	2003e7bc 	.word	0x2003e7bc
   d7da8:	2003e7b8 	.word	0x2003e7b8
   d7dac:	2003e7b4 	.word	0x2003e7b4
   d7db0:	2003e7b0 	.word	0x2003e7b0
   d7db4:	2003e7ac 	.word	0x2003e7ac
   d7db8:	2003e7a8 	.word	0x2003e7a8
   d7dbc:	2003e7a4 	.word	0x2003e7a4
   d7dc0:	2003e7a0 	.word	0x2003e7a0

000d7dc4 <_GLOBAL__sub_I__ZNSt12ctype_bynameIcEC2ERKSsj>:
   d7dc4:	4b24      	ldr	r3, [pc, #144]	; (d7e58 <_GLOBAL__sub_I__ZNSt12ctype_bynameIcEC2ERKSsj+0x94>)
   d7dc6:	681a      	ldr	r2, [r3, #0]
   d7dc8:	07d0      	lsls	r0, r2, #31
   d7dca:	bf5c      	itt	pl
   d7dcc:	2201      	movpl	r2, #1
   d7dce:	601a      	strpl	r2, [r3, #0]
   d7dd0:	4b22      	ldr	r3, [pc, #136]	; (d7e5c <_GLOBAL__sub_I__ZNSt12ctype_bynameIcEC2ERKSsj+0x98>)
   d7dd2:	681a      	ldr	r2, [r3, #0]
   d7dd4:	07d1      	lsls	r1, r2, #31
   d7dd6:	bf5c      	itt	pl
   d7dd8:	2201      	movpl	r2, #1
   d7dda:	601a      	strpl	r2, [r3, #0]
   d7ddc:	4b20      	ldr	r3, [pc, #128]	; (d7e60 <_GLOBAL__sub_I__ZNSt12ctype_bynameIcEC2ERKSsj+0x9c>)
   d7dde:	681a      	ldr	r2, [r3, #0]
   d7de0:	07d2      	lsls	r2, r2, #31
   d7de2:	bf5c      	itt	pl
   d7de4:	2201      	movpl	r2, #1
   d7de6:	601a      	strpl	r2, [r3, #0]
   d7de8:	4b1e      	ldr	r3, [pc, #120]	; (d7e64 <_GLOBAL__sub_I__ZNSt12ctype_bynameIcEC2ERKSsj+0xa0>)
   d7dea:	681a      	ldr	r2, [r3, #0]
   d7dec:	07d0      	lsls	r0, r2, #31
   d7dee:	bf5c      	itt	pl
   d7df0:	2201      	movpl	r2, #1
   d7df2:	601a      	strpl	r2, [r3, #0]
   d7df4:	4b1c      	ldr	r3, [pc, #112]	; (d7e68 <_GLOBAL__sub_I__ZNSt12ctype_bynameIcEC2ERKSsj+0xa4>)
   d7df6:	681a      	ldr	r2, [r3, #0]
   d7df8:	07d1      	lsls	r1, r2, #31
   d7dfa:	bf5c      	itt	pl
   d7dfc:	2201      	movpl	r2, #1
   d7dfe:	601a      	strpl	r2, [r3, #0]
   d7e00:	4b1a      	ldr	r3, [pc, #104]	; (d7e6c <_GLOBAL__sub_I__ZNSt12ctype_bynameIcEC2ERKSsj+0xa8>)
   d7e02:	681a      	ldr	r2, [r3, #0]
   d7e04:	07d2      	lsls	r2, r2, #31
   d7e06:	bf5c      	itt	pl
   d7e08:	2201      	movpl	r2, #1
   d7e0a:	601a      	strpl	r2, [r3, #0]
   d7e0c:	4b18      	ldr	r3, [pc, #96]	; (d7e70 <_GLOBAL__sub_I__ZNSt12ctype_bynameIcEC2ERKSsj+0xac>)
   d7e0e:	681a      	ldr	r2, [r3, #0]
   d7e10:	07d0      	lsls	r0, r2, #31
   d7e12:	bf5c      	itt	pl
   d7e14:	2201      	movpl	r2, #1
   d7e16:	601a      	strpl	r2, [r3, #0]
   d7e18:	4b16      	ldr	r3, [pc, #88]	; (d7e74 <_GLOBAL__sub_I__ZNSt12ctype_bynameIcEC2ERKSsj+0xb0>)
   d7e1a:	681a      	ldr	r2, [r3, #0]
   d7e1c:	07d1      	lsls	r1, r2, #31
   d7e1e:	bf5c      	itt	pl
   d7e20:	2201      	movpl	r2, #1
   d7e22:	601a      	strpl	r2, [r3, #0]
   d7e24:	4b14      	ldr	r3, [pc, #80]	; (d7e78 <_GLOBAL__sub_I__ZNSt12ctype_bynameIcEC2ERKSsj+0xb4>)
   d7e26:	681a      	ldr	r2, [r3, #0]
   d7e28:	07d2      	lsls	r2, r2, #31
   d7e2a:	bf5c      	itt	pl
   d7e2c:	2201      	movpl	r2, #1
   d7e2e:	601a      	strpl	r2, [r3, #0]
   d7e30:	4b12      	ldr	r3, [pc, #72]	; (d7e7c <_GLOBAL__sub_I__ZNSt12ctype_bynameIcEC2ERKSsj+0xb8>)
   d7e32:	681a      	ldr	r2, [r3, #0]
   d7e34:	07d0      	lsls	r0, r2, #31
   d7e36:	bf5c      	itt	pl
   d7e38:	2201      	movpl	r2, #1
   d7e3a:	601a      	strpl	r2, [r3, #0]
   d7e3c:	4b10      	ldr	r3, [pc, #64]	; (d7e80 <_GLOBAL__sub_I__ZNSt12ctype_bynameIcEC2ERKSsj+0xbc>)
   d7e3e:	681a      	ldr	r2, [r3, #0]
   d7e40:	07d1      	lsls	r1, r2, #31
   d7e42:	bf5c      	itt	pl
   d7e44:	2201      	movpl	r2, #1
   d7e46:	601a      	strpl	r2, [r3, #0]
   d7e48:	4b0e      	ldr	r3, [pc, #56]	; (d7e84 <_GLOBAL__sub_I__ZNSt12ctype_bynameIcEC2ERKSsj+0xc0>)
   d7e4a:	681a      	ldr	r2, [r3, #0]
   d7e4c:	07d2      	lsls	r2, r2, #31
   d7e4e:	bf5c      	itt	pl
   d7e50:	2201      	movpl	r2, #1
   d7e52:	601a      	strpl	r2, [r3, #0]
   d7e54:	4770      	bx	lr
   d7e56:	bf00      	nop
   d7e58:	2003e7ec 	.word	0x2003e7ec
   d7e5c:	2003e7e8 	.word	0x2003e7e8
   d7e60:	2003e7e4 	.word	0x2003e7e4
   d7e64:	2003e7e0 	.word	0x2003e7e0
   d7e68:	2003e7dc 	.word	0x2003e7dc
   d7e6c:	2003e7d8 	.word	0x2003e7d8
   d7e70:	2003e7d4 	.word	0x2003e7d4
   d7e74:	2003e7d0 	.word	0x2003e7d0
   d7e78:	2003e7cc 	.word	0x2003e7cc
   d7e7c:	2003e7c8 	.word	0x2003e7c8
   d7e80:	2003e7c4 	.word	0x2003e7c4
   d7e84:	2003e7c0 	.word	0x2003e7c0

000d7e88 <__aeabi_drsub>:
   d7e88:	f081 4100 	eor.w	r1, r1, #2147483648	; 0x80000000
   d7e8c:	e002      	b.n	d7e94 <__adddf3>
   d7e8e:	bf00      	nop

000d7e90 <__aeabi_dsub>:
   d7e90:	f083 4300 	eor.w	r3, r3, #2147483648	; 0x80000000

000d7e94 <__adddf3>:
   d7e94:	b530      	push	{r4, r5, lr}
   d7e96:	ea4f 0441 	mov.w	r4, r1, lsl #1
   d7e9a:	ea4f 0543 	mov.w	r5, r3, lsl #1
   d7e9e:	ea94 0f05 	teq	r4, r5
   d7ea2:	bf08      	it	eq
   d7ea4:	ea90 0f02 	teqeq	r0, r2
   d7ea8:	bf1f      	itttt	ne
   d7eaa:	ea54 0c00 	orrsne.w	ip, r4, r0
   d7eae:	ea55 0c02 	orrsne.w	ip, r5, r2
   d7eb2:	ea7f 5c64 	mvnsne.w	ip, r4, asr #21
   d7eb6:	ea7f 5c65 	mvnsne.w	ip, r5, asr #21
   d7eba:	f000 80e2 	beq.w	d8082 <__adddf3+0x1ee>
   d7ebe:	ea4f 5454 	mov.w	r4, r4, lsr #21
   d7ec2:	ebd4 5555 	rsbs	r5, r4, r5, lsr #21
   d7ec6:	bfb8      	it	lt
   d7ec8:	426d      	neglt	r5, r5
   d7eca:	dd0c      	ble.n	d7ee6 <__adddf3+0x52>
   d7ecc:	442c      	add	r4, r5
   d7ece:	ea80 0202 	eor.w	r2, r0, r2
   d7ed2:	ea81 0303 	eor.w	r3, r1, r3
   d7ed6:	ea82 0000 	eor.w	r0, r2, r0
   d7eda:	ea83 0101 	eor.w	r1, r3, r1
   d7ede:	ea80 0202 	eor.w	r2, r0, r2
   d7ee2:	ea81 0303 	eor.w	r3, r1, r3
   d7ee6:	2d36      	cmp	r5, #54	; 0x36
   d7ee8:	bf88      	it	hi
   d7eea:	bd30      	pophi	{r4, r5, pc}
   d7eec:	f011 4f00 	tst.w	r1, #2147483648	; 0x80000000
   d7ef0:	ea4f 3101 	mov.w	r1, r1, lsl #12
   d7ef4:	f44f 1c80 	mov.w	ip, #1048576	; 0x100000
   d7ef8:	ea4c 3111 	orr.w	r1, ip, r1, lsr #12
   d7efc:	d002      	beq.n	d7f04 <__adddf3+0x70>
   d7efe:	4240      	negs	r0, r0
   d7f00:	eb61 0141 	sbc.w	r1, r1, r1, lsl #1
   d7f04:	f013 4f00 	tst.w	r3, #2147483648	; 0x80000000
   d7f08:	ea4f 3303 	mov.w	r3, r3, lsl #12
   d7f0c:	ea4c 3313 	orr.w	r3, ip, r3, lsr #12
   d7f10:	d002      	beq.n	d7f18 <__adddf3+0x84>
   d7f12:	4252      	negs	r2, r2
   d7f14:	eb63 0343 	sbc.w	r3, r3, r3, lsl #1
   d7f18:	ea94 0f05 	teq	r4, r5
   d7f1c:	f000 80a7 	beq.w	d806e <__adddf3+0x1da>
   d7f20:	f1a4 0401 	sub.w	r4, r4, #1
   d7f24:	f1d5 0e20 	rsbs	lr, r5, #32
   d7f28:	db0d      	blt.n	d7f46 <__adddf3+0xb2>
   d7f2a:	fa02 fc0e 	lsl.w	ip, r2, lr
   d7f2e:	fa22 f205 	lsr.w	r2, r2, r5
   d7f32:	1880      	adds	r0, r0, r2
   d7f34:	f141 0100 	adc.w	r1, r1, #0
   d7f38:	fa03 f20e 	lsl.w	r2, r3, lr
   d7f3c:	1880      	adds	r0, r0, r2
   d7f3e:	fa43 f305 	asr.w	r3, r3, r5
   d7f42:	4159      	adcs	r1, r3
   d7f44:	e00e      	b.n	d7f64 <__adddf3+0xd0>
   d7f46:	f1a5 0520 	sub.w	r5, r5, #32
   d7f4a:	f10e 0e20 	add.w	lr, lr, #32
   d7f4e:	2a01      	cmp	r2, #1
   d7f50:	fa03 fc0e 	lsl.w	ip, r3, lr
   d7f54:	bf28      	it	cs
   d7f56:	f04c 0c02 	orrcs.w	ip, ip, #2
   d7f5a:	fa43 f305 	asr.w	r3, r3, r5
   d7f5e:	18c0      	adds	r0, r0, r3
   d7f60:	eb51 71e3 	adcs.w	r1, r1, r3, asr #31
   d7f64:	f001 4500 	and.w	r5, r1, #2147483648	; 0x80000000
   d7f68:	d507      	bpl.n	d7f7a <__adddf3+0xe6>
   d7f6a:	f04f 0e00 	mov.w	lr, #0
   d7f6e:	f1dc 0c00 	rsbs	ip, ip, #0
   d7f72:	eb7e 0000 	sbcs.w	r0, lr, r0
   d7f76:	eb6e 0101 	sbc.w	r1, lr, r1
   d7f7a:	f5b1 1f80 	cmp.w	r1, #1048576	; 0x100000
   d7f7e:	d31b      	bcc.n	d7fb8 <__adddf3+0x124>
   d7f80:	f5b1 1f00 	cmp.w	r1, #2097152	; 0x200000
   d7f84:	d30c      	bcc.n	d7fa0 <__adddf3+0x10c>
   d7f86:	0849      	lsrs	r1, r1, #1
   d7f88:	ea5f 0030 	movs.w	r0, r0, rrx
   d7f8c:	ea4f 0c3c 	mov.w	ip, ip, rrx
   d7f90:	f104 0401 	add.w	r4, r4, #1
   d7f94:	ea4f 5244 	mov.w	r2, r4, lsl #21
   d7f98:	f512 0f80 	cmn.w	r2, #4194304	; 0x400000
   d7f9c:	f080 809a 	bcs.w	d80d4 <__adddf3+0x240>
   d7fa0:	f1bc 4f00 	cmp.w	ip, #2147483648	; 0x80000000
   d7fa4:	bf08      	it	eq
   d7fa6:	ea5f 0c50 	movseq.w	ip, r0, lsr #1
   d7faa:	f150 0000 	adcs.w	r0, r0, #0
   d7fae:	eb41 5104 	adc.w	r1, r1, r4, lsl #20
   d7fb2:	ea41 0105 	orr.w	r1, r1, r5
   d7fb6:	bd30      	pop	{r4, r5, pc}
   d7fb8:	ea5f 0c4c 	movs.w	ip, ip, lsl #1
   d7fbc:	4140      	adcs	r0, r0
   d7fbe:	eb41 0101 	adc.w	r1, r1, r1
   d7fc2:	f411 1f80 	tst.w	r1, #1048576	; 0x100000
   d7fc6:	f1a4 0401 	sub.w	r4, r4, #1
   d7fca:	d1e9      	bne.n	d7fa0 <__adddf3+0x10c>
   d7fcc:	f091 0f00 	teq	r1, #0
   d7fd0:	bf04      	itt	eq
   d7fd2:	4601      	moveq	r1, r0
   d7fd4:	2000      	moveq	r0, #0
   d7fd6:	fab1 f381 	clz	r3, r1
   d7fda:	bf08      	it	eq
   d7fdc:	3320      	addeq	r3, #32
   d7fde:	f1a3 030b 	sub.w	r3, r3, #11
   d7fe2:	f1b3 0220 	subs.w	r2, r3, #32
   d7fe6:	da0c      	bge.n	d8002 <__adddf3+0x16e>
   d7fe8:	320c      	adds	r2, #12
   d7fea:	dd08      	ble.n	d7ffe <__adddf3+0x16a>
   d7fec:	f102 0c14 	add.w	ip, r2, #20
   d7ff0:	f1c2 020c 	rsb	r2, r2, #12
   d7ff4:	fa01 f00c 	lsl.w	r0, r1, ip
   d7ff8:	fa21 f102 	lsr.w	r1, r1, r2
   d7ffc:	e00c      	b.n	d8018 <__adddf3+0x184>
   d7ffe:	f102 0214 	add.w	r2, r2, #20
   d8002:	bfd8      	it	le
   d8004:	f1c2 0c20 	rsble	ip, r2, #32
   d8008:	fa01 f102 	lsl.w	r1, r1, r2
   d800c:	fa20 fc0c 	lsr.w	ip, r0, ip
   d8010:	bfdc      	itt	le
   d8012:	ea41 010c 	orrle.w	r1, r1, ip
   d8016:	4090      	lslle	r0, r2
   d8018:	1ae4      	subs	r4, r4, r3
   d801a:	bfa2      	ittt	ge
   d801c:	eb01 5104 	addge.w	r1, r1, r4, lsl #20
   d8020:	4329      	orrge	r1, r5
   d8022:	bd30      	popge	{r4, r5, pc}
   d8024:	ea6f 0404 	mvn.w	r4, r4
   d8028:	3c1f      	subs	r4, #31
   d802a:	da1c      	bge.n	d8066 <__adddf3+0x1d2>
   d802c:	340c      	adds	r4, #12
   d802e:	dc0e      	bgt.n	d804e <__adddf3+0x1ba>
   d8030:	f104 0414 	add.w	r4, r4, #20
   d8034:	f1c4 0220 	rsb	r2, r4, #32
   d8038:	fa20 f004 	lsr.w	r0, r0, r4
   d803c:	fa01 f302 	lsl.w	r3, r1, r2
   d8040:	ea40 0003 	orr.w	r0, r0, r3
   d8044:	fa21 f304 	lsr.w	r3, r1, r4
   d8048:	ea45 0103 	orr.w	r1, r5, r3
   d804c:	bd30      	pop	{r4, r5, pc}
   d804e:	f1c4 040c 	rsb	r4, r4, #12
   d8052:	f1c4 0220 	rsb	r2, r4, #32
   d8056:	fa20 f002 	lsr.w	r0, r0, r2
   d805a:	fa01 f304 	lsl.w	r3, r1, r4
   d805e:	ea40 0003 	orr.w	r0, r0, r3
   d8062:	4629      	mov	r1, r5
   d8064:	bd30      	pop	{r4, r5, pc}
   d8066:	fa21 f004 	lsr.w	r0, r1, r4
   d806a:	4629      	mov	r1, r5
   d806c:	bd30      	pop	{r4, r5, pc}
   d806e:	f094 0f00 	teq	r4, #0
   d8072:	f483 1380 	eor.w	r3, r3, #1048576	; 0x100000
   d8076:	bf06      	itte	eq
   d8078:	f481 1180 	eoreq.w	r1, r1, #1048576	; 0x100000
   d807c:	3401      	addeq	r4, #1
   d807e:	3d01      	subne	r5, #1
   d8080:	e74e      	b.n	d7f20 <__adddf3+0x8c>
   d8082:	ea7f 5c64 	mvns.w	ip, r4, asr #21
   d8086:	bf18      	it	ne
   d8088:	ea7f 5c65 	mvnsne.w	ip, r5, asr #21
   d808c:	d029      	beq.n	d80e2 <__adddf3+0x24e>
   d808e:	ea94 0f05 	teq	r4, r5
   d8092:	bf08      	it	eq
   d8094:	ea90 0f02 	teqeq	r0, r2
   d8098:	d005      	beq.n	d80a6 <__adddf3+0x212>
   d809a:	ea54 0c00 	orrs.w	ip, r4, r0
   d809e:	bf04      	itt	eq
   d80a0:	4619      	moveq	r1, r3
   d80a2:	4610      	moveq	r0, r2
   d80a4:	bd30      	pop	{r4, r5, pc}
   d80a6:	ea91 0f03 	teq	r1, r3
   d80aa:	bf1e      	ittt	ne
   d80ac:	2100      	movne	r1, #0
   d80ae:	2000      	movne	r0, #0
   d80b0:	bd30      	popne	{r4, r5, pc}
   d80b2:	ea5f 5c54 	movs.w	ip, r4, lsr #21
   d80b6:	d105      	bne.n	d80c4 <__adddf3+0x230>
   d80b8:	0040      	lsls	r0, r0, #1
   d80ba:	4149      	adcs	r1, r1
   d80bc:	bf28      	it	cs
   d80be:	f041 4100 	orrcs.w	r1, r1, #2147483648	; 0x80000000
   d80c2:	bd30      	pop	{r4, r5, pc}
   d80c4:	f514 0480 	adds.w	r4, r4, #4194304	; 0x400000
   d80c8:	bf3c      	itt	cc
   d80ca:	f501 1180 	addcc.w	r1, r1, #1048576	; 0x100000
   d80ce:	bd30      	popcc	{r4, r5, pc}
   d80d0:	f001 4500 	and.w	r5, r1, #2147483648	; 0x80000000
   d80d4:	f045 41fe 	orr.w	r1, r5, #2130706432	; 0x7f000000
   d80d8:	f441 0170 	orr.w	r1, r1, #15728640	; 0xf00000
   d80dc:	f04f 0000 	mov.w	r0, #0
   d80e0:	bd30      	pop	{r4, r5, pc}
   d80e2:	ea7f 5c64 	mvns.w	ip, r4, asr #21
   d80e6:	bf1a      	itte	ne
   d80e8:	4619      	movne	r1, r3
   d80ea:	4610      	movne	r0, r2
   d80ec:	ea7f 5c65 	mvnseq.w	ip, r5, asr #21
   d80f0:	bf1c      	itt	ne
   d80f2:	460b      	movne	r3, r1
   d80f4:	4602      	movne	r2, r0
   d80f6:	ea50 3401 	orrs.w	r4, r0, r1, lsl #12
   d80fa:	bf06      	itte	eq
   d80fc:	ea52 3503 	orrseq.w	r5, r2, r3, lsl #12
   d8100:	ea91 0f03 	teqeq	r1, r3
   d8104:	f441 2100 	orrne.w	r1, r1, #524288	; 0x80000
   d8108:	bd30      	pop	{r4, r5, pc}
   d810a:	bf00      	nop

000d810c <__aeabi_ui2d>:
   d810c:	f090 0f00 	teq	r0, #0
   d8110:	bf04      	itt	eq
   d8112:	2100      	moveq	r1, #0
   d8114:	4770      	bxeq	lr
   d8116:	b530      	push	{r4, r5, lr}
   d8118:	f44f 6480 	mov.w	r4, #1024	; 0x400
   d811c:	f104 0432 	add.w	r4, r4, #50	; 0x32
   d8120:	f04f 0500 	mov.w	r5, #0
   d8124:	f04f 0100 	mov.w	r1, #0
   d8128:	e750      	b.n	d7fcc <__adddf3+0x138>
   d812a:	bf00      	nop

000d812c <__aeabi_i2d>:
   d812c:	f090 0f00 	teq	r0, #0
   d8130:	bf04      	itt	eq
   d8132:	2100      	moveq	r1, #0
   d8134:	4770      	bxeq	lr
   d8136:	b530      	push	{r4, r5, lr}
   d8138:	f44f 6480 	mov.w	r4, #1024	; 0x400
   d813c:	f104 0432 	add.w	r4, r4, #50	; 0x32
   d8140:	f010 4500 	ands.w	r5, r0, #2147483648	; 0x80000000
   d8144:	bf48      	it	mi
   d8146:	4240      	negmi	r0, r0
   d8148:	f04f 0100 	mov.w	r1, #0
   d814c:	e73e      	b.n	d7fcc <__adddf3+0x138>
   d814e:	bf00      	nop

000d8150 <__aeabi_f2d>:
   d8150:	0042      	lsls	r2, r0, #1
   d8152:	ea4f 01e2 	mov.w	r1, r2, asr #3
   d8156:	ea4f 0131 	mov.w	r1, r1, rrx
   d815a:	ea4f 7002 	mov.w	r0, r2, lsl #28
   d815e:	bf1f      	itttt	ne
   d8160:	f012 437f 	andsne.w	r3, r2, #4278190080	; 0xff000000
   d8164:	f093 4f7f 	teqne	r3, #4278190080	; 0xff000000
   d8168:	f081 5160 	eorne.w	r1, r1, #939524096	; 0x38000000
   d816c:	4770      	bxne	lr
   d816e:	f092 0f00 	teq	r2, #0
   d8172:	bf14      	ite	ne
   d8174:	f093 4f7f 	teqne	r3, #4278190080	; 0xff000000
   d8178:	4770      	bxeq	lr
   d817a:	b530      	push	{r4, r5, lr}
   d817c:	f44f 7460 	mov.w	r4, #896	; 0x380
   d8180:	f001 4500 	and.w	r5, r1, #2147483648	; 0x80000000
   d8184:	f021 4100 	bic.w	r1, r1, #2147483648	; 0x80000000
   d8188:	e720      	b.n	d7fcc <__adddf3+0x138>
   d818a:	bf00      	nop

000d818c <__aeabi_ul2d>:
   d818c:	ea50 0201 	orrs.w	r2, r0, r1
   d8190:	bf08      	it	eq
   d8192:	4770      	bxeq	lr
   d8194:	b530      	push	{r4, r5, lr}
   d8196:	f04f 0500 	mov.w	r5, #0
   d819a:	e00a      	b.n	d81b2 <__aeabi_l2d+0x16>

000d819c <__aeabi_l2d>:
   d819c:	ea50 0201 	orrs.w	r2, r0, r1
   d81a0:	bf08      	it	eq
   d81a2:	4770      	bxeq	lr
   d81a4:	b530      	push	{r4, r5, lr}
   d81a6:	f011 4500 	ands.w	r5, r1, #2147483648	; 0x80000000
   d81aa:	d502      	bpl.n	d81b2 <__aeabi_l2d+0x16>
   d81ac:	4240      	negs	r0, r0
   d81ae:	eb61 0141 	sbc.w	r1, r1, r1, lsl #1
   d81b2:	f44f 6480 	mov.w	r4, #1024	; 0x400
   d81b6:	f104 0432 	add.w	r4, r4, #50	; 0x32
   d81ba:	ea5f 5c91 	movs.w	ip, r1, lsr #22
   d81be:	f43f aedc 	beq.w	d7f7a <__adddf3+0xe6>
   d81c2:	f04f 0203 	mov.w	r2, #3
   d81c6:	ea5f 0cdc 	movs.w	ip, ip, lsr #3
   d81ca:	bf18      	it	ne
   d81cc:	3203      	addne	r2, #3
   d81ce:	ea5f 0cdc 	movs.w	ip, ip, lsr #3
   d81d2:	bf18      	it	ne
   d81d4:	3203      	addne	r2, #3
   d81d6:	eb02 02dc 	add.w	r2, r2, ip, lsr #3
   d81da:	f1c2 0320 	rsb	r3, r2, #32
   d81de:	fa00 fc03 	lsl.w	ip, r0, r3
   d81e2:	fa20 f002 	lsr.w	r0, r0, r2
   d81e6:	fa01 fe03 	lsl.w	lr, r1, r3
   d81ea:	ea40 000e 	orr.w	r0, r0, lr
   d81ee:	fa21 f102 	lsr.w	r1, r1, r2
   d81f2:	4414      	add	r4, r2
   d81f4:	e6c1      	b.n	d7f7a <__adddf3+0xe6>
   d81f6:	bf00      	nop

000d81f8 <__aeabi_dmul>:
   d81f8:	b570      	push	{r4, r5, r6, lr}
   d81fa:	f04f 0cff 	mov.w	ip, #255	; 0xff
   d81fe:	f44c 6ce0 	orr.w	ip, ip, #1792	; 0x700
   d8202:	ea1c 5411 	ands.w	r4, ip, r1, lsr #20
   d8206:	bf1d      	ittte	ne
   d8208:	ea1c 5513 	andsne.w	r5, ip, r3, lsr #20
   d820c:	ea94 0f0c 	teqne	r4, ip
   d8210:	ea95 0f0c 	teqne	r5, ip
   d8214:	f000 f8de 	bleq	d83d4 <__aeabi_dmul+0x1dc>
   d8218:	442c      	add	r4, r5
   d821a:	ea81 0603 	eor.w	r6, r1, r3
   d821e:	ea21 514c 	bic.w	r1, r1, ip, lsl #21
   d8222:	ea23 534c 	bic.w	r3, r3, ip, lsl #21
   d8226:	ea50 3501 	orrs.w	r5, r0, r1, lsl #12
   d822a:	bf18      	it	ne
   d822c:	ea52 3503 	orrsne.w	r5, r2, r3, lsl #12
   d8230:	f441 1180 	orr.w	r1, r1, #1048576	; 0x100000
   d8234:	f443 1380 	orr.w	r3, r3, #1048576	; 0x100000
   d8238:	d038      	beq.n	d82ac <__aeabi_dmul+0xb4>
   d823a:	fba0 ce02 	umull	ip, lr, r0, r2
   d823e:	f04f 0500 	mov.w	r5, #0
   d8242:	fbe1 e502 	umlal	lr, r5, r1, r2
   d8246:	f006 4200 	and.w	r2, r6, #2147483648	; 0x80000000
   d824a:	fbe0 e503 	umlal	lr, r5, r0, r3
   d824e:	f04f 0600 	mov.w	r6, #0
   d8252:	fbe1 5603 	umlal	r5, r6, r1, r3
   d8256:	f09c 0f00 	teq	ip, #0
   d825a:	bf18      	it	ne
   d825c:	f04e 0e01 	orrne.w	lr, lr, #1
   d8260:	f1a4 04ff 	sub.w	r4, r4, #255	; 0xff
   d8264:	f5b6 7f00 	cmp.w	r6, #512	; 0x200
   d8268:	f564 7440 	sbc.w	r4, r4, #768	; 0x300
   d826c:	d204      	bcs.n	d8278 <__aeabi_dmul+0x80>
   d826e:	ea5f 0e4e 	movs.w	lr, lr, lsl #1
   d8272:	416d      	adcs	r5, r5
   d8274:	eb46 0606 	adc.w	r6, r6, r6
   d8278:	ea42 21c6 	orr.w	r1, r2, r6, lsl #11
   d827c:	ea41 5155 	orr.w	r1, r1, r5, lsr #21
   d8280:	ea4f 20c5 	mov.w	r0, r5, lsl #11
   d8284:	ea40 505e 	orr.w	r0, r0, lr, lsr #21
   d8288:	ea4f 2ece 	mov.w	lr, lr, lsl #11
   d828c:	f1b4 0cfd 	subs.w	ip, r4, #253	; 0xfd
   d8290:	bf88      	it	hi
   d8292:	f5bc 6fe0 	cmphi.w	ip, #1792	; 0x700
   d8296:	d81e      	bhi.n	d82d6 <__aeabi_dmul+0xde>
   d8298:	f1be 4f00 	cmp.w	lr, #2147483648	; 0x80000000
   d829c:	bf08      	it	eq
   d829e:	ea5f 0e50 	movseq.w	lr, r0, lsr #1
   d82a2:	f150 0000 	adcs.w	r0, r0, #0
   d82a6:	eb41 5104 	adc.w	r1, r1, r4, lsl #20
   d82aa:	bd70      	pop	{r4, r5, r6, pc}
   d82ac:	f006 4600 	and.w	r6, r6, #2147483648	; 0x80000000
   d82b0:	ea46 0101 	orr.w	r1, r6, r1
   d82b4:	ea40 0002 	orr.w	r0, r0, r2
   d82b8:	ea81 0103 	eor.w	r1, r1, r3
   d82bc:	ebb4 045c 	subs.w	r4, r4, ip, lsr #1
   d82c0:	bfc2      	ittt	gt
   d82c2:	ebd4 050c 	rsbsgt	r5, r4, ip
   d82c6:	ea41 5104 	orrgt.w	r1, r1, r4, lsl #20
   d82ca:	bd70      	popgt	{r4, r5, r6, pc}
   d82cc:	f441 1180 	orr.w	r1, r1, #1048576	; 0x100000
   d82d0:	f04f 0e00 	mov.w	lr, #0
   d82d4:	3c01      	subs	r4, #1
   d82d6:	f300 80ab 	bgt.w	d8430 <__aeabi_dmul+0x238>
   d82da:	f114 0f36 	cmn.w	r4, #54	; 0x36
   d82de:	bfde      	ittt	le
   d82e0:	2000      	movle	r0, #0
   d82e2:	f001 4100 	andle.w	r1, r1, #2147483648	; 0x80000000
   d82e6:	bd70      	pople	{r4, r5, r6, pc}
   d82e8:	f1c4 0400 	rsb	r4, r4, #0
   d82ec:	3c20      	subs	r4, #32
   d82ee:	da35      	bge.n	d835c <__aeabi_dmul+0x164>
   d82f0:	340c      	adds	r4, #12
   d82f2:	dc1b      	bgt.n	d832c <__aeabi_dmul+0x134>
   d82f4:	f104 0414 	add.w	r4, r4, #20
   d82f8:	f1c4 0520 	rsb	r5, r4, #32
   d82fc:	fa00 f305 	lsl.w	r3, r0, r5
   d8300:	fa20 f004 	lsr.w	r0, r0, r4
   d8304:	fa01 f205 	lsl.w	r2, r1, r5
   d8308:	ea40 0002 	orr.w	r0, r0, r2
   d830c:	f001 4200 	and.w	r2, r1, #2147483648	; 0x80000000
   d8310:	f021 4100 	bic.w	r1, r1, #2147483648	; 0x80000000
   d8314:	eb10 70d3 	adds.w	r0, r0, r3, lsr #31
   d8318:	fa21 f604 	lsr.w	r6, r1, r4
   d831c:	eb42 0106 	adc.w	r1, r2, r6
   d8320:	ea5e 0e43 	orrs.w	lr, lr, r3, lsl #1
   d8324:	bf08      	it	eq
   d8326:	ea20 70d3 	biceq.w	r0, r0, r3, lsr #31
   d832a:	bd70      	pop	{r4, r5, r6, pc}
   d832c:	f1c4 040c 	rsb	r4, r4, #12
   d8330:	f1c4 0520 	rsb	r5, r4, #32
   d8334:	fa00 f304 	lsl.w	r3, r0, r4
   d8338:	fa20 f005 	lsr.w	r0, r0, r5
   d833c:	fa01 f204 	lsl.w	r2, r1, r4
   d8340:	ea40 0002 	orr.w	r0, r0, r2
   d8344:	f001 4100 	and.w	r1, r1, #2147483648	; 0x80000000
   d8348:	eb10 70d3 	adds.w	r0, r0, r3, lsr #31
   d834c:	f141 0100 	adc.w	r1, r1, #0
   d8350:	ea5e 0e43 	orrs.w	lr, lr, r3, lsl #1
   d8354:	bf08      	it	eq
   d8356:	ea20 70d3 	biceq.w	r0, r0, r3, lsr #31
   d835a:	bd70      	pop	{r4, r5, r6, pc}
   d835c:	f1c4 0520 	rsb	r5, r4, #32
   d8360:	fa00 f205 	lsl.w	r2, r0, r5
   d8364:	ea4e 0e02 	orr.w	lr, lr, r2
   d8368:	fa20 f304 	lsr.w	r3, r0, r4
   d836c:	fa01 f205 	lsl.w	r2, r1, r5
   d8370:	ea43 0302 	orr.w	r3, r3, r2
   d8374:	fa21 f004 	lsr.w	r0, r1, r4
   d8378:	f001 4100 	and.w	r1, r1, #2147483648	; 0x80000000
   d837c:	fa21 f204 	lsr.w	r2, r1, r4
   d8380:	ea20 0002 	bic.w	r0, r0, r2
   d8384:	eb00 70d3 	add.w	r0, r0, r3, lsr #31
   d8388:	ea5e 0e43 	orrs.w	lr, lr, r3, lsl #1
   d838c:	bf08      	it	eq
   d838e:	ea20 70d3 	biceq.w	r0, r0, r3, lsr #31
   d8392:	bd70      	pop	{r4, r5, r6, pc}
   d8394:	f094 0f00 	teq	r4, #0
   d8398:	d10f      	bne.n	d83ba <__aeabi_dmul+0x1c2>
   d839a:	f001 4600 	and.w	r6, r1, #2147483648	; 0x80000000
   d839e:	0040      	lsls	r0, r0, #1
   d83a0:	eb41 0101 	adc.w	r1, r1, r1
   d83a4:	f411 1f80 	tst.w	r1, #1048576	; 0x100000
   d83a8:	bf08      	it	eq
   d83aa:	3c01      	subeq	r4, #1
   d83ac:	d0f7      	beq.n	d839e <__aeabi_dmul+0x1a6>
   d83ae:	ea41 0106 	orr.w	r1, r1, r6
   d83b2:	f095 0f00 	teq	r5, #0
   d83b6:	bf18      	it	ne
   d83b8:	4770      	bxne	lr
   d83ba:	f003 4600 	and.w	r6, r3, #2147483648	; 0x80000000
   d83be:	0052      	lsls	r2, r2, #1
   d83c0:	eb43 0303 	adc.w	r3, r3, r3
   d83c4:	f413 1f80 	tst.w	r3, #1048576	; 0x100000
   d83c8:	bf08      	it	eq
   d83ca:	3d01      	subeq	r5, #1
   d83cc:	d0f7      	beq.n	d83be <__aeabi_dmul+0x1c6>
   d83ce:	ea43 0306 	orr.w	r3, r3, r6
   d83d2:	4770      	bx	lr
   d83d4:	ea94 0f0c 	teq	r4, ip
   d83d8:	ea0c 5513 	and.w	r5, ip, r3, lsr #20
   d83dc:	bf18      	it	ne
   d83de:	ea95 0f0c 	teqne	r5, ip
   d83e2:	d00c      	beq.n	d83fe <__aeabi_dmul+0x206>
   d83e4:	ea50 0641 	orrs.w	r6, r0, r1, lsl #1
   d83e8:	bf18      	it	ne
   d83ea:	ea52 0643 	orrsne.w	r6, r2, r3, lsl #1
   d83ee:	d1d1      	bne.n	d8394 <__aeabi_dmul+0x19c>
   d83f0:	ea81 0103 	eor.w	r1, r1, r3
   d83f4:	f001 4100 	and.w	r1, r1, #2147483648	; 0x80000000
   d83f8:	f04f 0000 	mov.w	r0, #0
   d83fc:	bd70      	pop	{r4, r5, r6, pc}
   d83fe:	ea50 0641 	orrs.w	r6, r0, r1, lsl #1
   d8402:	bf06      	itte	eq
   d8404:	4610      	moveq	r0, r2
   d8406:	4619      	moveq	r1, r3
   d8408:	ea52 0643 	orrsne.w	r6, r2, r3, lsl #1
   d840c:	d019      	beq.n	d8442 <__aeabi_dmul+0x24a>
   d840e:	ea94 0f0c 	teq	r4, ip
   d8412:	d102      	bne.n	d841a <__aeabi_dmul+0x222>
   d8414:	ea50 3601 	orrs.w	r6, r0, r1, lsl #12
   d8418:	d113      	bne.n	d8442 <__aeabi_dmul+0x24a>
   d841a:	ea95 0f0c 	teq	r5, ip
   d841e:	d105      	bne.n	d842c <__aeabi_dmul+0x234>
   d8420:	ea52 3603 	orrs.w	r6, r2, r3, lsl #12
   d8424:	bf1c      	itt	ne
   d8426:	4610      	movne	r0, r2
   d8428:	4619      	movne	r1, r3
   d842a:	d10a      	bne.n	d8442 <__aeabi_dmul+0x24a>
   d842c:	ea81 0103 	eor.w	r1, r1, r3
   d8430:	f001 4100 	and.w	r1, r1, #2147483648	; 0x80000000
   d8434:	f041 41fe 	orr.w	r1, r1, #2130706432	; 0x7f000000
   d8438:	f441 0170 	orr.w	r1, r1, #15728640	; 0xf00000
   d843c:	f04f 0000 	mov.w	r0, #0
   d8440:	bd70      	pop	{r4, r5, r6, pc}
   d8442:	f041 41fe 	orr.w	r1, r1, #2130706432	; 0x7f000000
   d8446:	f441 0178 	orr.w	r1, r1, #16252928	; 0xf80000
   d844a:	bd70      	pop	{r4, r5, r6, pc}

000d844c <__aeabi_ddiv>:
   d844c:	b570      	push	{r4, r5, r6, lr}
   d844e:	f04f 0cff 	mov.w	ip, #255	; 0xff
   d8452:	f44c 6ce0 	orr.w	ip, ip, #1792	; 0x700
   d8456:	ea1c 5411 	ands.w	r4, ip, r1, lsr #20
   d845a:	bf1d      	ittte	ne
   d845c:	ea1c 5513 	andsne.w	r5, ip, r3, lsr #20
   d8460:	ea94 0f0c 	teqne	r4, ip
   d8464:	ea95 0f0c 	teqne	r5, ip
   d8468:	f000 f8a7 	bleq	d85ba <__aeabi_ddiv+0x16e>
   d846c:	eba4 0405 	sub.w	r4, r4, r5
   d8470:	ea81 0e03 	eor.w	lr, r1, r3
   d8474:	ea52 3503 	orrs.w	r5, r2, r3, lsl #12
   d8478:	ea4f 3101 	mov.w	r1, r1, lsl #12
   d847c:	f000 8088 	beq.w	d8590 <__aeabi_ddiv+0x144>
   d8480:	ea4f 3303 	mov.w	r3, r3, lsl #12
   d8484:	f04f 5580 	mov.w	r5, #268435456	; 0x10000000
   d8488:	ea45 1313 	orr.w	r3, r5, r3, lsr #4
   d848c:	ea43 6312 	orr.w	r3, r3, r2, lsr #24
   d8490:	ea4f 2202 	mov.w	r2, r2, lsl #8
   d8494:	ea45 1511 	orr.w	r5, r5, r1, lsr #4
   d8498:	ea45 6510 	orr.w	r5, r5, r0, lsr #24
   d849c:	ea4f 2600 	mov.w	r6, r0, lsl #8
   d84a0:	f00e 4100 	and.w	r1, lr, #2147483648	; 0x80000000
   d84a4:	429d      	cmp	r5, r3
   d84a6:	bf08      	it	eq
   d84a8:	4296      	cmpeq	r6, r2
   d84aa:	f144 04fd 	adc.w	r4, r4, #253	; 0xfd
   d84ae:	f504 7440 	add.w	r4, r4, #768	; 0x300
   d84b2:	d202      	bcs.n	d84ba <__aeabi_ddiv+0x6e>
   d84b4:	085b      	lsrs	r3, r3, #1
   d84b6:	ea4f 0232 	mov.w	r2, r2, rrx
   d84ba:	1ab6      	subs	r6, r6, r2
   d84bc:	eb65 0503 	sbc.w	r5, r5, r3
   d84c0:	085b      	lsrs	r3, r3, #1
   d84c2:	ea4f 0232 	mov.w	r2, r2, rrx
   d84c6:	f44f 1080 	mov.w	r0, #1048576	; 0x100000
   d84ca:	f44f 2c00 	mov.w	ip, #524288	; 0x80000
   d84ce:	ebb6 0e02 	subs.w	lr, r6, r2
   d84d2:	eb75 0e03 	sbcs.w	lr, r5, r3
   d84d6:	bf22      	ittt	cs
   d84d8:	1ab6      	subcs	r6, r6, r2
   d84da:	4675      	movcs	r5, lr
   d84dc:	ea40 000c 	orrcs.w	r0, r0, ip
   d84e0:	085b      	lsrs	r3, r3, #1
   d84e2:	ea4f 0232 	mov.w	r2, r2, rrx
   d84e6:	ebb6 0e02 	subs.w	lr, r6, r2
   d84ea:	eb75 0e03 	sbcs.w	lr, r5, r3
   d84ee:	bf22      	ittt	cs
   d84f0:	1ab6      	subcs	r6, r6, r2
   d84f2:	4675      	movcs	r5, lr
   d84f4:	ea40 005c 	orrcs.w	r0, r0, ip, lsr #1
   d84f8:	085b      	lsrs	r3, r3, #1
   d84fa:	ea4f 0232 	mov.w	r2, r2, rrx
   d84fe:	ebb6 0e02 	subs.w	lr, r6, r2
   d8502:	eb75 0e03 	sbcs.w	lr, r5, r3
   d8506:	bf22      	ittt	cs
   d8508:	1ab6      	subcs	r6, r6, r2
   d850a:	4675      	movcs	r5, lr
   d850c:	ea40 009c 	orrcs.w	r0, r0, ip, lsr #2
   d8510:	085b      	lsrs	r3, r3, #1
   d8512:	ea4f 0232 	mov.w	r2, r2, rrx
   d8516:	ebb6 0e02 	subs.w	lr, r6, r2
   d851a:	eb75 0e03 	sbcs.w	lr, r5, r3
   d851e:	bf22      	ittt	cs
   d8520:	1ab6      	subcs	r6, r6, r2
   d8522:	4675      	movcs	r5, lr
   d8524:	ea40 00dc 	orrcs.w	r0, r0, ip, lsr #3
   d8528:	ea55 0e06 	orrs.w	lr, r5, r6
   d852c:	d018      	beq.n	d8560 <__aeabi_ddiv+0x114>
   d852e:	ea4f 1505 	mov.w	r5, r5, lsl #4
   d8532:	ea45 7516 	orr.w	r5, r5, r6, lsr #28
   d8536:	ea4f 1606 	mov.w	r6, r6, lsl #4
   d853a:	ea4f 03c3 	mov.w	r3, r3, lsl #3
   d853e:	ea43 7352 	orr.w	r3, r3, r2, lsr #29
   d8542:	ea4f 02c2 	mov.w	r2, r2, lsl #3
   d8546:	ea5f 1c1c 	movs.w	ip, ip, lsr #4
   d854a:	d1c0      	bne.n	d84ce <__aeabi_ddiv+0x82>
   d854c:	f411 1f80 	tst.w	r1, #1048576	; 0x100000
   d8550:	d10b      	bne.n	d856a <__aeabi_ddiv+0x11e>
   d8552:	ea41 0100 	orr.w	r1, r1, r0
   d8556:	f04f 0000 	mov.w	r0, #0
   d855a:	f04f 4c00 	mov.w	ip, #2147483648	; 0x80000000
   d855e:	e7b6      	b.n	d84ce <__aeabi_ddiv+0x82>
   d8560:	f411 1f80 	tst.w	r1, #1048576	; 0x100000
   d8564:	bf04      	itt	eq
   d8566:	4301      	orreq	r1, r0
   d8568:	2000      	moveq	r0, #0
   d856a:	f1b4 0cfd 	subs.w	ip, r4, #253	; 0xfd
   d856e:	bf88      	it	hi
   d8570:	f5bc 6fe0 	cmphi.w	ip, #1792	; 0x700
   d8574:	f63f aeaf 	bhi.w	d82d6 <__aeabi_dmul+0xde>
   d8578:	ebb5 0c03 	subs.w	ip, r5, r3
   d857c:	bf04      	itt	eq
   d857e:	ebb6 0c02 	subseq.w	ip, r6, r2
   d8582:	ea5f 0c50 	movseq.w	ip, r0, lsr #1
   d8586:	f150 0000 	adcs.w	r0, r0, #0
   d858a:	eb41 5104 	adc.w	r1, r1, r4, lsl #20
   d858e:	bd70      	pop	{r4, r5, r6, pc}
   d8590:	f00e 4e00 	and.w	lr, lr, #2147483648	; 0x80000000
   d8594:	ea4e 3111 	orr.w	r1, lr, r1, lsr #12
   d8598:	eb14 045c 	adds.w	r4, r4, ip, lsr #1
   d859c:	bfc2      	ittt	gt
   d859e:	ebd4 050c 	rsbsgt	r5, r4, ip
   d85a2:	ea41 5104 	orrgt.w	r1, r1, r4, lsl #20
   d85a6:	bd70      	popgt	{r4, r5, r6, pc}
   d85a8:	f441 1180 	orr.w	r1, r1, #1048576	; 0x100000
   d85ac:	f04f 0e00 	mov.w	lr, #0
   d85b0:	3c01      	subs	r4, #1
   d85b2:	e690      	b.n	d82d6 <__aeabi_dmul+0xde>
   d85b4:	ea45 0e06 	orr.w	lr, r5, r6
   d85b8:	e68d      	b.n	d82d6 <__aeabi_dmul+0xde>
   d85ba:	ea0c 5513 	and.w	r5, ip, r3, lsr #20
   d85be:	ea94 0f0c 	teq	r4, ip
   d85c2:	bf08      	it	eq
   d85c4:	ea95 0f0c 	teqeq	r5, ip
   d85c8:	f43f af3b 	beq.w	d8442 <__aeabi_dmul+0x24a>
   d85cc:	ea94 0f0c 	teq	r4, ip
   d85d0:	d10a      	bne.n	d85e8 <__aeabi_ddiv+0x19c>
   d85d2:	ea50 3401 	orrs.w	r4, r0, r1, lsl #12
   d85d6:	f47f af34 	bne.w	d8442 <__aeabi_dmul+0x24a>
   d85da:	ea95 0f0c 	teq	r5, ip
   d85de:	f47f af25 	bne.w	d842c <__aeabi_dmul+0x234>
   d85e2:	4610      	mov	r0, r2
   d85e4:	4619      	mov	r1, r3
   d85e6:	e72c      	b.n	d8442 <__aeabi_dmul+0x24a>
   d85e8:	ea95 0f0c 	teq	r5, ip
   d85ec:	d106      	bne.n	d85fc <__aeabi_ddiv+0x1b0>
   d85ee:	ea52 3503 	orrs.w	r5, r2, r3, lsl #12
   d85f2:	f43f aefd 	beq.w	d83f0 <__aeabi_dmul+0x1f8>
   d85f6:	4610      	mov	r0, r2
   d85f8:	4619      	mov	r1, r3
   d85fa:	e722      	b.n	d8442 <__aeabi_dmul+0x24a>
   d85fc:	ea50 0641 	orrs.w	r6, r0, r1, lsl #1
   d8600:	bf18      	it	ne
   d8602:	ea52 0643 	orrsne.w	r6, r2, r3, lsl #1
   d8606:	f47f aec5 	bne.w	d8394 <__aeabi_dmul+0x19c>
   d860a:	ea50 0441 	orrs.w	r4, r0, r1, lsl #1
   d860e:	f47f af0d 	bne.w	d842c <__aeabi_dmul+0x234>
   d8612:	ea52 0543 	orrs.w	r5, r2, r3, lsl #1
   d8616:	f47f aeeb 	bne.w	d83f0 <__aeabi_dmul+0x1f8>
   d861a:	e712      	b.n	d8442 <__aeabi_dmul+0x24a>

000d861c <__gedf2>:
   d861c:	f04f 3cff 	mov.w	ip, #4294967295	; 0xffffffff
   d8620:	e006      	b.n	d8630 <__cmpdf2+0x4>
   d8622:	bf00      	nop

000d8624 <__ledf2>:
   d8624:	f04f 0c01 	mov.w	ip, #1
   d8628:	e002      	b.n	d8630 <__cmpdf2+0x4>
   d862a:	bf00      	nop

000d862c <__cmpdf2>:
   d862c:	f04f 0c01 	mov.w	ip, #1
   d8630:	f84d cd04 	str.w	ip, [sp, #-4]!
   d8634:	ea4f 0c41 	mov.w	ip, r1, lsl #1
   d8638:	ea7f 5c6c 	mvns.w	ip, ip, asr #21
   d863c:	ea4f 0c43 	mov.w	ip, r3, lsl #1
   d8640:	bf18      	it	ne
   d8642:	ea7f 5c6c 	mvnsne.w	ip, ip, asr #21
   d8646:	d01b      	beq.n	d8680 <__cmpdf2+0x54>
   d8648:	b001      	add	sp, #4
   d864a:	ea50 0c41 	orrs.w	ip, r0, r1, lsl #1
   d864e:	bf0c      	ite	eq
   d8650:	ea52 0c43 	orrseq.w	ip, r2, r3, lsl #1
   d8654:	ea91 0f03 	teqne	r1, r3
   d8658:	bf02      	ittt	eq
   d865a:	ea90 0f02 	teqeq	r0, r2
   d865e:	2000      	moveq	r0, #0
   d8660:	4770      	bxeq	lr
   d8662:	f110 0f00 	cmn.w	r0, #0
   d8666:	ea91 0f03 	teq	r1, r3
   d866a:	bf58      	it	pl
   d866c:	4299      	cmppl	r1, r3
   d866e:	bf08      	it	eq
   d8670:	4290      	cmpeq	r0, r2
   d8672:	bf2c      	ite	cs
   d8674:	17d8      	asrcs	r0, r3, #31
   d8676:	ea6f 70e3 	mvncc.w	r0, r3, asr #31
   d867a:	f040 0001 	orr.w	r0, r0, #1
   d867e:	4770      	bx	lr
   d8680:	ea4f 0c41 	mov.w	ip, r1, lsl #1
   d8684:	ea7f 5c6c 	mvns.w	ip, ip, asr #21
   d8688:	d102      	bne.n	d8690 <__cmpdf2+0x64>
   d868a:	ea50 3c01 	orrs.w	ip, r0, r1, lsl #12
   d868e:	d107      	bne.n	d86a0 <__cmpdf2+0x74>
   d8690:	ea4f 0c43 	mov.w	ip, r3, lsl #1
   d8694:	ea7f 5c6c 	mvns.w	ip, ip, asr #21
   d8698:	d1d6      	bne.n	d8648 <__cmpdf2+0x1c>
   d869a:	ea52 3c03 	orrs.w	ip, r2, r3, lsl #12
   d869e:	d0d3      	beq.n	d8648 <__cmpdf2+0x1c>
   d86a0:	f85d 0b04 	ldr.w	r0, [sp], #4
   d86a4:	4770      	bx	lr
   d86a6:	bf00      	nop

000d86a8 <__aeabi_cdrcmple>:
   d86a8:	4684      	mov	ip, r0
   d86aa:	4610      	mov	r0, r2
   d86ac:	4662      	mov	r2, ip
   d86ae:	468c      	mov	ip, r1
   d86b0:	4619      	mov	r1, r3
   d86b2:	4663      	mov	r3, ip
   d86b4:	e000      	b.n	d86b8 <__aeabi_cdcmpeq>
   d86b6:	bf00      	nop

000d86b8 <__aeabi_cdcmpeq>:
   d86b8:	b501      	push	{r0, lr}
   d86ba:	f7ff ffb7 	bl	d862c <__cmpdf2>
   d86be:	2800      	cmp	r0, #0
   d86c0:	bf48      	it	mi
   d86c2:	f110 0f00 	cmnmi.w	r0, #0
   d86c6:	bd01      	pop	{r0, pc}

000d86c8 <__aeabi_dcmpeq>:
   d86c8:	f84d ed08 	str.w	lr, [sp, #-8]!
   d86cc:	f7ff fff4 	bl	d86b8 <__aeabi_cdcmpeq>
   d86d0:	bf0c      	ite	eq
   d86d2:	2001      	moveq	r0, #1
   d86d4:	2000      	movne	r0, #0
   d86d6:	f85d fb08 	ldr.w	pc, [sp], #8
   d86da:	bf00      	nop

000d86dc <__aeabi_dcmplt>:
   d86dc:	f84d ed08 	str.w	lr, [sp, #-8]!
   d86e0:	f7ff ffea 	bl	d86b8 <__aeabi_cdcmpeq>
   d86e4:	bf34      	ite	cc
   d86e6:	2001      	movcc	r0, #1
   d86e8:	2000      	movcs	r0, #0
   d86ea:	f85d fb08 	ldr.w	pc, [sp], #8
   d86ee:	bf00      	nop

000d86f0 <__aeabi_dcmple>:
   d86f0:	f84d ed08 	str.w	lr, [sp, #-8]!
   d86f4:	f7ff ffe0 	bl	d86b8 <__aeabi_cdcmpeq>
   d86f8:	bf94      	ite	ls
   d86fa:	2001      	movls	r0, #1
   d86fc:	2000      	movhi	r0, #0
   d86fe:	f85d fb08 	ldr.w	pc, [sp], #8
   d8702:	bf00      	nop

000d8704 <__aeabi_dcmpge>:
   d8704:	f84d ed08 	str.w	lr, [sp, #-8]!
   d8708:	f7ff ffce 	bl	d86a8 <__aeabi_cdrcmple>
   d870c:	bf94      	ite	ls
   d870e:	2001      	movls	r0, #1
   d8710:	2000      	movhi	r0, #0
   d8712:	f85d fb08 	ldr.w	pc, [sp], #8
   d8716:	bf00      	nop

000d8718 <__aeabi_dcmpgt>:
   d8718:	f84d ed08 	str.w	lr, [sp, #-8]!
   d871c:	f7ff ffc4 	bl	d86a8 <__aeabi_cdrcmple>
   d8720:	bf34      	ite	cc
   d8722:	2001      	movcc	r0, #1
   d8724:	2000      	movcs	r0, #0
   d8726:	f85d fb08 	ldr.w	pc, [sp], #8
   d872a:	bf00      	nop

000d872c <__aeabi_d2uiz>:
   d872c:	004a      	lsls	r2, r1, #1
   d872e:	d211      	bcs.n	d8754 <__aeabi_d2uiz+0x28>
   d8730:	f512 1200 	adds.w	r2, r2, #2097152	; 0x200000
   d8734:	d211      	bcs.n	d875a <__aeabi_d2uiz+0x2e>
   d8736:	d50d      	bpl.n	d8754 <__aeabi_d2uiz+0x28>
   d8738:	f46f 7378 	mvn.w	r3, #992	; 0x3e0
   d873c:	ebb3 5262 	subs.w	r2, r3, r2, asr #21
   d8740:	d40e      	bmi.n	d8760 <__aeabi_d2uiz+0x34>
   d8742:	ea4f 23c1 	mov.w	r3, r1, lsl #11
   d8746:	f043 4300 	orr.w	r3, r3, #2147483648	; 0x80000000
   d874a:	ea43 5350 	orr.w	r3, r3, r0, lsr #21
   d874e:	fa23 f002 	lsr.w	r0, r3, r2
   d8752:	4770      	bx	lr
   d8754:	f04f 0000 	mov.w	r0, #0
   d8758:	4770      	bx	lr
   d875a:	ea50 3001 	orrs.w	r0, r0, r1, lsl #12
   d875e:	d102      	bne.n	d8766 <__aeabi_d2uiz+0x3a>
   d8760:	f04f 30ff 	mov.w	r0, #4294967295	; 0xffffffff
   d8764:	4770      	bx	lr
   d8766:	f04f 0000 	mov.w	r0, #0
   d876a:	4770      	bx	lr

000d876c <__aeabi_d2f>:
   d876c:	ea4f 0241 	mov.w	r2, r1, lsl #1
   d8770:	f1b2 43e0 	subs.w	r3, r2, #1879048192	; 0x70000000
   d8774:	bf24      	itt	cs
   d8776:	f5b3 1c00 	subscs.w	ip, r3, #2097152	; 0x200000
   d877a:	f1dc 5cfe 	rsbscs	ip, ip, #532676608	; 0x1fc00000
   d877e:	d90d      	bls.n	d879c <__aeabi_d2f+0x30>
   d8780:	f001 4c00 	and.w	ip, r1, #2147483648	; 0x80000000
   d8784:	ea4f 02c0 	mov.w	r2, r0, lsl #3
   d8788:	ea4c 7050 	orr.w	r0, ip, r0, lsr #29
   d878c:	f1b2 4f00 	cmp.w	r2, #2147483648	; 0x80000000
   d8790:	eb40 0083 	adc.w	r0, r0, r3, lsl #2
   d8794:	bf08      	it	eq
   d8796:	f020 0001 	biceq.w	r0, r0, #1
   d879a:	4770      	bx	lr
   d879c:	f011 4f80 	tst.w	r1, #1073741824	; 0x40000000
   d87a0:	d121      	bne.n	d87e6 <__aeabi_d2f+0x7a>
   d87a2:	f113 7238 	adds.w	r2, r3, #48234496	; 0x2e00000
   d87a6:	bfbc      	itt	lt
   d87a8:	f001 4000 	andlt.w	r0, r1, #2147483648	; 0x80000000
   d87ac:	4770      	bxlt	lr
   d87ae:	f441 1180 	orr.w	r1, r1, #1048576	; 0x100000
   d87b2:	ea4f 5252 	mov.w	r2, r2, lsr #21
   d87b6:	f1c2 0218 	rsb	r2, r2, #24
   d87ba:	f1c2 0c20 	rsb	ip, r2, #32
   d87be:	fa10 f30c 	lsls.w	r3, r0, ip
   d87c2:	fa20 f002 	lsr.w	r0, r0, r2
   d87c6:	bf18      	it	ne
   d87c8:	f040 0001 	orrne.w	r0, r0, #1
   d87cc:	ea4f 23c1 	mov.w	r3, r1, lsl #11
   d87d0:	ea4f 23d3 	mov.w	r3, r3, lsr #11
   d87d4:	fa03 fc0c 	lsl.w	ip, r3, ip
   d87d8:	ea40 000c 	orr.w	r0, r0, ip
   d87dc:	fa23 f302 	lsr.w	r3, r3, r2
   d87e0:	ea4f 0343 	mov.w	r3, r3, lsl #1
   d87e4:	e7cc      	b.n	d8780 <__aeabi_d2f+0x14>
   d87e6:	ea7f 5362 	mvns.w	r3, r2, asr #21
   d87ea:	d107      	bne.n	d87fc <__aeabi_d2f+0x90>
   d87ec:	ea50 3301 	orrs.w	r3, r0, r1, lsl #12
   d87f0:	bf1e      	ittt	ne
   d87f2:	f04f 40fe 	movne.w	r0, #2130706432	; 0x7f000000
   d87f6:	f440 0040 	orrne.w	r0, r0, #12582912	; 0xc00000
   d87fa:	4770      	bxne	lr
   d87fc:	f001 4000 	and.w	r0, r1, #2147483648	; 0x80000000
   d8800:	f040 40fe 	orr.w	r0, r0, #2130706432	; 0x7f000000
   d8804:	f440 0000 	orr.w	r0, r0, #8388608	; 0x800000
   d8808:	4770      	bx	lr
   d880a:	bf00      	nop

000d880c <__aeabi_uldivmod>:
   d880c:	b953      	cbnz	r3, d8824 <__aeabi_uldivmod+0x18>
   d880e:	b94a      	cbnz	r2, d8824 <__aeabi_uldivmod+0x18>
   d8810:	2900      	cmp	r1, #0
   d8812:	bf08      	it	eq
   d8814:	2800      	cmpeq	r0, #0
   d8816:	bf1c      	itt	ne
   d8818:	f04f 31ff 	movne.w	r1, #4294967295	; 0xffffffff
   d881c:	f04f 30ff 	movne.w	r0, #4294967295	; 0xffffffff
   d8820:	f000 b9a2 	b.w	d8b68 <__aeabi_idiv0>
   d8824:	f1ad 0c08 	sub.w	ip, sp, #8
   d8828:	e96d ce04 	strd	ip, lr, [sp, #-16]!
   d882c:	f000 f82a 	bl	d8884 <__udivmoddi4>
   d8830:	f8dd e004 	ldr.w	lr, [sp, #4]
   d8834:	e9dd 2302 	ldrd	r2, r3, [sp, #8]
   d8838:	b004      	add	sp, #16
   d883a:	4770      	bx	lr

000d883c <__aeabi_d2ulz>:
   d883c:	b5d0      	push	{r4, r6, r7, lr}
   d883e:	2200      	movs	r2, #0
   d8840:	4b0e      	ldr	r3, [pc, #56]	; (d887c <__aeabi_d2ulz+0x40>)
   d8842:	4606      	mov	r6, r0
   d8844:	460f      	mov	r7, r1
   d8846:	f7ff fcd7 	bl	d81f8 <__aeabi_dmul>
   d884a:	f7ff ff6f 	bl	d872c <__aeabi_d2uiz>
   d884e:	4604      	mov	r4, r0
   d8850:	f7ff fc5c 	bl	d810c <__aeabi_ui2d>
   d8854:	2200      	movs	r2, #0
   d8856:	4b0a      	ldr	r3, [pc, #40]	; (d8880 <__aeabi_d2ulz+0x44>)
   d8858:	f7ff fcce 	bl	d81f8 <__aeabi_dmul>
   d885c:	4602      	mov	r2, r0
   d885e:	460b      	mov	r3, r1
   d8860:	4630      	mov	r0, r6
   d8862:	4639      	mov	r1, r7
   d8864:	f7ff fb14 	bl	d7e90 <__aeabi_dsub>
   d8868:	f7ff ff60 	bl	d872c <__aeabi_d2uiz>
   d886c:	4623      	mov	r3, r4
   d886e:	2200      	movs	r2, #0
   d8870:	ea42 0200 	orr.w	r2, r2, r0
   d8874:	4610      	mov	r0, r2
   d8876:	4619      	mov	r1, r3
   d8878:	bdd0      	pop	{r4, r6, r7, pc}
   d887a:	bf00      	nop
   d887c:	3df00000 	.word	0x3df00000
   d8880:	41f00000 	.word	0x41f00000

000d8884 <__udivmoddi4>:
   d8884:	e92d 47f0 	stmdb	sp!, {r4, r5, r6, r7, r8, r9, sl, lr}
   d8888:	468c      	mov	ip, r1
   d888a:	460e      	mov	r6, r1
   d888c:	4604      	mov	r4, r0
   d888e:	9d08      	ldr	r5, [sp, #32]
   d8890:	2b00      	cmp	r3, #0
   d8892:	d150      	bne.n	d8936 <__udivmoddi4+0xb2>
   d8894:	428a      	cmp	r2, r1
   d8896:	4617      	mov	r7, r2
   d8898:	d96c      	bls.n	d8974 <__udivmoddi4+0xf0>
   d889a:	fab2 fe82 	clz	lr, r2
   d889e:	f1be 0f00 	cmp.w	lr, #0
   d88a2:	d00b      	beq.n	d88bc <__udivmoddi4+0x38>
   d88a4:	f1ce 0420 	rsb	r4, lr, #32
   d88a8:	fa20 f404 	lsr.w	r4, r0, r4
   d88ac:	fa01 f60e 	lsl.w	r6, r1, lr
   d88b0:	ea44 0c06 	orr.w	ip, r4, r6
   d88b4:	fa02 f70e 	lsl.w	r7, r2, lr
   d88b8:	fa00 f40e 	lsl.w	r4, r0, lr
   d88bc:	ea4f 4917 	mov.w	r9, r7, lsr #16
   d88c0:	0c22      	lsrs	r2, r4, #16
   d88c2:	fbbc f0f9 	udiv	r0, ip, r9
   d88c6:	fa1f f887 	uxth.w	r8, r7
   d88ca:	fb09 c610 	mls	r6, r9, r0, ip
   d88ce:	ea42 4606 	orr.w	r6, r2, r6, lsl #16
   d88d2:	fb00 f308 	mul.w	r3, r0, r8
   d88d6:	42b3      	cmp	r3, r6
   d88d8:	d909      	bls.n	d88ee <__udivmoddi4+0x6a>
   d88da:	19f6      	adds	r6, r6, r7
   d88dc:	f100 32ff 	add.w	r2, r0, #4294967295	; 0xffffffff
   d88e0:	f080 8122 	bcs.w	d8b28 <__udivmoddi4+0x2a4>
   d88e4:	42b3      	cmp	r3, r6
   d88e6:	f240 811f 	bls.w	d8b28 <__udivmoddi4+0x2a4>
   d88ea:	3802      	subs	r0, #2
   d88ec:	443e      	add	r6, r7
   d88ee:	1af6      	subs	r6, r6, r3
   d88f0:	b2a2      	uxth	r2, r4
   d88f2:	fbb6 f3f9 	udiv	r3, r6, r9
   d88f6:	fb09 6613 	mls	r6, r9, r3, r6
   d88fa:	ea42 4406 	orr.w	r4, r2, r6, lsl #16
   d88fe:	fb03 f808 	mul.w	r8, r3, r8
   d8902:	45a0      	cmp	r8, r4
   d8904:	d909      	bls.n	d891a <__udivmoddi4+0x96>
   d8906:	19e4      	adds	r4, r4, r7
   d8908:	f103 32ff 	add.w	r2, r3, #4294967295	; 0xffffffff
   d890c:	f080 810a 	bcs.w	d8b24 <__udivmoddi4+0x2a0>
   d8910:	45a0      	cmp	r8, r4
   d8912:	f240 8107 	bls.w	d8b24 <__udivmoddi4+0x2a0>
   d8916:	3b02      	subs	r3, #2
   d8918:	443c      	add	r4, r7
   d891a:	ebc8 0404 	rsb	r4, r8, r4
   d891e:	ea43 4000 	orr.w	r0, r3, r0, lsl #16
   d8922:	2100      	movs	r1, #0
   d8924:	2d00      	cmp	r5, #0
   d8926:	d062      	beq.n	d89ee <__udivmoddi4+0x16a>
   d8928:	fa24 f40e 	lsr.w	r4, r4, lr
   d892c:	2300      	movs	r3, #0
   d892e:	602c      	str	r4, [r5, #0]
   d8930:	606b      	str	r3, [r5, #4]
   d8932:	e8bd 87f0 	ldmia.w	sp!, {r4, r5, r6, r7, r8, r9, sl, pc}
   d8936:	428b      	cmp	r3, r1
   d8938:	d907      	bls.n	d894a <__udivmoddi4+0xc6>
   d893a:	2d00      	cmp	r5, #0
   d893c:	d055      	beq.n	d89ea <__udivmoddi4+0x166>
   d893e:	2100      	movs	r1, #0
   d8940:	e885 0041 	stmia.w	r5, {r0, r6}
   d8944:	4608      	mov	r0, r1
   d8946:	e8bd 87f0 	ldmia.w	sp!, {r4, r5, r6, r7, r8, r9, sl, pc}
   d894a:	fab3 f183 	clz	r1, r3
   d894e:	2900      	cmp	r1, #0
   d8950:	f040 8090 	bne.w	d8a74 <__udivmoddi4+0x1f0>
   d8954:	42b3      	cmp	r3, r6
   d8956:	d302      	bcc.n	d895e <__udivmoddi4+0xda>
   d8958:	4282      	cmp	r2, r0
   d895a:	f200 80f8 	bhi.w	d8b4e <__udivmoddi4+0x2ca>
   d895e:	1a84      	subs	r4, r0, r2
   d8960:	eb66 0603 	sbc.w	r6, r6, r3
   d8964:	2001      	movs	r0, #1
   d8966:	46b4      	mov	ip, r6
   d8968:	2d00      	cmp	r5, #0
   d896a:	d040      	beq.n	d89ee <__udivmoddi4+0x16a>
   d896c:	e885 1010 	stmia.w	r5, {r4, ip}
   d8970:	e8bd 87f0 	ldmia.w	sp!, {r4, r5, r6, r7, r8, r9, sl, pc}
   d8974:	b912      	cbnz	r2, d897c <__udivmoddi4+0xf8>
   d8976:	2701      	movs	r7, #1
   d8978:	fbb7 f7f2 	udiv	r7, r7, r2
   d897c:	fab7 fe87 	clz	lr, r7
   d8980:	f1be 0f00 	cmp.w	lr, #0
   d8984:	d135      	bne.n	d89f2 <__udivmoddi4+0x16e>
   d8986:	1bf3      	subs	r3, r6, r7
   d8988:	ea4f 4817 	mov.w	r8, r7, lsr #16
   d898c:	fa1f fc87 	uxth.w	ip, r7
   d8990:	2101      	movs	r1, #1
   d8992:	fbb3 f0f8 	udiv	r0, r3, r8
   d8996:	0c22      	lsrs	r2, r4, #16
   d8998:	fb08 3610 	mls	r6, r8, r0, r3
   d899c:	ea42 4606 	orr.w	r6, r2, r6, lsl #16
   d89a0:	fb0c f300 	mul.w	r3, ip, r0
   d89a4:	42b3      	cmp	r3, r6
   d89a6:	d907      	bls.n	d89b8 <__udivmoddi4+0x134>
   d89a8:	19f6      	adds	r6, r6, r7
   d89aa:	f100 32ff 	add.w	r2, r0, #4294967295	; 0xffffffff
   d89ae:	d202      	bcs.n	d89b6 <__udivmoddi4+0x132>
   d89b0:	42b3      	cmp	r3, r6
   d89b2:	f200 80ce 	bhi.w	d8b52 <__udivmoddi4+0x2ce>
   d89b6:	4610      	mov	r0, r2
   d89b8:	1af6      	subs	r6, r6, r3
   d89ba:	b2a2      	uxth	r2, r4
   d89bc:	fbb6 f3f8 	udiv	r3, r6, r8
   d89c0:	fb08 6613 	mls	r6, r8, r3, r6
   d89c4:	ea42 4406 	orr.w	r4, r2, r6, lsl #16
   d89c8:	fb0c fc03 	mul.w	ip, ip, r3
   d89cc:	45a4      	cmp	ip, r4
   d89ce:	d907      	bls.n	d89e0 <__udivmoddi4+0x15c>
   d89d0:	19e4      	adds	r4, r4, r7
   d89d2:	f103 32ff 	add.w	r2, r3, #4294967295	; 0xffffffff
   d89d6:	d202      	bcs.n	d89de <__udivmoddi4+0x15a>
   d89d8:	45a4      	cmp	ip, r4
   d89da:	f200 80b5 	bhi.w	d8b48 <__udivmoddi4+0x2c4>
   d89de:	4613      	mov	r3, r2
   d89e0:	ebcc 0404 	rsb	r4, ip, r4
   d89e4:	ea43 4000 	orr.w	r0, r3, r0, lsl #16
   d89e8:	e79c      	b.n	d8924 <__udivmoddi4+0xa0>
   d89ea:	4629      	mov	r1, r5
   d89ec:	4628      	mov	r0, r5
   d89ee:	e8bd 87f0 	ldmia.w	sp!, {r4, r5, r6, r7, r8, r9, sl, pc}
   d89f2:	f1ce 0120 	rsb	r1, lr, #32
   d89f6:	fa06 f30e 	lsl.w	r3, r6, lr
   d89fa:	fa07 f70e 	lsl.w	r7, r7, lr
   d89fe:	fa20 f901 	lsr.w	r9, r0, r1
   d8a02:	ea4f 4817 	mov.w	r8, r7, lsr #16
   d8a06:	40ce      	lsrs	r6, r1
   d8a08:	ea49 0903 	orr.w	r9, r9, r3
   d8a0c:	fbb6 faf8 	udiv	sl, r6, r8
   d8a10:	ea4f 4419 	mov.w	r4, r9, lsr #16
   d8a14:	fb08 661a 	mls	r6, r8, sl, r6
   d8a18:	fa1f fc87 	uxth.w	ip, r7
   d8a1c:	ea44 4306 	orr.w	r3, r4, r6, lsl #16
   d8a20:	fb0a f20c 	mul.w	r2, sl, ip
   d8a24:	429a      	cmp	r2, r3
   d8a26:	fa00 f40e 	lsl.w	r4, r0, lr
   d8a2a:	d90a      	bls.n	d8a42 <__udivmoddi4+0x1be>
   d8a2c:	19db      	adds	r3, r3, r7
   d8a2e:	f10a 31ff 	add.w	r1, sl, #4294967295	; 0xffffffff
   d8a32:	f080 8087 	bcs.w	d8b44 <__udivmoddi4+0x2c0>
   d8a36:	429a      	cmp	r2, r3
   d8a38:	f240 8084 	bls.w	d8b44 <__udivmoddi4+0x2c0>
   d8a3c:	f1aa 0a02 	sub.w	sl, sl, #2
   d8a40:	443b      	add	r3, r7
   d8a42:	1a9b      	subs	r3, r3, r2
   d8a44:	fa1f f989 	uxth.w	r9, r9
   d8a48:	fbb3 f1f8 	udiv	r1, r3, r8
   d8a4c:	fb08 3311 	mls	r3, r8, r1, r3
   d8a50:	ea49 4303 	orr.w	r3, r9, r3, lsl #16
   d8a54:	fb01 f60c 	mul.w	r6, r1, ip
   d8a58:	429e      	cmp	r6, r3
   d8a5a:	d907      	bls.n	d8a6c <__udivmoddi4+0x1e8>
   d8a5c:	19db      	adds	r3, r3, r7
   d8a5e:	f101 32ff 	add.w	r2, r1, #4294967295	; 0xffffffff
   d8a62:	d26b      	bcs.n	d8b3c <__udivmoddi4+0x2b8>
   d8a64:	429e      	cmp	r6, r3
   d8a66:	d969      	bls.n	d8b3c <__udivmoddi4+0x2b8>
   d8a68:	3902      	subs	r1, #2
   d8a6a:	443b      	add	r3, r7
   d8a6c:	1b9b      	subs	r3, r3, r6
   d8a6e:	ea41 410a 	orr.w	r1, r1, sl, lsl #16
   d8a72:	e78e      	b.n	d8992 <__udivmoddi4+0x10e>
   d8a74:	f1c1 0e20 	rsb	lr, r1, #32
   d8a78:	fa22 f40e 	lsr.w	r4, r2, lr
   d8a7c:	408b      	lsls	r3, r1
   d8a7e:	4323      	orrs	r3, r4
   d8a80:	fa20 f70e 	lsr.w	r7, r0, lr
   d8a84:	fa06 f401 	lsl.w	r4, r6, r1
   d8a88:	ea4f 4c13 	mov.w	ip, r3, lsr #16
   d8a8c:	fa26 f60e 	lsr.w	r6, r6, lr
   d8a90:	433c      	orrs	r4, r7
   d8a92:	fbb6 f9fc 	udiv	r9, r6, ip
   d8a96:	0c27      	lsrs	r7, r4, #16
   d8a98:	fb0c 6619 	mls	r6, ip, r9, r6
   d8a9c:	fa1f f883 	uxth.w	r8, r3
   d8aa0:	ea47 4606 	orr.w	r6, r7, r6, lsl #16
   d8aa4:	fb09 f708 	mul.w	r7, r9, r8
   d8aa8:	42b7      	cmp	r7, r6
   d8aaa:	fa02 f201 	lsl.w	r2, r2, r1
   d8aae:	fa00 fa01 	lsl.w	sl, r0, r1
   d8ab2:	d908      	bls.n	d8ac6 <__udivmoddi4+0x242>
   d8ab4:	18f6      	adds	r6, r6, r3
   d8ab6:	f109 30ff 	add.w	r0, r9, #4294967295	; 0xffffffff
   d8aba:	d241      	bcs.n	d8b40 <__udivmoddi4+0x2bc>
   d8abc:	42b7      	cmp	r7, r6
   d8abe:	d93f      	bls.n	d8b40 <__udivmoddi4+0x2bc>
   d8ac0:	f1a9 0902 	sub.w	r9, r9, #2
   d8ac4:	441e      	add	r6, r3
   d8ac6:	1bf6      	subs	r6, r6, r7
   d8ac8:	b2a0      	uxth	r0, r4
   d8aca:	fbb6 f4fc 	udiv	r4, r6, ip
   d8ace:	fb0c 6614 	mls	r6, ip, r4, r6
   d8ad2:	ea40 4706 	orr.w	r7, r0, r6, lsl #16
   d8ad6:	fb04 f808 	mul.w	r8, r4, r8
   d8ada:	45b8      	cmp	r8, r7
   d8adc:	d907      	bls.n	d8aee <__udivmoddi4+0x26a>
   d8ade:	18ff      	adds	r7, r7, r3
   d8ae0:	f104 30ff 	add.w	r0, r4, #4294967295	; 0xffffffff
   d8ae4:	d228      	bcs.n	d8b38 <__udivmoddi4+0x2b4>
   d8ae6:	45b8      	cmp	r8, r7
   d8ae8:	d926      	bls.n	d8b38 <__udivmoddi4+0x2b4>
   d8aea:	3c02      	subs	r4, #2
   d8aec:	441f      	add	r7, r3
   d8aee:	ea44 4009 	orr.w	r0, r4, r9, lsl #16
   d8af2:	ebc8 0707 	rsb	r7, r8, r7
   d8af6:	fba0 8902 	umull	r8, r9, r0, r2
   d8afa:	454f      	cmp	r7, r9
   d8afc:	4644      	mov	r4, r8
   d8afe:	464e      	mov	r6, r9
   d8b00:	d314      	bcc.n	d8b2c <__udivmoddi4+0x2a8>
   d8b02:	d029      	beq.n	d8b58 <__udivmoddi4+0x2d4>
   d8b04:	b365      	cbz	r5, d8b60 <__udivmoddi4+0x2dc>
   d8b06:	ebba 0304 	subs.w	r3, sl, r4
   d8b0a:	eb67 0706 	sbc.w	r7, r7, r6
   d8b0e:	fa07 fe0e 	lsl.w	lr, r7, lr
   d8b12:	40cb      	lsrs	r3, r1
   d8b14:	40cf      	lsrs	r7, r1
   d8b16:	ea4e 0303 	orr.w	r3, lr, r3
   d8b1a:	e885 0088 	stmia.w	r5, {r3, r7}
   d8b1e:	2100      	movs	r1, #0
   d8b20:	e8bd 87f0 	ldmia.w	sp!, {r4, r5, r6, r7, r8, r9, sl, pc}
   d8b24:	4613      	mov	r3, r2
   d8b26:	e6f8      	b.n	d891a <__udivmoddi4+0x96>
   d8b28:	4610      	mov	r0, r2
   d8b2a:	e6e0      	b.n	d88ee <__udivmoddi4+0x6a>
   d8b2c:	ebb8 0402 	subs.w	r4, r8, r2
   d8b30:	eb69 0603 	sbc.w	r6, r9, r3
   d8b34:	3801      	subs	r0, #1
   d8b36:	e7e5      	b.n	d8b04 <__udivmoddi4+0x280>
   d8b38:	4604      	mov	r4, r0
   d8b3a:	e7d8      	b.n	d8aee <__udivmoddi4+0x26a>
   d8b3c:	4611      	mov	r1, r2
   d8b3e:	e795      	b.n	d8a6c <__udivmoddi4+0x1e8>
   d8b40:	4681      	mov	r9, r0
   d8b42:	e7c0      	b.n	d8ac6 <__udivmoddi4+0x242>
   d8b44:	468a      	mov	sl, r1
   d8b46:	e77c      	b.n	d8a42 <__udivmoddi4+0x1be>
   d8b48:	3b02      	subs	r3, #2
   d8b4a:	443c      	add	r4, r7
   d8b4c:	e748      	b.n	d89e0 <__udivmoddi4+0x15c>
   d8b4e:	4608      	mov	r0, r1
   d8b50:	e70a      	b.n	d8968 <__udivmoddi4+0xe4>
   d8b52:	3802      	subs	r0, #2
   d8b54:	443e      	add	r6, r7
   d8b56:	e72f      	b.n	d89b8 <__udivmoddi4+0x134>
   d8b58:	45c2      	cmp	sl, r8
   d8b5a:	d3e7      	bcc.n	d8b2c <__udivmoddi4+0x2a8>
   d8b5c:	463e      	mov	r6, r7
   d8b5e:	e7d1      	b.n	d8b04 <__udivmoddi4+0x280>
   d8b60:	4629      	mov	r1, r5
   d8b62:	e8bd 87f0 	ldmia.w	sp!, {r4, r5, r6, r7, r8, r9, sl, pc}
   d8b66:	bf00      	nop

000d8b68 <__aeabi_idiv0>:
   d8b68:	4770      	bx	lr
   d8b6a:	bf00      	nop

000d8b6c <calloc>:
   d8b6c:	4b02      	ldr	r3, [pc, #8]	; (d8b78 <calloc+0xc>)
   d8b6e:	460a      	mov	r2, r1
   d8b70:	4601      	mov	r1, r0
   d8b72:	6818      	ldr	r0, [r3, #0]
   d8b74:	f000 b84d 	b.w	d8c12 <_calloc_r>
   d8b78:	2003e44c 	.word	0x2003e44c

000d8b7c <__cxa_atexit>:
   d8b7c:	b510      	push	{r4, lr}
   d8b7e:	4c05      	ldr	r4, [pc, #20]	; (d8b94 <__cxa_atexit+0x18>)
   d8b80:	4613      	mov	r3, r2
   d8b82:	b12c      	cbz	r4, d8b90 <__cxa_atexit+0x14>
   d8b84:	460a      	mov	r2, r1
   d8b86:	4601      	mov	r1, r0
   d8b88:	2002      	movs	r0, #2
   d8b8a:	f3af 8000 	nop.w
   d8b8e:	bd10      	pop	{r4, pc}
   d8b90:	4620      	mov	r0, r4
   d8b92:	bd10      	pop	{r4, pc}
   d8b94:	00000000 	.word	0x00000000

000d8b98 <memcmp>:
   d8b98:	b510      	push	{r4, lr}
   d8b9a:	3901      	subs	r1, #1
   d8b9c:	4402      	add	r2, r0
   d8b9e:	4290      	cmp	r0, r2
   d8ba0:	d007      	beq.n	d8bb2 <memcmp+0x1a>
   d8ba2:	f810 3b01 	ldrb.w	r3, [r0], #1
   d8ba6:	f811 4f01 	ldrb.w	r4, [r1, #1]!
   d8baa:	42a3      	cmp	r3, r4
   d8bac:	d0f7      	beq.n	d8b9e <memcmp+0x6>
   d8bae:	1b18      	subs	r0, r3, r4
   d8bb0:	bd10      	pop	{r4, pc}
   d8bb2:	2000      	movs	r0, #0
   d8bb4:	bd10      	pop	{r4, pc}

000d8bb6 <memcpy>:
   d8bb6:	b510      	push	{r4, lr}
   d8bb8:	1e43      	subs	r3, r0, #1
   d8bba:	440a      	add	r2, r1
   d8bbc:	4291      	cmp	r1, r2
   d8bbe:	d004      	beq.n	d8bca <memcpy+0x14>
   d8bc0:	f811 4b01 	ldrb.w	r4, [r1], #1
   d8bc4:	f803 4f01 	strb.w	r4, [r3, #1]!
   d8bc8:	e7f8      	b.n	d8bbc <memcpy+0x6>
   d8bca:	bd10      	pop	{r4, pc}

000d8bcc <memmove>:
   d8bcc:	4288      	cmp	r0, r1
   d8bce:	b510      	push	{r4, lr}
   d8bd0:	eb01 0302 	add.w	r3, r1, r2
   d8bd4:	d801      	bhi.n	d8bda <memmove+0xe>
   d8bd6:	1e42      	subs	r2, r0, #1
   d8bd8:	e00b      	b.n	d8bf2 <memmove+0x26>
   d8bda:	4298      	cmp	r0, r3
   d8bdc:	d2fb      	bcs.n	d8bd6 <memmove+0xa>
   d8bde:	1881      	adds	r1, r0, r2
   d8be0:	1ad2      	subs	r2, r2, r3
   d8be2:	42d3      	cmn	r3, r2
   d8be4:	d004      	beq.n	d8bf0 <memmove+0x24>
   d8be6:	f813 4d01 	ldrb.w	r4, [r3, #-1]!
   d8bea:	f801 4d01 	strb.w	r4, [r1, #-1]!
   d8bee:	e7f8      	b.n	d8be2 <memmove+0x16>
   d8bf0:	bd10      	pop	{r4, pc}
   d8bf2:	4299      	cmp	r1, r3
   d8bf4:	d004      	beq.n	d8c00 <memmove+0x34>
   d8bf6:	f811 4b01 	ldrb.w	r4, [r1], #1
   d8bfa:	f802 4f01 	strb.w	r4, [r2, #1]!
   d8bfe:	e7f8      	b.n	d8bf2 <memmove+0x26>
   d8c00:	bd10      	pop	{r4, pc}

000d8c02 <memset>:
   d8c02:	4402      	add	r2, r0
   d8c04:	4603      	mov	r3, r0
   d8c06:	4293      	cmp	r3, r2
   d8c08:	d002      	beq.n	d8c10 <memset+0xe>
   d8c0a:	f803 1b01 	strb.w	r1, [r3], #1
   d8c0e:	e7fa      	b.n	d8c06 <memset+0x4>
   d8c10:	4770      	bx	lr

000d8c12 <_calloc_r>:
   d8c12:	b538      	push	{r3, r4, r5, lr}
   d8c14:	fb02 f401 	mul.w	r4, r2, r1
   d8c18:	4621      	mov	r1, r4
   d8c1a:	f7fc fd33 	bl	d5684 <_malloc_r>
   d8c1e:	4605      	mov	r5, r0
   d8c20:	b118      	cbz	r0, d8c2a <_calloc_r+0x18>
   d8c22:	4622      	mov	r2, r4
   d8c24:	2100      	movs	r1, #0
   d8c26:	f7ff ffec 	bl	d8c02 <memset>
   d8c2a:	4628      	mov	r0, r5
   d8c2c:	bd38      	pop	{r3, r4, r5, pc}
	...

000d8c30 <srand>:
   d8c30:	b538      	push	{r3, r4, r5, lr}
   d8c32:	4b12      	ldr	r3, [pc, #72]	; (d8c7c <srand+0x4c>)
   d8c34:	681c      	ldr	r4, [r3, #0]
   d8c36:	6ba3      	ldr	r3, [r4, #56]	; 0x38
   d8c38:	4605      	mov	r5, r0
   d8c3a:	b9d3      	cbnz	r3, d8c72 <srand+0x42>
   d8c3c:	2018      	movs	r0, #24
   d8c3e:	f7fc fcf9 	bl	d5634 <malloc>
   d8c42:	f243 330e 	movw	r3, #13070	; 0x330e
   d8c46:	63a0      	str	r0, [r4, #56]	; 0x38
   d8c48:	8003      	strh	r3, [r0, #0]
   d8c4a:	f64a 33cd 	movw	r3, #43981	; 0xabcd
   d8c4e:	8043      	strh	r3, [r0, #2]
   d8c50:	f241 2334 	movw	r3, #4660	; 0x1234
   d8c54:	8083      	strh	r3, [r0, #4]
   d8c56:	f24e 636d 	movw	r3, #58989	; 0xe66d
   d8c5a:	80c3      	strh	r3, [r0, #6]
   d8c5c:	f64d 63ec 	movw	r3, #57068	; 0xdeec
   d8c60:	8103      	strh	r3, [r0, #8]
   d8c62:	2305      	movs	r3, #5
   d8c64:	8143      	strh	r3, [r0, #10]
   d8c66:	230b      	movs	r3, #11
   d8c68:	8183      	strh	r3, [r0, #12]
   d8c6a:	2201      	movs	r2, #1
   d8c6c:	2300      	movs	r3, #0
   d8c6e:	e9c0 2304 	strd	r2, r3, [r0, #16]
   d8c72:	6ba3      	ldr	r3, [r4, #56]	; 0x38
   d8c74:	2200      	movs	r2, #0
   d8c76:	611d      	str	r5, [r3, #16]
   d8c78:	615a      	str	r2, [r3, #20]
   d8c7a:	bd38      	pop	{r3, r4, r5, pc}
   d8c7c:	2003e44c 	.word	0x2003e44c

000d8c80 <strdup>:
   d8c80:	4b02      	ldr	r3, [pc, #8]	; (d8c8c <strdup+0xc>)
   d8c82:	4601      	mov	r1, r0
   d8c84:	6818      	ldr	r0, [r3, #0]
   d8c86:	f000 b803 	b.w	d8c90 <_strdup_r>
   d8c8a:	bf00      	nop
   d8c8c:	2003e44c 	.word	0x2003e44c

000d8c90 <_strdup_r>:
   d8c90:	b570      	push	{r4, r5, r6, lr}
   d8c92:	4606      	mov	r6, r0
   d8c94:	4608      	mov	r0, r1
   d8c96:	460c      	mov	r4, r1
   d8c98:	f000 f80d 	bl	d8cb6 <strlen>
   d8c9c:	1c45      	adds	r5, r0, #1
   d8c9e:	4629      	mov	r1, r5
   d8ca0:	4630      	mov	r0, r6
   d8ca2:	f7fc fcef 	bl	d5684 <_malloc_r>
   d8ca6:	4606      	mov	r6, r0
   d8ca8:	b118      	cbz	r0, d8cb2 <_strdup_r+0x22>
   d8caa:	462a      	mov	r2, r5
   d8cac:	4621      	mov	r1, r4
   d8cae:	f7ff ff82 	bl	d8bb6 <memcpy>
   d8cb2:	4630      	mov	r0, r6
   d8cb4:	bd70      	pop	{r4, r5, r6, pc}

000d8cb6 <strlen>:
   d8cb6:	4603      	mov	r3, r0
   d8cb8:	f813 2b01 	ldrb.w	r2, [r3], #1
   d8cbc:	2a00      	cmp	r2, #0
   d8cbe:	d1fb      	bne.n	d8cb8 <strlen+0x2>
   d8cc0:	1a18      	subs	r0, r3, r0
   d8cc2:	3801      	subs	r0, #1
   d8cc4:	4770      	bx	lr

000d8cc6 <strnlen>:
   d8cc6:	b510      	push	{r4, lr}
   d8cc8:	4603      	mov	r3, r0
   d8cca:	4401      	add	r1, r0
   d8ccc:	428b      	cmp	r3, r1
   d8cce:	d004      	beq.n	d8cda <strnlen+0x14>
   d8cd0:	781a      	ldrb	r2, [r3, #0]
   d8cd2:	1c5c      	adds	r4, r3, #1
   d8cd4:	b10a      	cbz	r2, d8cda <strnlen+0x14>
   d8cd6:	4623      	mov	r3, r4
   d8cd8:	e7f8      	b.n	d8ccc <strnlen+0x6>
   d8cda:	1a18      	subs	r0, r3, r0
   d8cdc:	bd10      	pop	{r4, pc}

000d8cde <link_code_end>:
	...

000d8ce0 <dynalib_user>:
   d8ce0:	401d 000d 4059 000d 4085 000d 4089 000d     .@..Y@...@...@..
   d8cf0:	0000 0000                                   ....

000d8cf4 <_ZTV16JsonWriterStaticILj256EE>:
	...
   d8cfc:	4101 000d 4115 000d 6574 706d 6800 6d75     .A...A..temp.hum
   d8d0c:	6469 7469 0079 6f74 6767 656c 654c 0064     idity.toggleLed.
   d8d1c:	696c 6867 0074 6e65 2d76 6176 736c 5400     light.env-vals.T
   d8d2c:	6d65 3a70 2520 0066 7548 696d 6964 7974     emp: %f.Humidity
   d8d3c:	203a 6625 6c00 6769 7468 6d2d 7465 7265     : %f.light-meter
   d8d4c:	6c2f 7665 6c65 5500 7470 6d69 3a65 2520     /level.Uptime: %
   d8d5c:	0064 7453 6572 676e 6874 203a 6600 6572     d.Strength: .fre
   d8d6c:	2065 656d 6f6d 7972 203a 7400 746f 6c61     e memory: .total
   d8d7c:	7220 6d61 203a 7500 6573 2064 6172 3a6d      ram: .used ram:
   d8d8c:	0020 6335 6231 6139 6430 622d 6235 2d65      .5c1b9a0d-b5be-
   d8d9c:	6134 3034 382d 3766 2d61 3636 3362 6436     4a40-8f7a-66b36d
   d8dac:	6130 3135 3637 6600 6364 3466 3361 2d66     0a5176.fdcf4a3f-
   d8dbc:	6633 6465 342d 6465 2d32 3438 3665 302d     3fed-4ed2-84e6-0
   d8dcc:	6234 6262 6139 3065 6434 0034 7075 6974     4bbb9ae04d4.upti
   d8ddc:	656d 6300 3963 6337 3032 2d63 3835 3232     me.cc97c20c-5822
   d8dec:	342d 3038 2d30 6461 3565 312d 3666 3136     -4800-ade5-1f661
   d8dfc:	3264 3331 6533 0065 7473 6572 676e 6874     d2133ee.strength
   d8e0c:	6400 6232 3632 6662 2d33 3739 3239 342d     .d2b26bf3-9792-4
   d8e1c:	6632 2d63 6539 6138 342d 6631 3136 3730     2fc-9e8a-41f6107
   d8e2c:	6664 3430 0063 7266 6565 654d 6f6d 7972     df04c.freeMemory
   d8e3c:	0000 0000                                   ....

000d8e40 <_ZTV10JsonBuffer>:
	...
   d8e48:	4e51 000d 4e6d 000d                         QN..mN..

000d8e50 <_ZTV10JsonWriter>:
	...
   d8e58:	4e81 000d 4e95 000d 6c25 0075 3025 7834     .N...N..%lu.%04x
   d8e68:	5c00 2575 3430 0058 7274 6575 6600 6c61     .\u%04X.true.fal
   d8e78:	6573 2500 2a2e 0066 2e25 6c2a 0066 6c25     se.%.*f.%.*lf.%l
   d8e88:	0066 0000                                   f...

000d8e8c <_ZTVSt19_Sp_counted_deleterIPN8particle21BleCharacteristicImplENSt12__shared_ptrIS1_LN9__gnu_cxx12_Lock_policyE0EE8_DeleterISaIS1_EEES8_LS5_0EE>:
	...
   d8e94:	5761 000d 5767 000d 639d 000d 5791 000d     aW..gW...c...W..
   d8ea4:	5763 000d                                   cW..

000d8ea8 <_ZTVSt19_Sp_counted_deleterIPN8particle14BleServiceImplENSt12__shared_ptrIS1_LN9__gnu_cxx12_Lock_policyE0EE8_DeleterISaIS1_EEES8_LS5_0EE>:
	...
   d8eb0:	575b 000d 5775 000d 64a5 000d 5795 000d     [W..uW...d...W..
   d8ec0:	575d 000d                                   ]W..

000d8ec4 <_ZTVSt19_Sp_counted_deleterIPN8particle17BlePeerDeviceImplENSt12__shared_ptrIS1_LN9__gnu_cxx12_Lock_policyE0EE8_DeleterISaIS1_EEES8_LS5_0EE>:
	...
   d8ecc:	5755 000d 5783 000d 5e87 000d 5799 000d     UW...W...^...W..
   d8edc:	5757 000d                                   WW..

000d8ee0 <_ZN8particle12_GLOBAL__N_1L29PARTICLE_DEFAULT_BLE_SVC_UUIDE>:
   d8ee0:	e37b 7427 f87b ac15 49dd 13a9 0000 f572     {.'t{....I....r.
   d8ef0:	6977 6972 676e 622e 656c 5300 6174 7472     wiring.ble.Start
   d8f00:	6420 7369 6f63 6576 6972 676e 7320 7265      discovering ser
   d8f10:	6976 6563 2e73 5300 6174 7472 6420 7369     vices..Start dis
   d8f20:	6f63 6576 6972 676e 6320 6168 6172 7463     covering charact
   d8f30:	7265 7369 6974 7363 002e 6550 7265 6420     eristics..Peer d
   d8f40:	7665 6369 2065 7369 6d20 7369 6973 676e     evice is missing
   d8f50:	0021 6146 6c69 6465 7420 206f 7061 6570     !.Failed to appe
   d8f60:	646e 7020 6565 2072 6543 746e 6172 206c     nd peer Central 
   d8f70:	6564 6976 6563 002e 6f43 6e6e 6365 6574     device..Connecte
   d8f80:	2064 7962 4320 6e65 7274 6c61 6420 7665     d by Central dev
   d8f90:	6369 2e65 4400 7369 6f63 6e6e 6365 6574     ice..Disconnecte
   d8fa0:	2064 7962 7220 6d65 746f 2065 6564 6976     d by remote devi
   d8fb0:	6563 002e 6143 6e6e 746f 6120 6464 6e20     ce..Cannot add n
   d8fc0:	7765 7020 6565 2072 6564 6976 6563 002e     ew peer device..
   d8fd0:	654e 2077 6570 6972 6870 7265 6c61 6920     New peripheral i
   d8fe0:	2073 6f63 6e6e 6365 6574 2e64 4600 6961     s connected..Fai
   d8ff0:	656c 2064 6f74 6120 7070 6e65 2064 6964     led to append di
   d9000:	6373 766f 7265 6465 6320 6168 6172 7463     scovered charact
   d9010:	7265 7369 6974 2e63 4600 6961 656c 2064     eristic..Failed 
   d9020:	6f74 6120 7070 6e65 2064 6964 6373 766f     to append discov
   d9030:	7265 6465 7320 7265 6976 6563 002e 6146     ered service..Fa
   d9040:	6c69 6465 7420 206f 7061 6570 646e 6c20     iled to append l
   d9050:	636f 6c61 6320 6168 6172 7463 7265 7369     ocal characteris
   d9060:	6974 2e63 4400 7075 696c 6163 6574 2064     tic..Duplicated 
   d9070:	6863 7261 6361 6574 6972 7473 6369 6320     characteristic c
   d9080:	6e61 6f6e 2074 6562 6120 6464 6465 002e     annot be added..

000d9090 <_ZTVSt15_Sp_counted_ptrIPN8particle6detail10FutureImplIbNS1_13FutureContextEEELN9__gnu_cxx12_Lock_policyE0EE>:
	...
   d9098:	6791 000d 6797 000d 67ed 000d 67a5 000d     .g...g...g...g..
   d90a8:	6793 000d                                   .g..

000d90ac <_ZTVN5spark13EthernetClassE>:
	...
   d90b4:	6e03 000d 6df9 000d 6def 000d 6de5 000d     .n...m...m...m..
   d90c4:	6dd9 000d 6dcd 000d 6dc1 000d 6db9 000d     .m...m...m...m..
   d90d4:	6daf 000d 6da5 000d 716d 000d               .m...m..mq..

000d90e0 <_ZTV7TwoWire>:
	...
   d90e8:	6e21 000d 6e6b 000d 6e43 000d 6e23 000d     !n..kn..Cn..#n..
   d90f8:	6e4b 000d 6e53 000d 6e5b 000d 6e63 000d     Kn..Sn..[n..cn..

000d9108 <_ZTV9IPAddress>:
	...
   d9110:	6ebd 000d 6ead 000d 6eaf 000d 6e6c 6600     .n...n...n..ln.f
   d9120:	006e 6f63 6564 6400 7465 6961 006c 0a0d     n.code.detail...
   d9130:	2500 3130 7530 0020 205d 2c00 0020 2928     .%010u .] ., .()
   d9140:	203a 2000 005b 6f63 6564 3d20 0020 6925     : . [.code = .%i
   d9150:	6400 7465 6961 736c 3d20 0020 6162 6475     .details = .baud
   d9160:	5300 7265 6169 006c 6553 6972 6c61 0031     .Serial.Serial1.
   d9170:	7974 6570 7000 7261 6d61 6300 646d 6900     type.param.cmd.i
   d9180:	0064 6e68 0064 7473 6d72 6600 6c69 0074     d.hnd.strm.filt.
   d9190:	766c 006c 6461 4864 6e61 6c64 7265 7200     lvl.addHandler.r
   d91a0:	6d65 766f 4865 6e61 6c64 7265 6500 756e     emoveHandler.enu
   d91b0:	486d 6e61 6c64 7265 0073 534a 4e4f 7453     mHandlers.JSONSt
   d91c0:	6572 6d61 6f4c 4867 6e61 6c64 7265 6100     reamLogHandler.a
   d91d0:	7070 6e00 6e6f 0065 7274 6361 0065 6e69     pp.none.trace.in
   d91e0:	6f66 7700 7261 006e 7265 6f72 0072 6170     fo.warn.error.pa
   d91f0:	696e 0063 6c61 006c                         nic.all.

000d91f8 <_ZTVN5spark9MeshClassE>:
	...
   d9200:	6fff 000d 6ff5 000d 6feb 000d 6fe1 000d     .o...o...o...o..
   d9210:	6fd5 000d 6fc9 000d 6fbd 000d 6fb5 000d     .o...o...o...o..
   d9220:	6fab 000d 6fa1 000d 716d 000d               .o...o..mq..

000d922c <_ZTVN5spark12NetworkClassE>:
	...
   d9234:	7105 000d 710f 000d 7119 000d 7123 000d     .q...q...q..#q..
   d9244:	712d 000d 7139 000d 7145 000d 7151 000d     -q..9q..Eq..Qq..
   d9254:	7159 000d 7163 000d 716d 000d               Yq..cq..mq..

000d9260 <_ZTV8SPIClass>:
	...
   d9268:	7425 000d 7427 000d 005a 2b25 3330 3a64     %t..'t..Z.%+03d:
   d9278:	3025 7532 2500 2d59 6d25 252d 5464 4825     %02u.%Y-%m-%dT%H
   d9288:	253a 3a4d 5325 7a25 6100 6373 6974 656d     :%M:%S%z.asctime
   d9298:	0000 0000                                   ....

000d929c <_ZTV11USARTSerial>:
	...
   d92a4:	7689 000d 76d9 000d 76e7 000d 724d 000d     .v...v...v..Mr..
   d92b4:	769d 000d 76bf 000d 76ab 000d 76d3 000d     .v...v...v...v..
   d92c4:	768b 000d 768f 000d                         .v...v..

000d92cc <_ZTV9USBSerial>:
	...
   d92d4:	77c5 000d 7815 000d 7823 000d 724d 000d     .w...x..#x..Mr..
   d92e4:	7801 000d 77c7 000d 77dd 000d 780f 000d     .x...w...w...x..
   d92f4:	77f3 000d 77c1 000d                         .w...w..

000d92fc <_ZTVN5spark9WiFiClassE>:
	...
   d9304:	792f 000d 7925 000d 791b 000d 78d1 000d     /y..%y...y...x..
   d9314:	790f 000d 7903 000d 78f7 000d 78ef 000d     .y...y...x...x..
   d9324:	78e5 000d 78db 000d 716d 000d               .x...x..mq..

000d9330 <__sf_fake_stdin>:
	...

000d9350 <__sf_fake_stdout>:
	...

000d9370 <__sf_fake_stderr>:
	...
   d9390:	0043                                        C.

000d9392 <link_const_variable_data_end>:
	...

000d9394 <link_constructors_location>:
   d9394:	000d45e1 	.word	0x000d45e1
   d9398:	000d4765 	.word	0x000d4765
   d939c:	000d4ba5 	.word	0x000d4ba5
   d93a0:	000d4e41 	.word	0x000d4e41
   d93a4:	000d50f9 	.word	0x000d50f9
   d93a8:	000d6781 	.word	0x000d6781
   d93ac:	000d6e0d 	.word	0x000d6e0d
   d93b0:	000d6f91 	.word	0x000d6f91
   d93b4:	000d70b5 	.word	0x000d70b5
   d93b8:	000d7239 	.word	0x000d7239
   d93bc:	000d7409 	.word	0x000d7409
   d93c0:	000d765d 	.word	0x000d765d
   d93c4:	000d7675 	.word	0x000d7675
   d93c8:	000d7939 	.word	0x000d7939
   d93cc:	000d7ba1 	.word	0x000d7ba1
   d93d0:	000d7bf9 	.word	0x000d7bf9
   d93d4:	000d7cbd 	.word	0x000d7cbd
   d93d8:	000d7d41 	.word	0x000d7d41
   d93dc:	000d7dc5 	.word	0x000d7dc5
